SF:/Users/renegeers/Source/p2p-ai-agents/src/agent/identity.rs
FN:242,_RINvMNtNtCsazECCRb7Zym_13p2p_ai_agents5agent8identityNtB3_8Identity11save_to_dirpEB7_
FN:287,_RINvMNtNtCsazECCRb7Zym_13p2p_ai_agents5agent8identityNtB3_8Identity13load_from_dirpEB7_
FN:213,_RINvMNtNtCsazECCRb7Zym_13p2p_ai_agents5agent8identityNtB3_8Identity16load_or_generatepEB7_
FN:91,_RINvMNtNtCsazECCRb7Zym_13p2p_ai_agents5agent8identityNtB3_8Identity4loadpEB7_
FN:106,_RINvMNtNtCsazECCRb7Zym_13p2p_ai_agents5agent8identityNtB3_8Identity4savepEB7_
FN:205,_RINvMNtNtCsazECCRb7Zym_13p2p_ai_agents5agent8identityNtB3_8Identity6existspEB7_
FN:292,_RNCINvMNtNtCsazECCRb7Zym_13p2p_ai_agents5agent8identityNtB5_8Identity13load_from_dirpE0B9_
FN:314,_RNCINvMNtNtCsazECCRb7Zym_13p2p_ai_agents5agent8identityNtB5_8Identity13load_from_dirpEs0_0B9_
FN:323,_RNCINvMNtNtCsazECCRb7Zym_13p2p_ai_agents5agent8identityNtB5_8Identity13load_from_dirpEs1_0B9_
FN:332,_RNCINvMNtNtCsazECCRb7Zym_13p2p_ai_agents5agent8identityNtB5_8Identity13load_from_dirpEs2_0B9_
FN:308,_RNCINvMNtNtCsazECCRb7Zym_13p2p_ai_agents5agent8identityNtB5_8Identity13load_from_dirpEs_0B9_
FN:194,_RNCNvMNtNtCsazECCRb7Zym_13p2p_ai_agents5agent8identityNtB4_8Identity11decrypt_key0B8_
FN:201,_RNCNvMNtNtCsazECCRb7Zym_13p2p_ai_agents5agent8identityNtB4_8Identity11decrypt_keys_0B8_
FN:171,_RNCNvMNtNtCsazECCRb7Zym_13p2p_ai_agents5agent8identityNtB4_8Identity11encrypt_key0B8_
FN:177,_RNCNvMNtNtCsazECCRb7Zym_13p2p_ai_agents5agent8identityNtB4_8Identity11encrypt_keys_0B8_
FN:142,_RNCNvMNtNtCsazECCRb7Zym_13p2p_ai_agents5agent8identityNtB4_8Identity28get_or_create_encryption_key0B8_
FN:161,_RNCNvMNtNtCsazECCRb7Zym_13p2p_ai_agents5agent8identityNtB4_8Identity28get_or_create_encryption_keys_0B8_
FN:120,_RNCNvMNtNtCsazECCRb7Zym_13p2p_ai_agents5agent8identityNtB4_8Identity6verify0B8_
FN:231,_RNCNvMNtNtCsazECCRb7Zym_13p2p_ai_agents5agent8identityNtB4_8Identity7peer_id0B8_
FN:186,_RNvMNtNtCsazECCRb7Zym_13p2p_ai_agents5agent8identityNtB2_8Identity11decrypt_key
FN:169,_RNvMNtNtCsazECCRb7Zym_13p2p_ai_agents5agent8identityNtB2_8Identity11encrypt_key
FN:129,_RNvMNtNtCsazECCRb7Zym_13p2p_ai_agents5agent8identityNtB2_8Identity13derive_key_id
FN:124,_RNvMNtNtCsazECCRb7Zym_13p2p_ai_agents5agent8identityNtB2_8Identity13verifying_key
FN:138,_RNvMNtNtCsazECCRb7Zym_13p2p_ai_agents5agent8identityNtB2_8Identity28get_or_create_encryption_key
FN:82,_RNvMNtNtCsazECCRb7Zym_13p2p_ai_agents5agent8identityNtB2_8Identity3new
FN:112,_RNvMNtNtCsazECCRb7Zym_13p2p_ai_agents5agent8identityNtB2_8Identity4sign
FN:117,_RNvMNtNtCsazECCRb7Zym_13p2p_ai_agents5agent8identityNtB2_8Identity6verify
FN:228,_RNvMNtNtCsazECCRb7Zym_13p2p_ai_agents5agent8identityNtB2_8Identity7peer_id
FN:242,_RINvMNtNtCs4ZEr9HMJnjR_13p2p_ai_agents5agent8identityNtB3_8Identity11save_to_dirRNtNtCsj7Z7QldOUMz_3std4path4PathEB7_
FN:242,_RINvMNtNtCs4ZEr9HMJnjR_13p2p_ai_agents5agent8identityNtB3_8Identity11save_to_dirRRNtNtCsj7Z7QldOUMz_3std4path4PathEB7_
FN:287,_RINvMNtNtCs4ZEr9HMJnjR_13p2p_ai_agents5agent8identityNtB3_8Identity13load_from_dirRNtNtCsj7Z7QldOUMz_3std4path4PathEB7_
FN:213,_RINvMNtNtCs4ZEr9HMJnjR_13p2p_ai_agents5agent8identityNtB3_8Identity16load_or_generateRNtNtCsj7Z7QldOUMz_3std4path4PathEB7_
FN:91,_RINvMNtNtCs4ZEr9HMJnjR_13p2p_ai_agents5agent8identityNtB3_8Identity4loadRNtNtCshvsEXA2Vjmk_8tempfile4file13NamedTempFileEB7_
FN:106,_RINvMNtNtCs4ZEr9HMJnjR_13p2p_ai_agents5agent8identityNtB3_8Identity4saveRNtNtCshvsEXA2Vjmk_8tempfile4file13NamedTempFileEB7_
FN:205,_RINvMNtNtCs4ZEr9HMJnjR_13p2p_ai_agents5agent8identityNtB3_8Identity6existsRNtNtCsj7Z7QldOUMz_3std4path4PathEB7_
FN:205,_RINvMNtNtCs4ZEr9HMJnjR_13p2p_ai_agents5agent8identityNtB3_8Identity6existsRRNtNtCsj7Z7QldOUMz_3std4path4PathEB7_
FN:292,_RNCINvMNtNtCs4ZEr9HMJnjR_13p2p_ai_agents5agent8identityNtB5_8Identity13load_from_dirRNtNtCsj7Z7QldOUMz_3std4path4PathE0B9_
FN:314,_RNCINvMNtNtCs4ZEr9HMJnjR_13p2p_ai_agents5agent8identityNtB5_8Identity13load_from_dirRNtNtCsj7Z7QldOUMz_3std4path4PathEs0_0B9_
FN:323,_RNCINvMNtNtCs4ZEr9HMJnjR_13p2p_ai_agents5agent8identityNtB5_8Identity13load_from_dirRNtNtCsj7Z7QldOUMz_3std4path4PathEs1_0B9_
FN:332,_RNCINvMNtNtCs4ZEr9HMJnjR_13p2p_ai_agents5agent8identityNtB5_8Identity13load_from_dirRNtNtCsj7Z7QldOUMz_3std4path4PathEs2_0B9_
FN:308,_RNCINvMNtNtCs4ZEr9HMJnjR_13p2p_ai_agents5agent8identityNtB5_8Identity13load_from_dirRNtNtCsj7Z7QldOUMz_3std4path4PathEs_0B9_
FN:194,_RNCNvMNtNtCs4ZEr9HMJnjR_13p2p_ai_agents5agent8identityNtB4_8Identity11decrypt_key0B8_
FN:201,_RNCNvMNtNtCs4ZEr9HMJnjR_13p2p_ai_agents5agent8identityNtB4_8Identity11decrypt_keys_0B8_
FN:171,_RNCNvMNtNtCs4ZEr9HMJnjR_13p2p_ai_agents5agent8identityNtB4_8Identity11encrypt_key0B8_
FN:177,_RNCNvMNtNtCs4ZEr9HMJnjR_13p2p_ai_agents5agent8identityNtB4_8Identity11encrypt_keys_0B8_
FN:142,_RNCNvMNtNtCs4ZEr9HMJnjR_13p2p_ai_agents5agent8identityNtB4_8Identity28get_or_create_encryption_key0B8_
FN:161,_RNCNvMNtNtCs4ZEr9HMJnjR_13p2p_ai_agents5agent8identityNtB4_8Identity28get_or_create_encryption_keys_0B8_
FN:120,_RNCNvMNtNtCs4ZEr9HMJnjR_13p2p_ai_agents5agent8identityNtB4_8Identity6verify0B8_
FN:231,_RNCNvMNtNtCs4ZEr9HMJnjR_13p2p_ai_agents5agent8identityNtB4_8Identity7peer_id0B8_
FN:186,_RNvMNtNtCs4ZEr9HMJnjR_13p2p_ai_agents5agent8identityNtB2_8Identity11decrypt_key
FN:169,_RNvMNtNtCs4ZEr9HMJnjR_13p2p_ai_agents5agent8identityNtB2_8Identity11encrypt_key
FN:129,_RNvMNtNtCs4ZEr9HMJnjR_13p2p_ai_agents5agent8identityNtB2_8Identity13derive_key_id
FN:124,_RNvMNtNtCs4ZEr9HMJnjR_13p2p_ai_agents5agent8identityNtB2_8Identity13verifying_key
FN:138,_RNvMNtNtCs4ZEr9HMJnjR_13p2p_ai_agents5agent8identityNtB2_8Identity28get_or_create_encryption_key
FN:82,_RNvMNtNtCs4ZEr9HMJnjR_13p2p_ai_agents5agent8identityNtB2_8Identity3new
FN:112,_RNvMNtNtCs4ZEr9HMJnjR_13p2p_ai_agents5agent8identityNtB2_8Identity4sign
FN:117,_RNvMNtNtCs4ZEr9HMJnjR_13p2p_ai_agents5agent8identityNtB2_8Identity6verify
FN:228,_RNvMNtNtCs4ZEr9HMJnjR_13p2p_ai_agents5agent8identityNtB2_8Identity7peer_id
FN:425,_RNvNtNtNtCs4ZEr9HMJnjR_13p2p_ai_agents5agent8identity5testss_20test_identity_exists
FN:490,_RNvNtNtNtCs4ZEr9HMJnjR_13p2p_ai_agents5agent8identity5testss_21test_file_permissions
FN:381,_RNvNtNtNtCs4ZEr9HMJnjR_13p2p_ai_agents5agent8identity5testss_21test_identity_signing
FN:375,_RNvNtNtNtCs4ZEr9HMJnjR_13p2p_ai_agents5agent8identity5testss_22test_identity_creation
FN:557,_RNvNtNtNtCs4ZEr9HMJnjR_13p2p_ai_agents5agent8identity5testss_22test_key_id_derivation
FN:477,_RNvNtNtNtCs4ZEr9HMJnjR_13p2p_ai_agents5agent8identity5testss_23test_peer_id_derivation
FN:390,_RNvNtNtNtCs4ZEr9HMJnjR_13p2p_ai_agents5agent8identity5testss_25test_identity_persistence
FN:542,_RNvNtNtNtCs4ZEr9HMJnjR_13p2p_ai_agents5agent8identity5testss_26test_encrypted_file_format
FN:404,_RNvNtNtNtCs4ZEr9HMJnjR_13p2p_ai_agents5agent8identity5testss_27test_identity_save_load_dir
FN:576,_RNvNtNtNtCs4ZEr9HMJnjR_13p2p_ai_agents5agent8identity5testss_29test_encryption_with_keychain
FN:530,_RNvNtNtNtCs4ZEr9HMJnjR_13p2p_ai_agents5agent8identity5testss_30test_encrypt_decrypt_roundtrip
FN:594,_RNvNtNtNtCs4ZEr9HMJnjR_13p2p_ai_agents5agent8identity5testss_30test_encrypted_key_permissions
FN:440,_RNvNtNtNtCs4ZEr9HMJnjR_13p2p_ai_agents5agent8identity5testss_34test_identity_load_or_generate_new
FN:509,_RNvNtNtNtCs4ZEr9HMJnjR_13p2p_ai_agents5agent8identity5testss_37test_peer_id_consistency_across_loads
FN:456,_RNvNtNtNtCs4ZEr9HMJnjR_13p2p_ai_agents5agent8identity5testss_39test_identity_load_or_generate_existing
FNDA:0,_RINvMNtNtCsazECCRb7Zym_13p2p_ai_agents5agent8identityNtB3_8Identity11save_to_dirpEB7_
FNDA:0,_RINvMNtNtCsazECCRb7Zym_13p2p_ai_agents5agent8identityNtB3_8Identity13load_from_dirpEB7_
FNDA:0,_RINvMNtNtCsazECCRb7Zym_13p2p_ai_agents5agent8identityNtB3_8Identity16load_or_generatepEB7_
FNDA:0,_RINvMNtNtCsazECCRb7Zym_13p2p_ai_agents5agent8identityNtB3_8Identity4loadpEB7_
FNDA:0,_RINvMNtNtCsazECCRb7Zym_13p2p_ai_agents5agent8identityNtB3_8Identity4savepEB7_
FNDA:0,_RINvMNtNtCsazECCRb7Zym_13p2p_ai_agents5agent8identityNtB3_8Identity6existspEB7_
FNDA:0,_RNCINvMNtNtCsazECCRb7Zym_13p2p_ai_agents5agent8identityNtB5_8Identity13load_from_dirpE0B9_
FNDA:0,_RNCINvMNtNtCsazECCRb7Zym_13p2p_ai_agents5agent8identityNtB5_8Identity13load_from_dirpEs0_0B9_
FNDA:0,_RNCINvMNtNtCsazECCRb7Zym_13p2p_ai_agents5agent8identityNtB5_8Identity13load_from_dirpEs1_0B9_
FNDA:0,_RNCINvMNtNtCsazECCRb7Zym_13p2p_ai_agents5agent8identityNtB5_8Identity13load_from_dirpEs2_0B9_
FNDA:0,_RNCINvMNtNtCsazECCRb7Zym_13p2p_ai_agents5agent8identityNtB5_8Identity13load_from_dirpEs_0B9_
FNDA:0,_RNCNvMNtNtCsazECCRb7Zym_13p2p_ai_agents5agent8identityNtB4_8Identity11decrypt_key0B8_
FNDA:0,_RNCNvMNtNtCsazECCRb7Zym_13p2p_ai_agents5agent8identityNtB4_8Identity11decrypt_keys_0B8_
FNDA:0,_RNCNvMNtNtCsazECCRb7Zym_13p2p_ai_agents5agent8identityNtB4_8Identity11encrypt_key0B8_
FNDA:0,_RNCNvMNtNtCsazECCRb7Zym_13p2p_ai_agents5agent8identityNtB4_8Identity11encrypt_keys_0B8_
FNDA:0,_RNCNvMNtNtCsazECCRb7Zym_13p2p_ai_agents5agent8identityNtB4_8Identity28get_or_create_encryption_key0B8_
FNDA:0,_RNCNvMNtNtCsazECCRb7Zym_13p2p_ai_agents5agent8identityNtB4_8Identity28get_or_create_encryption_keys_0B8_
FNDA:0,_RNCNvMNtNtCsazECCRb7Zym_13p2p_ai_agents5agent8identityNtB4_8Identity6verify0B8_
FNDA:0,_RNCNvMNtNtCsazECCRb7Zym_13p2p_ai_agents5agent8identityNtB4_8Identity7peer_id0B8_
FNDA:0,_RNvMNtNtCsazECCRb7Zym_13p2p_ai_agents5agent8identityNtB2_8Identity11decrypt_key
FNDA:0,_RNvMNtNtCsazECCRb7Zym_13p2p_ai_agents5agent8identityNtB2_8Identity11encrypt_key
FNDA:0,_RNvMNtNtCsazECCRb7Zym_13p2p_ai_agents5agent8identityNtB2_8Identity13derive_key_id
FNDA:0,_RNvMNtNtCsazECCRb7Zym_13p2p_ai_agents5agent8identityNtB2_8Identity13verifying_key
FNDA:0,_RNvMNtNtCsazECCRb7Zym_13p2p_ai_agents5agent8identityNtB2_8Identity28get_or_create_encryption_key
FNDA:0,_RNvMNtNtCsazECCRb7Zym_13p2p_ai_agents5agent8identityNtB2_8Identity3new
FNDA:0,_RNvMNtNtCsazECCRb7Zym_13p2p_ai_agents5agent8identityNtB2_8Identity4sign
FNDA:0,_RNvMNtNtCsazECCRb7Zym_13p2p_ai_agents5agent8identityNtB2_8Identity6verify
FNDA:0,_RNvMNtNtCsazECCRb7Zym_13p2p_ai_agents5agent8identityNtB2_8Identity7peer_id
FNDA:7,_RINvMNtNtCs4ZEr9HMJnjR_13p2p_ai_agents5agent8identityNtB3_8Identity11save_to_dirRNtNtCsj7Z7QldOUMz_3std4path4PathEB7_
FNDA:2,_RINvMNtNtCs4ZEr9HMJnjR_13p2p_ai_agents5agent8identityNtB3_8Identity11save_to_dirRRNtNtCsj7Z7QldOUMz_3std4path4PathEB7_
FNDA:5,_RINvMNtNtCs4ZEr9HMJnjR_13p2p_ai_agents5agent8identityNtB3_8Identity13load_from_dirRNtNtCsj7Z7QldOUMz_3std4path4PathEB7_
FNDA:3,_RINvMNtNtCs4ZEr9HMJnjR_13p2p_ai_agents5agent8identityNtB3_8Identity16load_or_generateRNtNtCsj7Z7QldOUMz_3std4path4PathEB7_
FNDA:1,_RINvMNtNtCs4ZEr9HMJnjR_13p2p_ai_agents5agent8identityNtB3_8Identity4loadRNtNtCshvsEXA2Vjmk_8tempfile4file13NamedTempFileEB7_
FNDA:1,_RINvMNtNtCs4ZEr9HMJnjR_13p2p_ai_agents5agent8identityNtB3_8Identity4saveRNtNtCshvsEXA2Vjmk_8tempfile4file13NamedTempFileEB7_
FNDA:2,_RINvMNtNtCs4ZEr9HMJnjR_13p2p_ai_agents5agent8identityNtB3_8Identity6existsRNtNtCsj7Z7QldOUMz_3std4path4PathEB7_
FNDA:3,_RINvMNtNtCs4ZEr9HMJnjR_13p2p_ai_agents5agent8identityNtB3_8Identity6existsRRNtNtCsj7Z7QldOUMz_3std4path4PathEB7_
FNDA:0,_RNCINvMNtNtCs4ZEr9HMJnjR_13p2p_ai_agents5agent8identityNtB5_8Identity13load_from_dirRNtNtCsj7Z7QldOUMz_3std4path4PathE0B9_
FNDA:0,_RNCINvMNtNtCs4ZEr9HMJnjR_13p2p_ai_agents5agent8identityNtB5_8Identity13load_from_dirRNtNtCsj7Z7QldOUMz_3std4path4PathEs0_0B9_
FNDA:0,_RNCINvMNtNtCs4ZEr9HMJnjR_13p2p_ai_agents5agent8identityNtB5_8Identity13load_from_dirRNtNtCsj7Z7QldOUMz_3std4path4PathEs1_0B9_
FNDA:0,_RNCINvMNtNtCs4ZEr9HMJnjR_13p2p_ai_agents5agent8identityNtB5_8Identity13load_from_dirRNtNtCsj7Z7QldOUMz_3std4path4PathEs2_0B9_
FNDA:0,_RNCINvMNtNtCs4ZEr9HMJnjR_13p2p_ai_agents5agent8identityNtB5_8Identity13load_from_dirRNtNtCsj7Z7QldOUMz_3std4path4PathEs_0B9_
FNDA:0,_RNCNvMNtNtCs4ZEr9HMJnjR_13p2p_ai_agents5agent8identityNtB4_8Identity11decrypt_key0B8_
FNDA:0,_RNCNvMNtNtCs4ZEr9HMJnjR_13p2p_ai_agents5agent8identityNtB4_8Identity11decrypt_keys_0B8_
FNDA:0,_RNCNvMNtNtCs4ZEr9HMJnjR_13p2p_ai_agents5agent8identityNtB4_8Identity11encrypt_key0B8_
FNDA:0,_RNCNvMNtNtCs4ZEr9HMJnjR_13p2p_ai_agents5agent8identityNtB4_8Identity11encrypt_keys_0B8_
FNDA:0,_RNCNvMNtNtCs4ZEr9HMJnjR_13p2p_ai_agents5agent8identityNtB4_8Identity28get_or_create_encryption_key0B8_
FNDA:0,_RNCNvMNtNtCs4ZEr9HMJnjR_13p2p_ai_agents5agent8identityNtB4_8Identity28get_or_create_encryption_keys_0B8_
FNDA:1,_RNCNvMNtNtCs4ZEr9HMJnjR_13p2p_ai_agents5agent8identityNtB4_8Identity6verify0B8_
FNDA:0,_RNCNvMNtNtCs4ZEr9HMJnjR_13p2p_ai_agents5agent8identityNtB4_8Identity7peer_id0B8_
FNDA:6,_RNvMNtNtCs4ZEr9HMJnjR_13p2p_ai_agents5agent8identityNtB2_8Identity11decrypt_key
FNDA:10,_RNvMNtNtCs4ZEr9HMJnjR_13p2p_ai_agents5agent8identityNtB2_8Identity11encrypt_key
FNDA:17,_RNvMNtNtCs4ZEr9HMJnjR_13p2p_ai_agents5agent8identityNtB2_8Identity13derive_key_id
FNDA:1,_RNvMNtNtCs4ZEr9HMJnjR_13p2p_ai_agents5agent8identityNtB2_8Identity13verifying_key
FNDA:14,_RNvMNtNtCs4ZEr9HMJnjR_13p2p_ai_agents5agent8identityNtB2_8Identity28get_or_create_encryption_key
FNDA:15,_RNvMNtNtCs4ZEr9HMJnjR_13p2p_ai_agents5agent8identityNtB2_8Identity3new
FNDA:5,_RNvMNtNtCs4ZEr9HMJnjR_13p2p_ai_agents5agent8identityNtB2_8Identity4sign
FNDA:6,_RNvMNtNtCs4ZEr9HMJnjR_13p2p_ai_agents5agent8identityNtB2_8Identity6verify
FNDA:15,_RNvMNtNtCs4ZEr9HMJnjR_13p2p_ai_agents5agent8identityNtB2_8Identity7peer_id
FNDA:1,_RNvNtNtNtCs4ZEr9HMJnjR_13p2p_ai_agents5agent8identity5testss_20test_identity_exists
FNDA:1,_RNvNtNtNtCs4ZEr9HMJnjR_13p2p_ai_agents5agent8identity5testss_21test_file_permissions
FNDA:1,_RNvNtNtNtCs4ZEr9HMJnjR_13p2p_ai_agents5agent8identity5testss_21test_identity_signing
FNDA:1,_RNvNtNtNtCs4ZEr9HMJnjR_13p2p_ai_agents5agent8identity5testss_22test_identity_creation
FNDA:1,_RNvNtNtNtCs4ZEr9HMJnjR_13p2p_ai_agents5agent8identity5testss_22test_key_id_derivation
FNDA:1,_RNvNtNtNtCs4ZEr9HMJnjR_13p2p_ai_agents5agent8identity5testss_23test_peer_id_derivation
FNDA:1,_RNvNtNtNtCs4ZEr9HMJnjR_13p2p_ai_agents5agent8identity5testss_25test_identity_persistence
FNDA:1,_RNvNtNtNtCs4ZEr9HMJnjR_13p2p_ai_agents5agent8identity5testss_26test_encrypted_file_format
FNDA:1,_RNvNtNtNtCs4ZEr9HMJnjR_13p2p_ai_agents5agent8identity5testss_27test_identity_save_load_dir
FNDA:1,_RNvNtNtNtCs4ZEr9HMJnjR_13p2p_ai_agents5agent8identity5testss_29test_encryption_with_keychain
FNDA:1,_RNvNtNtNtCs4ZEr9HMJnjR_13p2p_ai_agents5agent8identity5testss_30test_encrypt_decrypt_roundtrip
FNDA:1,_RNvNtNtNtCs4ZEr9HMJnjR_13p2p_ai_agents5agent8identity5testss_30test_encrypted_key_permissions
FNDA:1,_RNvNtNtNtCs4ZEr9HMJnjR_13p2p_ai_agents5agent8identity5testss_34test_identity_load_or_generate_new
FNDA:1,_RNvNtNtNtCs4ZEr9HMJnjR_13p2p_ai_agents5agent8identity5testss_37test_peer_id_consistency_across_loads
FNDA:1,_RNvNtNtNtCs4ZEr9HMJnjR_13p2p_ai_agents5agent8identity5testss_39test_identity_load_or_generate_existing
FNF:43
FNH:31
DA:82,15
DA:83,15
DA:84,15
DA:85,15
DA:86,15
DA:87,15
DA:88,15
DA:91,1
DA:92,1
DA:93,1
DA:94,0
DA:95,1
DA:96,1
DA:97,1
DA:98,1
DA:99,1
DA:100,1
DA:101,1
DA:102,1
DA:103,1
DA:106,1
DA:107,1
DA:108,1
DA:109,1
DA:112,5
DA:113,5
DA:114,5
DA:117,6
DA:118,6
DA:119,6
DA:120,6
DA:121,6
DA:124,1
DA:125,1
DA:126,1
DA:129,17
DA:132,17
DA:133,17
DA:134,17
DA:135,17
DA:138,14
DA:141,14
DA:142,14
DA:145,14
DA:146,5
DA:147,5
DA:148,5
DA:149,5
DA:150,5
DA:154,9
DA:155,9
DA:156,9
DA:157,9
DA:158,9
DA:159,9
DA:160,9
DA:161,9
DA:163,9
DA:166,14
DA:169,10
DA:170,10
DA:171,10
DA:173,10
DA:175,10
DA:176,10
DA:177,10
DA:180,10
DA:181,10
DA:182,10
DA:183,10
DA:186,6
DA:187,6
DA:188,0
DA:189,0
DA:190,0
DA:191,6
DA:193,6
DA:194,6
DA:196,6
DA:197,6
DA:198,6
DA:199,6
DA:200,6
DA:201,6
DA:202,6
DA:205,5
DA:206,5
DA:207,5
DA:208,5
DA:209,5
DA:213,3
DA:214,3
DA:215,1
DA:216,1
DA:218,2
DA:219,2
DA:220,2
DA:221,2
DA:222,2
DA:223,2
DA:225,3
DA:228,15
DA:230,15
DA:231,15
DA:232,0
DA:233,15
DA:234,15
DA:235,15
DA:242,9
DA:243,9
DA:244,9
DA:247,9
DA:250,9
DA:253,9
DA:254,9
DA:256,9
DA:257,9
DA:258,9
DA:262,9
DA:263,9
DA:265,9
DA:266,9
DA:268,9
DA:269,9
DA:270,9
DA:274,9
DA:275,9
DA:276,9
DA:278,9
DA:279,9
DA:287,5
DA:288,5
DA:289,5
DA:292,5
DA:293,0
DA:294,0
DA:295,0
DA:296,0
DA:297,0
DA:299,5
DA:300,5
DA:301,0
DA:302,0
DA:303,0
DA:304,5
DA:305,5
DA:306,5
DA:307,5
DA:308,5
DA:311,5
DA:314,5
DA:315,0
DA:316,0
DA:317,0
DA:318,0
DA:320,5
DA:323,5
DA:324,0
DA:325,0
DA:326,0
DA:327,0
DA:328,0
DA:330,5
DA:331,5
DA:332,5
DA:333,0
DA:334,0
DA:335,0
DA:336,0
DA:338,5
DA:341,5
DA:342,5
DA:343,5
DA:344,0
DA:345,0
DA:346,5
DA:347,5
DA:348,5
DA:349,5
DA:350,5
DA:351,5
DA:352,5
DA:353,5
DA:354,5
DA:355,5
DA:356,5
DA:357,5
DA:358,5
DA:360,5
DA:361,5
DA:362,5
DA:363,5
DA:375,1
DA:376,1
DA:377,1
DA:378,1
DA:381,1
DA:382,1
DA:383,1
DA:384,1
DA:385,1
DA:386,1
DA:387,1
DA:390,1
DA:391,1
DA:392,1
DA:393,1
DA:394,1
DA:395,1
DA:396,1
DA:397,1
DA:398,1
DA:399,1
DA:400,1
DA:401,1
DA:404,1
DA:405,1
DA:406,1
DA:407,1
DA:408,1
DA:409,1
DA:410,1
DA:411,1
DA:412,1
DA:413,1
DA:416,1
DA:417,1
DA:418,1
DA:419,1
DA:420,1
DA:421,1
DA:422,1
DA:425,1
DA:426,1
DA:427,1
DA:428,1
DA:429,1
DA:432,1
DA:433,1
DA:434,1
DA:435,1
DA:436,1
DA:437,1
DA:440,1
DA:441,1
DA:442,1
DA:443,1
DA:444,1
DA:445,1
DA:446,1
DA:447,1
DA:448,1
DA:451,1
DA:452,1
DA:453,1
DA:456,1
DA:457,1
DA:458,1
DA:459,1
DA:460,1
DA:461,1
DA:462,1
DA:463,1
DA:464,1
DA:465,1
DA:466,1
DA:467,1
DA:468,1
DA:471,1
DA:472,1
DA:473,1
DA:474,1
DA:477,1
DA:478,1
DA:479,1
DA:480,1
DA:481,1
DA:482,1
DA:485,1
DA:486,1
DA:490,1
DA:493,1
DA:494,1
DA:495,1
DA:496,1
DA:497,1
DA:498,1
DA:499,1
DA:500,1
DA:503,1
DA:504,1
DA:505,1
DA:506,1
DA:509,1
DA:510,1
DA:511,1
DA:512,1
DA:513,1
DA:514,1
DA:515,1
DA:516,1
DA:517,1
DA:518,1
DA:519,1
DA:520,1
DA:521,1
DA:522,1
DA:523,1
DA:524,1
DA:525,1
DA:526,1
DA:527,1
DA:530,1
DA:531,1
DA:532,1
DA:533,1
DA:534,1
DA:535,1
DA:536,1
DA:537,1
DA:538,1
DA:539,1
DA:542,1
DA:543,1
DA:544,1
DA:545,1
DA:546,1
DA:547,1
DA:548,1
DA:549,1
DA:550,1
DA:551,1
DA:552,1
DA:553,1
DA:554,1
DA:557,1
DA:558,1
DA:559,1
DA:560,1
DA:561,1
DA:562,1
DA:563,1
DA:564,1
DA:565,1
DA:566,1
DA:569,1
DA:572,1
DA:573,1
DA:576,1
DA:577,1
DA:578,1
DA:579,1
DA:580,1
DA:581,1
DA:582,1
DA:583,1
DA:584,1
DA:585,1
DA:586,1
DA:587,1
DA:588,1
DA:589,1
DA:590,1
DA:594,1
DA:597,1
DA:598,1
DA:599,1
DA:600,1
DA:601,1
DA:602,1
DA:603,1
DA:604,1
DA:605,1
BRF:0
BRH:0
LF:391
LH:346
end_of_record
SF:/Users/renegeers/Source/p2p-ai-agents/src/agent/mod.rs
FN:243,_RNCNvMs2_NtCsazECCRb7Zym_13p2p_ai_agents5agentNtB7_12DefaultAgent3new0B9_
FN:423,_RNCNCNvXsq_NtCsazECCRb7Zym_13p2p_ai_agents5agentNtB9_12DefaultAgentNtB9_5Agent14broadcast_task00Bb_
FN:442,_RNCNCNvXsq_NtCsazECCRb7Zym_13p2p_ai_agents5agentNtB9_12DefaultAgentNtB9_5Agent14broadcast_task0s0_0Bb_
FN:429,_RNCNCNvXsq_NtCsazECCRb7Zym_13p2p_ai_agents5agentNtB9_12DefaultAgentNtB9_5Agent14broadcast_task0s_0Bb_
FN:477,_RNCNCNvXsq_NtCsazECCRb7Zym_13p2p_ai_agents5agentNtB9_12DefaultAgentNtB9_5Agent14discover_peers00Bb_
FN:488,_RNCNCNvXsq_NtCsazECCRb7Zym_13p2p_ai_agents5agentNtB9_12DefaultAgentNtB9_5Agent14discover_peers0s0_0Bb_
FN:482,_RNCNCNvXsq_NtCsazECCRb7Zym_13p2p_ai_agents5agentNtB9_12DefaultAgentNtB9_5Agent14discover_peers0s_0Bb_
FN:340,_RNCNCNvXsq_NtCsazECCRb7Zym_13p2p_ai_agents5agentNtB9_12DefaultAgentNtB9_5Agent18connect_to_network00Bb_
FN:352,_RNCNCNvXsq_NtCsazECCRb7Zym_13p2p_ai_agents5agentNtB9_12DefaultAgentNtB9_5Agent18connect_to_network0s_0Bb_
FN:367,_RNCNCNvXsq_NtCsazECCRb7Zym_13p2p_ai_agents5agentNtB9_12DefaultAgentNtB9_5Agent23disconnect_from_network00Bb_
FN:288,_RNCNvXsq_NtCsazECCRb7Zym_13p2p_ai_agents5agentNtB7_12DefaultAgentNtB7_5Agent11submit_task0B9_
FN:293,_RNCNvXsq_NtCsazECCRb7Zym_13p2p_ai_agents5agentNtB7_12DefaultAgentNtB7_5Agent11task_status0B9_
FN:414,_RNCNvXsq_NtCsazECCRb7Zym_13p2p_ai_agents5agentNtB7_12DefaultAgentNtB7_5Agent14broadcast_task0B9_
FN:465,_RNCNvXsq_NtCsazECCRb7Zym_13p2p_ai_agents5agentNtB7_12DefaultAgentNtB7_5Agent14discover_peers0B9_
FN:382,_RNCNvXsq_NtCsazECCRb7Zym_13p2p_ai_agents5agentNtB7_12DefaultAgentNtB7_5Agent14network_status0B9_
FN:298,_RNCNvXsq_NtCsazECCRb7Zym_13p2p_ai_agents5agentNtB7_12DefaultAgentNtB7_5Agent14resource_usage0B9_
FN:305,_RNCNvXsq_NtCsazECCRb7Zym_13p2p_ai_agents5agentNtB7_12DefaultAgentNtB7_5Agent18connect_to_network0B9_
FN:363,_RNCNvXsq_NtCsazECCRb7Zym_13p2p_ai_agents5agentNtB7_12DefaultAgentNtB7_5Agent23disconnect_from_network0B9_
FN:271,_RNCNvXsq_NtCsazECCRb7Zym_13p2p_ai_agents5agentNtB7_12DefaultAgentNtB7_5Agent4stop0B9_
FN:266,_RNCNvXsq_NtCsazECCRb7Zym_13p2p_ai_agents5agentNtB7_12DefaultAgentNtB7_5Agent5start0B9_
FN:276,_RNCNvXsq_NtCsazECCRb7Zym_13p2p_ai_agents5agentNtB7_12DefaultAgentNtB7_5Agent6status0B9_
FN:38,_RNvMNtCsazECCRb7Zym_13p2p_ai_agents5agentNtB2_7AgentId11from_string
FN:33,_RNvMNtCsazECCRb7Zym_13p2p_ai_agents5agentNtB2_7AgentId3new
FN:43,_RNvMNtCsazECCRb7Zym_13p2p_ai_agents5agentNtB2_7AgentId6as_str
FN:86,_RNvMs1_NtCsazECCRb7Zym_13p2p_ai_agents5agentNtB5_14ResourceLimits8validate
FN:243,_RNvMs2_NtCsazECCRb7Zym_13p2p_ai_agents5agentNtB5_12DefaultAgent3new
FN:55,_RNvXs0_NtCsazECCRb7Zym_13p2p_ai_agents5agentNtB5_7AgentIdNtNtCsaTRkahAGrLL_4core3fmt7Display3fmt
FN:49,_RNvXs_NtCsazECCRb7Zym_13p2p_ai_agents5agentNtB4_7AgentIdNtNtCsaTRkahAGrLL_4core7default7Default7default
FN:291,_RNvXsq_NtCsazECCRb7Zym_13p2p_ai_agents5agentNtB5_12DefaultAgentNtB5_5Agent11submit_task
FN:296,_RNvXsq_NtCsazECCRb7Zym_13p2p_ai_agents5agentNtB5_12DefaultAgentNtB5_5Agent11task_status
FN:463,_RNvXsq_NtCsazECCRb7Zym_13p2p_ai_agents5agentNtB5_12DefaultAgentNtB5_5Agent14broadcast_task
FN:511,_RNvXsq_NtCsazECCRb7Zym_13p2p_ai_agents5agentNtB5_12DefaultAgentNtB5_5Agent14discover_peers
FN:412,_RNvXsq_NtCsazECCRb7Zym_13p2p_ai_agents5agentNtB5_12DefaultAgentNtB5_5Agent14network_status
FN:303,_RNvXsq_NtCsazECCRb7Zym_13p2p_ai_agents5agentNtB5_12DefaultAgentNtB5_5Agent14resource_usage
FN:361,_RNvXsq_NtCsazECCRb7Zym_13p2p_ai_agents5agentNtB5_12DefaultAgentNtB5_5Agent18connect_to_network
FN:380,_RNvXsq_NtCsazECCRb7Zym_13p2p_ai_agents5agentNtB5_12DefaultAgentNtB5_5Agent23disconnect_from_network
FN:258,_RNvXsq_NtCsazECCRb7Zym_13p2p_ai_agents5agentNtB5_12DefaultAgentNtB5_5Agent2id
FN:274,_RNvXsq_NtCsazECCRb7Zym_13p2p_ai_agents5agentNtB5_12DefaultAgentNtB5_5Agent4stop
FN:269,_RNvXsq_NtCsazECCRb7Zym_13p2p_ai_agents5agentNtB5_12DefaultAgentNtB5_5Agent5start
FN:262,_RNvXsq_NtCsazECCRb7Zym_13p2p_ai_agents5agentNtB5_12DefaultAgentNtB5_5Agent6config
FN:286,_RNvXsq_NtCsazECCRb7Zym_13p2p_ai_agents5agentNtB5_12DefaultAgentNtB5_5Agent6status
FN:243,_RNCNvMs2_NtCsazECCRb7Zym_13p2p_ai_agents5agentNtB7_12DefaultAgent3new0Cs1lIwxEfFG2Y_20examples_integration
FN:38,_RNvMNtCs4ZEr9HMJnjR_13p2p_ai_agents5agentNtB2_7AgentId11from_string
FN:33,_RNvMNtCs4ZEr9HMJnjR_13p2p_ai_agents5agentNtB2_7AgentId3new
FN:43,_RNvMNtCs4ZEr9HMJnjR_13p2p_ai_agents5agentNtB2_7AgentId6as_str
FN:86,_RNvMs1_NtCs4ZEr9HMJnjR_13p2p_ai_agents5agentNtB5_14ResourceLimits8validate
FN:243,_RNvMs2_NtCs4ZEr9HMJnjR_13p2p_ai_agents5agentNtB5_12DefaultAgent3new
FN:55,_RNvXs0_NtCs4ZEr9HMJnjR_13p2p_ai_agents5agentNtB5_7AgentIdNtNtCsaTRkahAGrLL_4core3fmt7Display3fmt
FN:49,_RNvXs_NtCs4ZEr9HMJnjR_13p2p_ai_agents5agentNtB4_7AgentIdNtNtCsaTRkahAGrLL_4core7default7Default7default
FN:412,_RNvXsq_NtCs4ZEr9HMJnjR_13p2p_ai_agents5agentNtB5_12DefaultAgentNtB5_5Agent14network_status
FN:258,_RNvXsq_NtCs4ZEr9HMJnjR_13p2p_ai_agents5agentNtB5_12DefaultAgentNtB5_5Agent2id
FN:286,_RNvXsq_NtCs4ZEr9HMJnjR_13p2p_ai_agents5agentNtB5_12DefaultAgentNtB5_5Agent6status
FN:423,_RNCNCNvXsq_NtCs4ZEr9HMJnjR_13p2p_ai_agents5agentNtB9_12DefaultAgentNtB9_5Agent14broadcast_task00Bb_
FN:442,_RNCNCNvXsq_NtCs4ZEr9HMJnjR_13p2p_ai_agents5agentNtB9_12DefaultAgentNtB9_5Agent14broadcast_task0s0_0Bb_
FN:429,_RNCNCNvXsq_NtCs4ZEr9HMJnjR_13p2p_ai_agents5agentNtB9_12DefaultAgentNtB9_5Agent14broadcast_task0s_0Bb_
FN:477,_RNCNCNvXsq_NtCs4ZEr9HMJnjR_13p2p_ai_agents5agentNtB9_12DefaultAgentNtB9_5Agent14discover_peers00Bb_
FN:488,_RNCNCNvXsq_NtCs4ZEr9HMJnjR_13p2p_ai_agents5agentNtB9_12DefaultAgentNtB9_5Agent14discover_peers0s0_0Bb_
FN:482,_RNCNCNvXsq_NtCs4ZEr9HMJnjR_13p2p_ai_agents5agentNtB9_12DefaultAgentNtB9_5Agent14discover_peers0s_0Bb_
FN:340,_RNCNCNvXsq_NtCs4ZEr9HMJnjR_13p2p_ai_agents5agentNtB9_12DefaultAgentNtB9_5Agent18connect_to_network00Bb_
FN:352,_RNCNCNvXsq_NtCs4ZEr9HMJnjR_13p2p_ai_agents5agentNtB9_12DefaultAgentNtB9_5Agent18connect_to_network0s_0Bb_
FN:367,_RNCNCNvXsq_NtCs4ZEr9HMJnjR_13p2p_ai_agents5agentNtB9_12DefaultAgentNtB9_5Agent23disconnect_from_network00Bb_
FN:288,_RNCNvXsq_NtCs4ZEr9HMJnjR_13p2p_ai_agents5agentNtB7_12DefaultAgentNtB7_5Agent11submit_task0B9_
FN:293,_RNCNvXsq_NtCs4ZEr9HMJnjR_13p2p_ai_agents5agentNtB7_12DefaultAgentNtB7_5Agent11task_status0B9_
FN:414,_RNCNvXsq_NtCs4ZEr9HMJnjR_13p2p_ai_agents5agentNtB7_12DefaultAgentNtB7_5Agent14broadcast_task0B9_
FN:465,_RNCNvXsq_NtCs4ZEr9HMJnjR_13p2p_ai_agents5agentNtB7_12DefaultAgentNtB7_5Agent14discover_peers0B9_
FN:298,_RNCNvXsq_NtCs4ZEr9HMJnjR_13p2p_ai_agents5agentNtB7_12DefaultAgentNtB7_5Agent14resource_usage0B9_
FN:305,_RNCNvXsq_NtCs4ZEr9HMJnjR_13p2p_ai_agents5agentNtB7_12DefaultAgentNtB7_5Agent18connect_to_network0B9_
FN:363,_RNCNvXsq_NtCs4ZEr9HMJnjR_13p2p_ai_agents5agentNtB7_12DefaultAgentNtB7_5Agent23disconnect_from_network0B9_
FN:271,_RNCNvXsq_NtCs4ZEr9HMJnjR_13p2p_ai_agents5agentNtB7_12DefaultAgentNtB7_5Agent4stop0B9_
FN:266,_RNCNvXsq_NtCs4ZEr9HMJnjR_13p2p_ai_agents5agentNtB7_12DefaultAgentNtB7_5Agent5start0B9_
FN:291,_RNvXsq_NtCs4ZEr9HMJnjR_13p2p_ai_agents5agentNtB5_12DefaultAgentNtB5_5Agent11submit_task
FN:296,_RNvXsq_NtCs4ZEr9HMJnjR_13p2p_ai_agents5agentNtB5_12DefaultAgentNtB5_5Agent11task_status
FN:463,_RNvXsq_NtCs4ZEr9HMJnjR_13p2p_ai_agents5agentNtB5_12DefaultAgentNtB5_5Agent14broadcast_task
FN:511,_RNvXsq_NtCs4ZEr9HMJnjR_13p2p_ai_agents5agentNtB5_12DefaultAgentNtB5_5Agent14discover_peers
FN:303,_RNvXsq_NtCs4ZEr9HMJnjR_13p2p_ai_agents5agentNtB5_12DefaultAgentNtB5_5Agent14resource_usage
FN:361,_RNvXsq_NtCs4ZEr9HMJnjR_13p2p_ai_agents5agentNtB5_12DefaultAgentNtB5_5Agent18connect_to_network
FN:380,_RNvXsq_NtCs4ZEr9HMJnjR_13p2p_ai_agents5agentNtB5_12DefaultAgentNtB5_5Agent23disconnect_from_network
FN:274,_RNvXsq_NtCs4ZEr9HMJnjR_13p2p_ai_agents5agentNtB5_12DefaultAgentNtB5_5Agent4stop
FN:269,_RNvXsq_NtCs4ZEr9HMJnjR_13p2p_ai_agents5agentNtB5_12DefaultAgentNtB5_5Agent5start
FN:262,_RNvXsq_NtCs4ZEr9HMJnjR_13p2p_ai_agents5agentNtB5_12DefaultAgentNtB5_5Agent6config
FN:520,_RNvNtNtCs4ZEr9HMJnjR_13p2p_ai_agents5agent5testss_17test_agent_id_new
FN:719,_RNvNtNtCs4ZEr9HMJnjR_13p2p_ai_agents5agent5testss_19test_agent_creation
FN:543,_RNvNtNtCs4ZEr9HMJnjR_13p2p_ai_agents5agent5testss_21test_agent_id_default
FN:553,_RNvNtNtCs4ZEr9HMJnjR_13p2p_ai_agents5agent5testss_21test_agent_id_display
FN:534,_RNvNtNtCs4ZEr9HMJnjR_13p2p_ai_agents5agent5testss_25test_agent_id_from_string
FN:585,_RNvNtNtCs4ZEr9HMJnjR_13p2p_ai_agents5agent5testss_26test_agent_config_creation
FN:561,_RNvNtNtCs4ZEr9HMJnjR_13p2p_ai_agents5agent5testss_27test_agent_id_serialization
FN:737,_RNvNtNtCs4ZEr9HMJnjR_13p2p_ai_agents5agent5testss_30test_agent_network_integration
FN:606,_RNvNtNtCs4ZEr9HMJnjR_13p2p_ai_agents5agent5testss_31test_agent_config_serialization
FN:633,_RNvNtNtCs4ZEr9HMJnjR_13p2p_ai_agents5agent5testss_34test_resource_limits_serialization
FN:574,_RNvNtNtCs4ZEr9HMJnjR_13p2p_ai_agents5agent5testss_37test_agent_id_serialization_roundtrip
FN:653,_RNvNtNtCs4ZEr9HMJnjR_13p2p_ai_agents5agent5testss_37test_resource_limits_validation_valid
FN:679,_RNvNtNtCs4ZEr9HMJnjR_13p2p_ai_agents5agent5testss_48test_resource_limits_validation_invalid_cpu_zero
FN:692,_RNvNtNtCs4ZEr9HMJnjR_13p2p_ai_agents5agent5testss_51test_resource_limits_validation_invalid_memory_zero
FN:666,_RNvNtNtCs4ZEr9HMJnjR_13p2p_ai_agents5agent5testss_52test_resource_limits_validation_invalid_cpu_too_high
FN:705,_RNvNtNtCs4ZEr9HMJnjR_13p2p_ai_agents5agent5testss_56test_resource_limits_validation_invalid_connections_zero
FN:719,_RNCNvNtNtCs4ZEr9HMJnjR_13p2p_ai_agents5agent5testss_19test_agent_creation0B7_
FN:737,_RNCNvNtNtCs4ZEr9HMJnjR_13p2p_ai_agents5agent5testss_30test_agent_network_integration0B7_
FN:243,_RNCNvMs2_NtCs4ZEr9HMJnjR_13p2p_ai_agents5agentNtB7_12DefaultAgent3new0B9_
FN:382,_RNCNvXsq_NtCs4ZEr9HMJnjR_13p2p_ai_agents5agentNtB7_12DefaultAgentNtB7_5Agent14network_status0B9_
FN:276,_RNCNvXsq_NtCs4ZEr9HMJnjR_13p2p_ai_agents5agentNtB7_12DefaultAgentNtB7_5Agent6status0B9_
FNDA:0,_RNCNvMs2_NtCsazECCRb7Zym_13p2p_ai_agents5agentNtB7_12DefaultAgent3new0B9_
FNDA:0,_RNCNCNvXsq_NtCsazECCRb7Zym_13p2p_ai_agents5agentNtB9_12DefaultAgentNtB9_5Agent14broadcast_task00Bb_
FNDA:0,_RNCNCNvXsq_NtCsazECCRb7Zym_13p2p_ai_agents5agentNtB9_12DefaultAgentNtB9_5Agent14broadcast_task0s0_0Bb_
FNDA:0,_RNCNCNvXsq_NtCsazECCRb7Zym_13p2p_ai_agents5agentNtB9_12DefaultAgentNtB9_5Agent14broadcast_task0s_0Bb_
FNDA:0,_RNCNCNvXsq_NtCsazECCRb7Zym_13p2p_ai_agents5agentNtB9_12DefaultAgentNtB9_5Agent14discover_peers00Bb_
FNDA:0,_RNCNCNvXsq_NtCsazECCRb7Zym_13p2p_ai_agents5agentNtB9_12DefaultAgentNtB9_5Agent14discover_peers0s0_0Bb_
FNDA:0,_RNCNCNvXsq_NtCsazECCRb7Zym_13p2p_ai_agents5agentNtB9_12DefaultAgentNtB9_5Agent14discover_peers0s_0Bb_
FNDA:0,_RNCNCNvXsq_NtCsazECCRb7Zym_13p2p_ai_agents5agentNtB9_12DefaultAgentNtB9_5Agent18connect_to_network00Bb_
FNDA:0,_RNCNCNvXsq_NtCsazECCRb7Zym_13p2p_ai_agents5agentNtB9_12DefaultAgentNtB9_5Agent18connect_to_network0s_0Bb_
FNDA:0,_RNCNCNvXsq_NtCsazECCRb7Zym_13p2p_ai_agents5agentNtB9_12DefaultAgentNtB9_5Agent23disconnect_from_network00Bb_
FNDA:10,_RNCNvXsq_NtCsazECCRb7Zym_13p2p_ai_agents5agentNtB7_12DefaultAgentNtB7_5Agent11submit_task0B9_
FNDA:10,_RNCNvXsq_NtCsazECCRb7Zym_13p2p_ai_agents5agentNtB7_12DefaultAgentNtB7_5Agent11task_status0B9_
FNDA:0,_RNCNvXsq_NtCsazECCRb7Zym_13p2p_ai_agents5agentNtB7_12DefaultAgentNtB7_5Agent14broadcast_task0B9_
FNDA:0,_RNCNvXsq_NtCsazECCRb7Zym_13p2p_ai_agents5agentNtB7_12DefaultAgentNtB7_5Agent14discover_peers0B9_
FNDA:3,_RNCNvXsq_NtCsazECCRb7Zym_13p2p_ai_agents5agentNtB7_12DefaultAgentNtB7_5Agent14network_status0B9_
FNDA:0,_RNCNvXsq_NtCsazECCRb7Zym_13p2p_ai_agents5agentNtB7_12DefaultAgentNtB7_5Agent14resource_usage0B9_
FNDA:0,_RNCNvXsq_NtCsazECCRb7Zym_13p2p_ai_agents5agentNtB7_12DefaultAgentNtB7_5Agent18connect_to_network0B9_
FNDA:0,_RNCNvXsq_NtCsazECCRb7Zym_13p2p_ai_agents5agentNtB7_12DefaultAgentNtB7_5Agent23disconnect_from_network0B9_
FNDA:7,_RNCNvXsq_NtCsazECCRb7Zym_13p2p_ai_agents5agentNtB7_12DefaultAgentNtB7_5Agent4stop0B9_
FNDA:7,_RNCNvXsq_NtCsazECCRb7Zym_13p2p_ai_agents5agentNtB7_12DefaultAgentNtB7_5Agent5start0B9_
FNDA:3,_RNCNvXsq_NtCsazECCRb7Zym_13p2p_ai_agents5agentNtB7_12DefaultAgentNtB7_5Agent6status0B9_
FNDA:7,_RNvMNtCsazECCRb7Zym_13p2p_ai_agents5agentNtB2_7AgentId11from_string
FNDA:1,_RNvMNtCsazECCRb7Zym_13p2p_ai_agents5agentNtB2_7AgentId3new
FNDA:1,_RNvMNtCsazECCRb7Zym_13p2p_ai_agents5agentNtB2_7AgentId6as_str
FNDA:0,_RNvMs1_NtCsazECCRb7Zym_13p2p_ai_agents5agentNtB5_14ResourceLimits8validate
FNDA:7,_RNvMs2_NtCsazECCRb7Zym_13p2p_ai_agents5agentNtB5_12DefaultAgent3new
FNDA:0,_RNvXs0_NtCsazECCRb7Zym_13p2p_ai_agents5agentNtB5_7AgentIdNtNtCsaTRkahAGrLL_4core3fmt7Display3fmt
FNDA:0,_RNvXs_NtCsazECCRb7Zym_13p2p_ai_agents5agentNtB4_7AgentIdNtNtCsaTRkahAGrLL_4core7default7Default7default
FNDA:10,_RNvXsq_NtCsazECCRb7Zym_13p2p_ai_agents5agentNtB5_12DefaultAgentNtB5_5Agent11submit_task
FNDA:10,_RNvXsq_NtCsazECCRb7Zym_13p2p_ai_agents5agentNtB5_12DefaultAgentNtB5_5Agent11task_status
FNDA:0,_RNvXsq_NtCsazECCRb7Zym_13p2p_ai_agents5agentNtB5_12DefaultAgentNtB5_5Agent14broadcast_task
FNDA:0,_RNvXsq_NtCsazECCRb7Zym_13p2p_ai_agents5agentNtB5_12DefaultAgentNtB5_5Agent14discover_peers
FNDA:3,_RNvXsq_NtCsazECCRb7Zym_13p2p_ai_agents5agentNtB5_12DefaultAgentNtB5_5Agent14network_status
FNDA:0,_RNvXsq_NtCsazECCRb7Zym_13p2p_ai_agents5agentNtB5_12DefaultAgentNtB5_5Agent14resource_usage
FNDA:0,_RNvXsq_NtCsazECCRb7Zym_13p2p_ai_agents5agentNtB5_12DefaultAgentNtB5_5Agent18connect_to_network
FNDA:0,_RNvXsq_NtCsazECCRb7Zym_13p2p_ai_agents5agentNtB5_12DefaultAgentNtB5_5Agent23disconnect_from_network
FNDA:1,_RNvXsq_NtCsazECCRb7Zym_13p2p_ai_agents5agentNtB5_12DefaultAgentNtB5_5Agent2id
FNDA:7,_RNvXsq_NtCsazECCRb7Zym_13p2p_ai_agents5agentNtB5_12DefaultAgentNtB5_5Agent4stop
FNDA:7,_RNvXsq_NtCsazECCRb7Zym_13p2p_ai_agents5agentNtB5_12DefaultAgentNtB5_5Agent5start
FNDA:0,_RNvXsq_NtCsazECCRb7Zym_13p2p_ai_agents5agentNtB5_12DefaultAgentNtB5_5Agent6config
FNDA:3,_RNvXsq_NtCsazECCRb7Zym_13p2p_ai_agents5agentNtB5_12DefaultAgentNtB5_5Agent6status
FNDA:7,_RNCNvMs2_NtCsazECCRb7Zym_13p2p_ai_agents5agentNtB7_12DefaultAgent3new0Cs1lIwxEfFG2Y_20examples_integration
FNDA:5,_RNvMNtCs4ZEr9HMJnjR_13p2p_ai_agents5agentNtB2_7AgentId11from_string
FNDA:6,_RNvMNtCs4ZEr9HMJnjR_13p2p_ai_agents5agentNtB2_7AgentId3new
FNDA:6,_RNvMNtCs4ZEr9HMJnjR_13p2p_ai_agents5agentNtB2_7AgentId6as_str
FNDA:5,_RNvMs1_NtCs4ZEr9HMJnjR_13p2p_ai_agents5agentNtB5_14ResourceLimits8validate
FNDA:2,_RNvMs2_NtCs4ZEr9HMJnjR_13p2p_ai_agents5agentNtB5_12DefaultAgent3new
FNDA:2,_RNvXs0_NtCs4ZEr9HMJnjR_13p2p_ai_agents5agentNtB5_7AgentIdNtNtCsaTRkahAGrLL_4core3fmt7Display3fmt
FNDA:2,_RNvXs_NtCs4ZEr9HMJnjR_13p2p_ai_agents5agentNtB4_7AgentIdNtNtCsaTRkahAGrLL_4core7default7Default7default
FNDA:2,_RNvXsq_NtCs4ZEr9HMJnjR_13p2p_ai_agents5agentNtB5_12DefaultAgentNtB5_5Agent14network_status
FNDA:1,_RNvXsq_NtCs4ZEr9HMJnjR_13p2p_ai_agents5agentNtB5_12DefaultAgentNtB5_5Agent2id
FNDA:1,_RNvXsq_NtCs4ZEr9HMJnjR_13p2p_ai_agents5agentNtB5_12DefaultAgentNtB5_5Agent6status
FNDA:0,_RNCNCNvXsq_NtCs4ZEr9HMJnjR_13p2p_ai_agents5agentNtB9_12DefaultAgentNtB9_5Agent14broadcast_task00Bb_
FNDA:0,_RNCNCNvXsq_NtCs4ZEr9HMJnjR_13p2p_ai_agents5agentNtB9_12DefaultAgentNtB9_5Agent14broadcast_task0s0_0Bb_
FNDA:0,_RNCNCNvXsq_NtCs4ZEr9HMJnjR_13p2p_ai_agents5agentNtB9_12DefaultAgentNtB9_5Agent14broadcast_task0s_0Bb_
FNDA:0,_RNCNCNvXsq_NtCs4ZEr9HMJnjR_13p2p_ai_agents5agentNtB9_12DefaultAgentNtB9_5Agent14discover_peers00Bb_
FNDA:0,_RNCNCNvXsq_NtCs4ZEr9HMJnjR_13p2p_ai_agents5agentNtB9_12DefaultAgentNtB9_5Agent14discover_peers0s0_0Bb_
FNDA:0,_RNCNCNvXsq_NtCs4ZEr9HMJnjR_13p2p_ai_agents5agentNtB9_12DefaultAgentNtB9_5Agent14discover_peers0s_0Bb_
FNDA:0,_RNCNCNvXsq_NtCs4ZEr9HMJnjR_13p2p_ai_agents5agentNtB9_12DefaultAgentNtB9_5Agent18connect_to_network00Bb_
FNDA:0,_RNCNCNvXsq_NtCs4ZEr9HMJnjR_13p2p_ai_agents5agentNtB9_12DefaultAgentNtB9_5Agent18connect_to_network0s_0Bb_
FNDA:0,_RNCNCNvXsq_NtCs4ZEr9HMJnjR_13p2p_ai_agents5agentNtB9_12DefaultAgentNtB9_5Agent23disconnect_from_network00Bb_
FNDA:0,_RNCNvXsq_NtCs4ZEr9HMJnjR_13p2p_ai_agents5agentNtB7_12DefaultAgentNtB7_5Agent11submit_task0B9_
FNDA:0,_RNCNvXsq_NtCs4ZEr9HMJnjR_13p2p_ai_agents5agentNtB7_12DefaultAgentNtB7_5Agent11task_status0B9_
FNDA:0,_RNCNvXsq_NtCs4ZEr9HMJnjR_13p2p_ai_agents5agentNtB7_12DefaultAgentNtB7_5Agent14broadcast_task0B9_
FNDA:0,_RNCNvXsq_NtCs4ZEr9HMJnjR_13p2p_ai_agents5agentNtB7_12DefaultAgentNtB7_5Agent14discover_peers0B9_
FNDA:0,_RNCNvXsq_NtCs4ZEr9HMJnjR_13p2p_ai_agents5agentNtB7_12DefaultAgentNtB7_5Agent14resource_usage0B9_
FNDA:0,_RNCNvXsq_NtCs4ZEr9HMJnjR_13p2p_ai_agents5agentNtB7_12DefaultAgentNtB7_5Agent18connect_to_network0B9_
FNDA:0,_RNCNvXsq_NtCs4ZEr9HMJnjR_13p2p_ai_agents5agentNtB7_12DefaultAgentNtB7_5Agent23disconnect_from_network0B9_
FNDA:0,_RNCNvXsq_NtCs4ZEr9HMJnjR_13p2p_ai_agents5agentNtB7_12DefaultAgentNtB7_5Agent4stop0B9_
FNDA:0,_RNCNvXsq_NtCs4ZEr9HMJnjR_13p2p_ai_agents5agentNtB7_12DefaultAgentNtB7_5Agent5start0B9_
FNDA:0,_RNvXsq_NtCs4ZEr9HMJnjR_13p2p_ai_agents5agentNtB5_12DefaultAgentNtB5_5Agent11submit_task
FNDA:0,_RNvXsq_NtCs4ZEr9HMJnjR_13p2p_ai_agents5agentNtB5_12DefaultAgentNtB5_5Agent11task_status
FNDA:0,_RNvXsq_NtCs4ZEr9HMJnjR_13p2p_ai_agents5agentNtB5_12DefaultAgentNtB5_5Agent14broadcast_task
FNDA:0,_RNvXsq_NtCs4ZEr9HMJnjR_13p2p_ai_agents5agentNtB5_12DefaultAgentNtB5_5Agent14discover_peers
FNDA:0,_RNvXsq_NtCs4ZEr9HMJnjR_13p2p_ai_agents5agentNtB5_12DefaultAgentNtB5_5Agent14resource_usage
FNDA:0,_RNvXsq_NtCs4ZEr9HMJnjR_13p2p_ai_agents5agentNtB5_12DefaultAgentNtB5_5Agent18connect_to_network
FNDA:0,_RNvXsq_NtCs4ZEr9HMJnjR_13p2p_ai_agents5agentNtB5_12DefaultAgentNtB5_5Agent23disconnect_from_network
FNDA:0,_RNvXsq_NtCs4ZEr9HMJnjR_13p2p_ai_agents5agentNtB5_12DefaultAgentNtB5_5Agent4stop
FNDA:0,_RNvXsq_NtCs4ZEr9HMJnjR_13p2p_ai_agents5agentNtB5_12DefaultAgentNtB5_5Agent5start
FNDA:0,_RNvXsq_NtCs4ZEr9HMJnjR_13p2p_ai_agents5agentNtB5_12DefaultAgentNtB5_5Agent6config
FNDA:1,_RNvNtNtCs4ZEr9HMJnjR_13p2p_ai_agents5agent5testss_17test_agent_id_new
FNDA:1,_RNvNtNtCs4ZEr9HMJnjR_13p2p_ai_agents5agent5testss_19test_agent_creation
FNDA:1,_RNvNtNtCs4ZEr9HMJnjR_13p2p_ai_agents5agent5testss_21test_agent_id_default
FNDA:1,_RNvNtNtCs4ZEr9HMJnjR_13p2p_ai_agents5agent5testss_21test_agent_id_display
FNDA:1,_RNvNtNtCs4ZEr9HMJnjR_13p2p_ai_agents5agent5testss_25test_agent_id_from_string
FNDA:1,_RNvNtNtCs4ZEr9HMJnjR_13p2p_ai_agents5agent5testss_26test_agent_config_creation
FNDA:1,_RNvNtNtCs4ZEr9HMJnjR_13p2p_ai_agents5agent5testss_27test_agent_id_serialization
FNDA:1,_RNvNtNtCs4ZEr9HMJnjR_13p2p_ai_agents5agent5testss_30test_agent_network_integration
FNDA:1,_RNvNtNtCs4ZEr9HMJnjR_13p2p_ai_agents5agent5testss_31test_agent_config_serialization
FNDA:1,_RNvNtNtCs4ZEr9HMJnjR_13p2p_ai_agents5agent5testss_34test_resource_limits_serialization
FNDA:1,_RNvNtNtCs4ZEr9HMJnjR_13p2p_ai_agents5agent5testss_37test_agent_id_serialization_roundtrip
FNDA:1,_RNvNtNtCs4ZEr9HMJnjR_13p2p_ai_agents5agent5testss_37test_resource_limits_validation_valid
FNDA:1,_RNvNtNtCs4ZEr9HMJnjR_13p2p_ai_agents5agent5testss_48test_resource_limits_validation_invalid_cpu_zero
FNDA:1,_RNvNtNtCs4ZEr9HMJnjR_13p2p_ai_agents5agent5testss_51test_resource_limits_validation_invalid_memory_zero
FNDA:1,_RNvNtNtCs4ZEr9HMJnjR_13p2p_ai_agents5agent5testss_52test_resource_limits_validation_invalid_cpu_too_high
FNDA:1,_RNvNtNtCs4ZEr9HMJnjR_13p2p_ai_agents5agent5testss_56test_resource_limits_validation_invalid_connections_zero
FNDA:1,_RNCNvNtNtCs4ZEr9HMJnjR_13p2p_ai_agents5agent5testss_19test_agent_creation0B7_
FNDA:1,_RNCNvNtNtCs4ZEr9HMJnjR_13p2p_ai_agents5agent5testss_30test_agent_network_integration0B7_
FNDA:2,_RNCNvMs2_NtCs4ZEr9HMJnjR_13p2p_ai_agents5agentNtB7_12DefaultAgent3new0B9_
FNDA:2,_RNCNvXsq_NtCs4ZEr9HMJnjR_13p2p_ai_agents5agentNtB7_12DefaultAgentNtB7_5Agent14network_status0B9_
FNDA:1,_RNCNvXsq_NtCs4ZEr9HMJnjR_13p2p_ai_agents5agentNtB7_12DefaultAgentNtB7_5Agent6status0B9_
FNF:59
FNH:39
DA:33,7
DA:34,7
DA:35,7
DA:38,12
DA:39,12
DA:40,12
DA:43,7
DA:44,7
DA:45,7
DA:49,2
DA:50,2
DA:51,2
DA:55,2
DA:56,2
DA:57,2
DA:86,5
DA:87,5
DA:88,2
DA:89,2
DA:90,2
DA:91,2
DA:92,3
DA:93,3
DA:94,1
DA:95,1
DA:96,1
DA:97,2
DA:98,2
DA:99,0
DA:100,0
DA:101,0
DA:102,2
DA:103,2
DA:104,0
DA:105,0
DA:106,0
DA:107,2
DA:108,2
DA:109,1
DA:110,1
DA:111,1
DA:112,1
DA:113,1
DA:114,5
DA:243,9
DA:244,9
DA:246,9
DA:247,9
DA:248,9
DA:249,9
DA:250,9
DA:251,9
DA:252,9
DA:253,9
DA:258,2
DA:259,2
DA:260,2
DA:262,0
DA:263,0
DA:264,0
DA:266,7
DA:268,7
DA:269,14
DA:271,7
DA:273,7
DA:274,14
DA:276,4
DA:277,4
DA:282,4
DA:284,4
DA:286,8
DA:288,10
DA:290,10
DA:291,20
DA:293,10
DA:295,10
DA:296,20
DA:298,0
DA:299,0
DA:300,0
DA:301,0
DA:302,0
DA:303,0
DA:305,0
DA:306,0
DA:307,0
DA:308,0
DA:309,0
DA:310,0
DA:311,0
DA:312,0
DA:313,0
DA:314,0
DA:315,0
DA:316,0
DA:318,0
DA:319,0
DA:320,0
DA:321,0
DA:322,0
DA:323,0
DA:324,0
DA:325,0
DA:326,0
DA:327,0
DA:328,0
DA:329,0
DA:330,0
DA:331,0
DA:332,0
DA:333,0
DA:334,0
DA:335,0
DA:336,0
DA:337,0
DA:338,0
DA:339,0
DA:340,0
DA:343,0
DA:344,0
DA:345,0
DA:348,0
DA:349,0
DA:350,0
DA:351,0
DA:352,0
DA:354,0
DA:355,0
DA:356,0
DA:359,0
DA:360,0
DA:361,0
DA:363,0
DA:364,0
DA:365,0
DA:366,0
DA:367,0
DA:368,0
DA:369,0
DA:370,0
DA:373,0
DA:374,0
DA:375,0
DA:376,0
DA:377,0
DA:378,0
DA:379,0
DA:380,0
DA:382,5
DA:383,5
DA:384,5
DA:385,0
DA:386,0
DA:387,0
DA:389,0
DA:392,0
DA:393,0
DA:394,0
DA:395,0
DA:396,0
DA:399,0
DA:401,0
DA:402,0
DA:403,0
DA:405,0
DA:407,0
DA:410,5
DA:412,10
DA:414,0
DA:415,0
DA:416,0
DA:417,0
DA:419,0
DA:420,0
DA:421,0
DA:422,0
DA:423,0
DA:426,0
DA:427,0
DA:428,0
DA:429,0
DA:430,0
DA:431,0
DA:434,0
DA:435,0
DA:436,0
DA:437,0
DA:438,0
DA:439,0
DA:440,0
DA:441,0
DA:442,0
DA:444,0
DA:445,0
DA:446,0
DA:447,0
DA:448,0
DA:450,0
DA:452,0
DA:453,0
DA:454,0
DA:455,0
DA:458,0
DA:461,0
DA:463,0
DA:465,0
DA:466,0
DA:467,0
DA:468,0
DA:469,0
DA:470,0
DA:471,0
DA:472,0
DA:473,0
DA:474,0
DA:475,0
DA:476,0
DA:477,0
DA:479,0
DA:480,0
DA:481,0
DA:482,0
DA:483,0
DA:484,0
DA:486,0
DA:487,0
DA:488,0
DA:489,0
DA:490,0
DA:491,0
DA:492,0
DA:493,0
DA:494,0
DA:495,0
DA:497,0
DA:500,0
DA:501,0
DA:502,0
DA:503,0
DA:506,0
DA:509,0
DA:511,0
DA:520,1
DA:521,1
DA:522,1
DA:523,1
DA:524,1
DA:525,1
DA:526,1
DA:529,1
DA:530,1
DA:531,1
DA:534,1
DA:535,1
DA:536,1
DA:537,1
DA:538,1
DA:539,1
DA:540,1
DA:543,1
DA:544,1
DA:545,1
DA:546,1
DA:547,1
DA:548,1
DA:549,1
DA:550,1
DA:553,1
DA:554,1
DA:555,1
DA:556,1
DA:557,1
DA:558,1
DA:561,1
DA:562,1
DA:563,1
DA:564,1
DA:565,1
DA:566,1
DA:569,1
DA:570,1
DA:571,1
DA:574,1
DA:575,1
DA:576,1
DA:577,1
DA:578,1
DA:579,1
DA:580,1
DA:581,1
DA:585,1
DA:586,1
DA:587,1
DA:588,1
DA:589,1
DA:590,1
DA:591,1
DA:592,1
DA:593,1
DA:594,1
DA:595,1
DA:596,1
DA:597,1
DA:598,1
DA:599,1
DA:600,1
DA:601,1
DA:602,1
DA:603,1
DA:606,1
DA:607,1
DA:608,1
DA:609,1
DA:610,1
DA:611,1
DA:612,1
DA:613,1
DA:614,1
DA:615,1
DA:616,1
DA:617,1
DA:618,1
DA:619,1
DA:620,1
DA:621,1
DA:624,1
DA:625,1
DA:626,1
DA:627,1
DA:628,1
DA:629,1
DA:630,1
DA:633,1
DA:634,1
DA:635,1
DA:636,1
DA:637,1
DA:638,1
DA:639,1
DA:640,1
DA:641,1
DA:642,1
DA:643,1
DA:644,1
DA:645,1
DA:646,1
DA:647,1
DA:648,1
DA:649,1
DA:650,1
DA:653,1
DA:654,1
DA:655,1
DA:656,1
DA:657,1
DA:658,1
DA:659,1
DA:660,1
DA:661,1
DA:662,1
DA:663,1
DA:666,1
DA:667,1
DA:668,1
DA:669,1
DA:670,1
DA:671,1
DA:672,1
DA:673,1
DA:674,1
DA:675,1
DA:676,1
DA:679,1
DA:680,1
DA:681,1
DA:682,1
DA:683,1
DA:684,1
DA:685,1
DA:686,1
DA:687,1
DA:688,1
DA:689,1
DA:692,1
DA:693,1
DA:694,1
DA:695,1
DA:696,1
DA:697,1
DA:698,1
DA:699,1
DA:700,1
DA:701,1
DA:702,1
DA:705,1
DA:706,1
DA:707,1
DA:708,1
DA:709,1
DA:710,1
DA:711,1
DA:712,1
DA:713,1
DA:714,1
DA:715,1
DA:719,1
DA:720,1
DA:721,1
DA:722,1
DA:723,1
DA:724,1
DA:725,1
DA:726,1
DA:727,1
DA:728,1
DA:729,1
DA:730,1
DA:731,1
DA:732,1
DA:733,1
DA:734,1
DA:737,1
DA:738,1
DA:739,1
DA:740,1
DA:741,1
DA:742,1
DA:743,1
DA:744,1
DA:745,1
DA:746,1
DA:747,1
DA:748,1
DA:749,1
DA:750,1
DA:751,1
DA:752,1
DA:753,1
DA:754,1
DA:755,1
DA:756,1
DA:757,1
DA:758,1
DA:759,1
DA:760,1
DA:761,1
BRF:0
BRH:0
LF:506
LH:319
end_of_record
SF:/Users/renegeers/Source/p2p-ai-agents/src/agent/resource.rs
FN:125,_RNCNvMNtNtCsazECCRb7Zym_13p2p_ai_agents5agent8resourceNtB4_15ResourceMonitor12check_limits0B8_
FN:105,_RNCNvMNtNtCsazECCRb7Zym_13p2p_ai_agents5agent8resourceNtB4_15ResourceMonitor12update_usage0B8_
FN:98,_RNCNvMNtNtCsazECCRb7Zym_13p2p_ai_agents5agent8resourceNtB4_15ResourceMonitor15stop_monitoring0B8_
FN:88,_RNCNvMNtNtCsazECCRb7Zym_13p2p_ai_agents5agent8resourceNtB4_15ResourceMonitor16start_monitoring0B8_
FN:114,_RNCNCNvMNtNtCsazECCRb7Zym_13p2p_ai_agents5agent8resourceNtB6_15ResourceMonitor13current_usage00Ba_
FN:112,_RNCNvMNtNtCsazECCRb7Zym_13p2p_ai_agents5agent8resourceNtB4_15ResourceMonitor13current_usage0B8_
FN:125,_RNvMNtNtCsazECCRb7Zym_13p2p_ai_agents5agent8resourceNtB2_15ResourceMonitor12check_limits
FN:105,_RNvMNtNtCsazECCRb7Zym_13p2p_ai_agents5agent8resourceNtB2_15ResourceMonitor12update_usage
FN:112,_RNvMNtNtCsazECCRb7Zym_13p2p_ai_agents5agent8resourceNtB2_15ResourceMonitor13current_usage
FN:98,_RNvMNtNtCsazECCRb7Zym_13p2p_ai_agents5agent8resourceNtB2_15ResourceMonitor15stop_monitoring
FN:88,_RNvMNtNtCsazECCRb7Zym_13p2p_ai_agents5agent8resourceNtB2_15ResourceMonitor16start_monitoring
FN:79,_RNvMNtNtCsazECCRb7Zym_13p2p_ai_agents5agent8resourceNtB2_15ResourceMonitor3new
FN:167,_RNCNvNtNtNtCs4ZEr9HMJnjR_13p2p_ai_agents5agent8resource5testss_20test_resource_limits0B9_
FN:146,_RNCNvNtNtNtCs4ZEr9HMJnjR_13p2p_ai_agents5agent8resource5testss_21test_resource_monitor0B9_
FN:105,_RNCNvMNtNtCs4ZEr9HMJnjR_13p2p_ai_agents5agent8resourceNtB4_15ResourceMonitor12update_usage0B8_
FN:98,_RNCNvMNtNtCs4ZEr9HMJnjR_13p2p_ai_agents5agent8resourceNtB4_15ResourceMonitor15stop_monitoring0B8_
FN:105,_RNvMNtNtCs4ZEr9HMJnjR_13p2p_ai_agents5agent8resourceNtB2_15ResourceMonitor12update_usage
FN:98,_RNvMNtNtCs4ZEr9HMJnjR_13p2p_ai_agents5agent8resourceNtB2_15ResourceMonitor15stop_monitoring
FN:125,_RNvMNtNtCs4ZEr9HMJnjR_13p2p_ai_agents5agent8resourceNtB2_15ResourceMonitor12check_limits
FN:112,_RNvMNtNtCs4ZEr9HMJnjR_13p2p_ai_agents5agent8resourceNtB2_15ResourceMonitor13current_usage
FN:88,_RNvMNtNtCs4ZEr9HMJnjR_13p2p_ai_agents5agent8resourceNtB2_15ResourceMonitor16start_monitoring
FN:79,_RNvMNtNtCs4ZEr9HMJnjR_13p2p_ai_agents5agent8resourceNtB2_15ResourceMonitor3new
FN:167,_RNvNtNtNtCs4ZEr9HMJnjR_13p2p_ai_agents5agent8resource5testss_20test_resource_limits
FN:146,_RNvNtNtNtCs4ZEr9HMJnjR_13p2p_ai_agents5agent8resource5testss_21test_resource_monitor
FN:114,_RNCNCNvMNtNtCs4ZEr9HMJnjR_13p2p_ai_agents5agent8resourceNtB6_15ResourceMonitor13current_usage00Ba_
FN:125,_RNCNvMNtNtCs4ZEr9HMJnjR_13p2p_ai_agents5agent8resourceNtB4_15ResourceMonitor12check_limits0B8_
FN:112,_RNCNvMNtNtCs4ZEr9HMJnjR_13p2p_ai_agents5agent8resourceNtB4_15ResourceMonitor13current_usage0B8_
FN:88,_RNCNvMNtNtCs4ZEr9HMJnjR_13p2p_ai_agents5agent8resourceNtB4_15ResourceMonitor16start_monitoring0B8_
FNDA:0,_RNCNvMNtNtCsazECCRb7Zym_13p2p_ai_agents5agent8resourceNtB4_15ResourceMonitor12check_limits0B8_
FNDA:0,_RNCNvMNtNtCsazECCRb7Zym_13p2p_ai_agents5agent8resourceNtB4_15ResourceMonitor12update_usage0B8_
FNDA:0,_RNCNvMNtNtCsazECCRb7Zym_13p2p_ai_agents5agent8resourceNtB4_15ResourceMonitor15stop_monitoring0B8_
FNDA:0,_RNCNvMNtNtCsazECCRb7Zym_13p2p_ai_agents5agent8resourceNtB4_15ResourceMonitor16start_monitoring0B8_
FNDA:0,_RNCNCNvMNtNtCsazECCRb7Zym_13p2p_ai_agents5agent8resourceNtB6_15ResourceMonitor13current_usage00Ba_
FNDA:3,_RNCNvMNtNtCsazECCRb7Zym_13p2p_ai_agents5agent8resourceNtB4_15ResourceMonitor13current_usage0B8_
FNDA:0,_RNvMNtNtCsazECCRb7Zym_13p2p_ai_agents5agent8resourceNtB2_15ResourceMonitor12check_limits
FNDA:0,_RNvMNtNtCsazECCRb7Zym_13p2p_ai_agents5agent8resourceNtB2_15ResourceMonitor12update_usage
FNDA:3,_RNvMNtNtCsazECCRb7Zym_13p2p_ai_agents5agent8resourceNtB2_15ResourceMonitor13current_usage
FNDA:0,_RNvMNtNtCsazECCRb7Zym_13p2p_ai_agents5agent8resourceNtB2_15ResourceMonitor15stop_monitoring
FNDA:0,_RNvMNtNtCsazECCRb7Zym_13p2p_ai_agents5agent8resourceNtB2_15ResourceMonitor16start_monitoring
FNDA:7,_RNvMNtNtCsazECCRb7Zym_13p2p_ai_agents5agent8resourceNtB2_15ResourceMonitor3new
FNDA:1,_RNCNvNtNtNtCs4ZEr9HMJnjR_13p2p_ai_agents5agent8resource5testss_20test_resource_limits0B9_
FNDA:1,_RNCNvNtNtNtCs4ZEr9HMJnjR_13p2p_ai_agents5agent8resource5testss_21test_resource_monitor0B9_
FNDA:0,_RNCNvMNtNtCs4ZEr9HMJnjR_13p2p_ai_agents5agent8resourceNtB4_15ResourceMonitor12update_usage0B8_
FNDA:0,_RNCNvMNtNtCs4ZEr9HMJnjR_13p2p_ai_agents5agent8resourceNtB4_15ResourceMonitor15stop_monitoring0B8_
FNDA:0,_RNvMNtNtCs4ZEr9HMJnjR_13p2p_ai_agents5agent8resourceNtB2_15ResourceMonitor12update_usage
FNDA:0,_RNvMNtNtCs4ZEr9HMJnjR_13p2p_ai_agents5agent8resourceNtB2_15ResourceMonitor15stop_monitoring
FNDA:1,_RNvMNtNtCs4ZEr9HMJnjR_13p2p_ai_agents5agent8resourceNtB2_15ResourceMonitor12check_limits
FNDA:3,_RNvMNtNtCs4ZEr9HMJnjR_13p2p_ai_agents5agent8resourceNtB2_15ResourceMonitor13current_usage
FNDA:2,_RNvMNtNtCs4ZEr9HMJnjR_13p2p_ai_agents5agent8resourceNtB2_15ResourceMonitor16start_monitoring
FNDA:4,_RNvMNtNtCs4ZEr9HMJnjR_13p2p_ai_agents5agent8resourceNtB2_15ResourceMonitor3new
FNDA:1,_RNvNtNtNtCs4ZEr9HMJnjR_13p2p_ai_agents5agent8resource5testss_20test_resource_limits
FNDA:1,_RNvNtNtNtCs4ZEr9HMJnjR_13p2p_ai_agents5agent8resource5testss_21test_resource_monitor
FNDA:0,_RNCNCNvMNtNtCs4ZEr9HMJnjR_13p2p_ai_agents5agent8resourceNtB6_15ResourceMonitor13current_usage00Ba_
FNDA:1,_RNCNvMNtNtCs4ZEr9HMJnjR_13p2p_ai_agents5agent8resourceNtB4_15ResourceMonitor12check_limits0B8_
FNDA:3,_RNCNvMNtNtCs4ZEr9HMJnjR_13p2p_ai_agents5agent8resourceNtB4_15ResourceMonitor13current_usage0B8_
FNDA:2,_RNCNvMNtNtCs4ZEr9HMJnjR_13p2p_ai_agents5agent8resourceNtB4_15ResourceMonitor16start_monitoring0B8_
FNF:16
FNH:11
DA:79,11
DA:80,11
DA:81,11
DA:82,11
DA:83,11
DA:84,11
DA:85,11
DA:88,2
DA:89,2
DA:90,2
DA:91,0
DA:92,2
DA:93,2
DA:94,2
DA:95,2
DA:98,0
DA:99,0
DA:100,0
DA:101,0
DA:102,0
DA:105,0
DA:106,0
DA:107,0
DA:108,0
DA:109,0
DA:112,6
DA:113,6
DA:114,6
DA:115,6
DA:116,6
DA:117,6
DA:118,6
DA:119,6
DA:120,6
DA:121,6
DA:122,6
DA:125,1
DA:126,1
DA:127,1
DA:128,0
DA:129,1
DA:130,1
DA:131,1
DA:132,0
DA:133,0
DA:134,1
DA:146,1
DA:147,1
DA:148,1
DA:149,1
DA:150,1
DA:151,1
DA:152,1
DA:153,1
DA:154,1
DA:155,1
DA:156,1
DA:157,1
DA:158,1
DA:159,1
DA:160,1
DA:161,1
DA:162,1
DA:163,1
DA:164,1
DA:167,1
DA:168,1
DA:169,1
DA:170,1
DA:171,1
DA:172,1
DA:173,1
DA:174,1
DA:175,1
DA:176,1
DA:177,1
DA:178,1
DA:179,1
DA:180,1
DA:181,1
DA:182,1
DA:183,1
DA:184,1
DA:185,1
DA:186,1
DA:187,1
DA:188,1
DA:189,1
DA:190,1
BRF:0
BRH:0
LF:131
LH:113
end_of_record
SF:/Users/renegeers/Source/p2p-ai-agents/src/agent/task.rs
FN:201,_RNCNvMs1_NtNtCsazECCRb7Zym_13p2p_ai_agents5agent4taskINtB7_11TaskManagerpE11cancel_task0Bb_
FN:179,_RNCNvMs1_NtNtCsazECCRb7Zym_13p2p_ai_agents5agent4taskINtB7_11TaskManagerpE11submit_task0Bb_
FN:192,_RNCNvMs1_NtNtCsazECCRb7Zym_13p2p_ai_agents5agent4taskINtB7_11TaskManagerpE12execute_task0Bb_
FN:185,_RNCNvMs1_NtNtCsazECCRb7Zym_13p2p_ai_agents5agent4taskINtB7_11TaskManagerpE8get_task0Bb_
FN:201,_RNvMs1_NtNtCsazECCRb7Zym_13p2p_ai_agents5agent4taskINtB5_11TaskManagerpE11cancel_taskB9_
FN:179,_RNvMs1_NtNtCsazECCRb7Zym_13p2p_ai_agents5agent4taskINtB5_11TaskManagerpE11submit_taskB9_
FN:192,_RNvMs1_NtNtCsazECCRb7Zym_13p2p_ai_agents5agent4taskINtB5_11TaskManagerpE12execute_taskB9_
FN:173,_RNvMs1_NtNtCsazECCRb7Zym_13p2p_ai_agents5agent4taskINtB5_11TaskManagerpE3newB9_
FN:185,_RNvMs1_NtNtCsazECCRb7Zym_13p2p_ai_agents5agent4taskINtB5_11TaskManagerpE8get_taskB9_
FN:23,_RNvMNtNtCsazECCRb7Zym_13p2p_ai_agents5agent4taskNtB2_6TaskId11from_string
FN:18,_RNvMNtNtCsazECCRb7Zym_13p2p_ai_agents5agent4taskNtB2_6TaskId3new
FN:28,_RNvMNtNtCsazECCRb7Zym_13p2p_ai_agents5agent4taskNtB2_6TaskId6as_str
FN:251,_RNvMs2_NtNtCsazECCRb7Zym_13p2p_ai_agents5agent4taskNtB5_4Task10created_at
FN:272,_RNvMs2_NtNtCsazECCRb7Zym_13p2p_ai_agents5agent4taskNtB5_4Task10set_result
FN:261,_RNvMs2_NtNtCsazECCRb7Zym_13p2p_ai_agents5agent4taskNtB5_4Task10set_status
FN:256,_RNvMs2_NtNtCsazECCRb7Zym_13p2p_ai_agents5agent4taskNtB5_4Task12completed_at
FN:226,_RNvMs2_NtNtCsazECCRb7Zym_13p2p_ai_agents5agent4taskNtB5_4Task2id
FN:213,_RNvMs2_NtNtCsazECCRb7Zym_13p2p_ai_agents5agent4taskNtB5_4Task3new
FN:246,_RNvMs2_NtNtCsazECCRb7Zym_13p2p_ai_agents5agent4taskNtB5_4Task6result
FN:241,_RNvMs2_NtNtCsazECCRb7Zym_13p2p_ai_agents5agent4taskNtB5_4Task6status
FN:236,_RNvMs2_NtNtCsazECCRb7Zym_13p2p_ai_agents5agent4taskNtB5_4Task7payload
FN:231,_RNvMs2_NtNtCsazECCRb7Zym_13p2p_ai_agents5agent4taskNtB5_4Task8priority
FN:40,_RNvXs0_NtNtCsazECCRb7Zym_13p2p_ai_agents5agent4taskNtB5_6TaskIdNtNtCsaTRkahAGrLL_4core3fmt7Display3fmt
FN:34,_RNvXs_NtNtCsazECCRb7Zym_13p2p_ai_agents5agent4taskNtB4_6TaskIdNtNtCsaTRkahAGrLL_4core7default7Default7default
FN:201,_RNCNvMs1_NtNtCs4ZEr9HMJnjR_13p2p_ai_agents5agent4taskINtB7_11TaskManagerpE11cancel_task0Bb_
FN:179,_RNCNvMs1_NtNtCs4ZEr9HMJnjR_13p2p_ai_agents5agent4taskINtB7_11TaskManagerpE11submit_task0Bb_
FN:192,_RNCNvMs1_NtNtCs4ZEr9HMJnjR_13p2p_ai_agents5agent4taskINtB7_11TaskManagerpE12execute_task0Bb_
FN:185,_RNCNvMs1_NtNtCs4ZEr9HMJnjR_13p2p_ai_agents5agent4taskINtB7_11TaskManagerpE8get_task0Bb_
FN:201,_RNvMs1_NtNtCs4ZEr9HMJnjR_13p2p_ai_agents5agent4taskINtB5_11TaskManagerpE11cancel_taskB9_
FN:179,_RNvMs1_NtNtCs4ZEr9HMJnjR_13p2p_ai_agents5agent4taskINtB5_11TaskManagerpE11submit_taskB9_
FN:192,_RNvMs1_NtNtCs4ZEr9HMJnjR_13p2p_ai_agents5agent4taskINtB5_11TaskManagerpE12execute_taskB9_
FN:173,_RNvMs1_NtNtCs4ZEr9HMJnjR_13p2p_ai_agents5agent4taskINtB5_11TaskManagerpE3newB9_
FN:185,_RNvMs1_NtNtCs4ZEr9HMJnjR_13p2p_ai_agents5agent4taskINtB5_11TaskManagerpE8get_taskB9_
FN:261,_RNvMs2_NtNtCs4ZEr9HMJnjR_13p2p_ai_agents5agent4taskNtB5_4Task10set_status
FN:256,_RNvMs2_NtNtCs4ZEr9HMJnjR_13p2p_ai_agents5agent4taskNtB5_4Task12completed_at
FN:226,_RNvMs2_NtNtCs4ZEr9HMJnjR_13p2p_ai_agents5agent4taskNtB5_4Task2id
FN:23,_RNvMNtNtCs4ZEr9HMJnjR_13p2p_ai_agents5agent4taskNtB2_6TaskId11from_string
FN:18,_RNvMNtNtCs4ZEr9HMJnjR_13p2p_ai_agents5agent4taskNtB2_6TaskId3new
FN:28,_RNvMNtNtCs4ZEr9HMJnjR_13p2p_ai_agents5agent4taskNtB2_6TaskId6as_str
FN:251,_RNvMs2_NtNtCs4ZEr9HMJnjR_13p2p_ai_agents5agent4taskNtB5_4Task10created_at
FN:272,_RNvMs2_NtNtCs4ZEr9HMJnjR_13p2p_ai_agents5agent4taskNtB5_4Task10set_result
FN:213,_RNvMs2_NtNtCs4ZEr9HMJnjR_13p2p_ai_agents5agent4taskNtB5_4Task3new
FN:246,_RNvMs2_NtNtCs4ZEr9HMJnjR_13p2p_ai_agents5agent4taskNtB5_4Task6result
FN:241,_RNvMs2_NtNtCs4ZEr9HMJnjR_13p2p_ai_agents5agent4taskNtB5_4Task6status
FN:236,_RNvMs2_NtNtCs4ZEr9HMJnjR_13p2p_ai_agents5agent4taskNtB5_4Task7payload
FN:231,_RNvMs2_NtNtCs4ZEr9HMJnjR_13p2p_ai_agents5agent4taskNtB5_4Task8priority
FN:40,_RNvXs0_NtNtCs4ZEr9HMJnjR_13p2p_ai_agents5agent4taskNtB5_6TaskIdNtNtCsaTRkahAGrLL_4core3fmt7Display3fmt
FN:34,_RNvXs_NtNtCs4ZEr9HMJnjR_13p2p_ai_agents5agent4taskNtB4_6TaskIdNtNtCsaTRkahAGrLL_4core7default7Default7default
FN:626,_RNCNvNtNtNtCs4ZEr9HMJnjR_13p2p_ai_agents5agent4task5testss_18test_task_executor0B9_
FN:615,_RNCNvXNtNtNtCs4ZEr9HMJnjR_13p2p_ai_agents5agent4task5testsNtB4_12MockExecutorNtB6_12TaskExecutor7execute0Ba_
FN:297,_RNvNtNtNtCs4ZEr9HMJnjR_13p2p_ai_agents5agent4task5testss_16test_task_id_new
FN:425,_RNvNtNtNtCs4ZEr9HMJnjR_13p2p_ai_agents5agent4task5testss_17test_task_id_hash
FN:626,_RNvNtNtNtCs4ZEr9HMJnjR_13p2p_ai_agents5agent4task5testss_18test_task_executor
FN:404,_RNvNtNtNtCs4ZEr9HMJnjR_13p2p_ai_agents5agent4task5testss_18test_task_id_clone
FN:339,_RNvNtNtNtCs4ZEr9HMJnjR_13p2p_ai_agents5agent4task5testss_20test_task_id_default
FN:359,_RNvNtNtNtCs4ZEr9HMJnjR_13p2p_ai_agents5agent4task5testss_20test_task_id_display
FN:578,_RNvNtNtNtCs4ZEr9HMJnjR_13p2p_ai_agents5agent4task5testss_20test_task_set_result
FN:381,_RNvNtNtNtCs4ZEr9HMJnjR_13p2p_ai_agents5agent4task5testss_21test_task_id_equality
FN:542,_RNvNtNtNtCs4ZEr9HMJnjR_13p2p_ai_agents5agent4task5testss_21test_task_type_custom
FN:321,_RNvNtNtNtCs4ZEr9HMJnjR_13p2p_ai_agents5agent4task5testss_24test_task_id_from_string
FN:479,_RNvNtNtNtCs4ZEr9HMJnjR_13p2p_ai_agents5agent4task5testss_25test_task_id_empty_string
FN:456,_RNvNtNtNtCs4ZEr9HMJnjR_13p2p_ai_agents5agent4task5testss_26test_task_id_serialization
FN:504,_RNvNtNtNtCs4ZEr9HMJnjR_13p2p_ai_agents5agent4task5testss_27test_task_priority_ordering
FN:554,_RNvNtNtNtCs4ZEr9HMJnjR_13p2p_ai_agents5agent4task5testss_30test_task_creation_and_getters
FN:496,_RNvNtNtNtCs4ZEr9HMJnjR_13p2p_ai_agents5agent4task5testss_31test_task_id_special_characters
FN:530,_RNvNtNtNtCs4ZEr9HMJnjR_13p2p_ai_agents5agent4task5testss_36test_task_status_failed_with_message
FN:622,_RNvXNtNtNtCs4ZEr9HMJnjR_13p2p_ai_agents5agent4task5testsNtB2_12MockExecutorNtB4_12TaskExecutor7execute
FNDA:0,_RNCNvMs1_NtNtCsazECCRb7Zym_13p2p_ai_agents5agent4taskINtB7_11TaskManagerpE11cancel_task0Bb_
FNDA:0,_RNCNvMs1_NtNtCsazECCRb7Zym_13p2p_ai_agents5agent4taskINtB7_11TaskManagerpE11submit_task0Bb_
FNDA:0,_RNCNvMs1_NtNtCsazECCRb7Zym_13p2p_ai_agents5agent4taskINtB7_11TaskManagerpE12execute_task0Bb_
FNDA:0,_RNCNvMs1_NtNtCsazECCRb7Zym_13p2p_ai_agents5agent4taskINtB7_11TaskManagerpE8get_task0Bb_
FNDA:0,_RNvMs1_NtNtCsazECCRb7Zym_13p2p_ai_agents5agent4taskINtB5_11TaskManagerpE11cancel_taskB9_
FNDA:0,_RNvMs1_NtNtCsazECCRb7Zym_13p2p_ai_agents5agent4taskINtB5_11TaskManagerpE11submit_taskB9_
FNDA:0,_RNvMs1_NtNtCsazECCRb7Zym_13p2p_ai_agents5agent4taskINtB5_11TaskManagerpE12execute_taskB9_
FNDA:0,_RNvMs1_NtNtCsazECCRb7Zym_13p2p_ai_agents5agent4taskINtB5_11TaskManagerpE3newB9_
FNDA:0,_RNvMs1_NtNtCsazECCRb7Zym_13p2p_ai_agents5agent4taskINtB5_11TaskManagerpE8get_taskB9_
FNDA:0,_RNvMNtNtCsazECCRb7Zym_13p2p_ai_agents5agent4taskNtB2_6TaskId11from_string
FNDA:10,_RNvMNtNtCsazECCRb7Zym_13p2p_ai_agents5agent4taskNtB2_6TaskId3new
FNDA:0,_RNvMNtNtCsazECCRb7Zym_13p2p_ai_agents5agent4taskNtB2_6TaskId6as_str
FNDA:0,_RNvMs2_NtNtCsazECCRb7Zym_13p2p_ai_agents5agent4taskNtB5_4Task10created_at
FNDA:0,_RNvMs2_NtNtCsazECCRb7Zym_13p2p_ai_agents5agent4taskNtB5_4Task10set_result
FNDA:0,_RNvMs2_NtNtCsazECCRb7Zym_13p2p_ai_agents5agent4taskNtB5_4Task10set_status
FNDA:0,_RNvMs2_NtNtCsazECCRb7Zym_13p2p_ai_agents5agent4taskNtB5_4Task12completed_at
FNDA:10,_RNvMs2_NtNtCsazECCRb7Zym_13p2p_ai_agents5agent4taskNtB5_4Task2id
FNDA:10,_RNvMs2_NtNtCsazECCRb7Zym_13p2p_ai_agents5agent4taskNtB5_4Task3new
FNDA:0,_RNvMs2_NtNtCsazECCRb7Zym_13p2p_ai_agents5agent4taskNtB5_4Task6result
FNDA:0,_RNvMs2_NtNtCsazECCRb7Zym_13p2p_ai_agents5agent4taskNtB5_4Task6status
FNDA:0,_RNvMs2_NtNtCsazECCRb7Zym_13p2p_ai_agents5agent4taskNtB5_4Task7payload
FNDA:0,_RNvMs2_NtNtCsazECCRb7Zym_13p2p_ai_agents5agent4taskNtB5_4Task8priority
FNDA:8,_RNvXs0_NtNtCsazECCRb7Zym_13p2p_ai_agents5agent4taskNtB5_6TaskIdNtNtCsaTRkahAGrLL_4core3fmt7Display3fmt
FNDA:0,_RNvXs_NtNtCsazECCRb7Zym_13p2p_ai_agents5agent4taskNtB4_6TaskIdNtNtCsaTRkahAGrLL_4core7default7Default7default
FNDA:0,_RNCNvMs1_NtNtCs4ZEr9HMJnjR_13p2p_ai_agents5agent4taskINtB7_11TaskManagerpE11cancel_task0Bb_
FNDA:0,_RNCNvMs1_NtNtCs4ZEr9HMJnjR_13p2p_ai_agents5agent4taskINtB7_11TaskManagerpE11submit_task0Bb_
FNDA:0,_RNCNvMs1_NtNtCs4ZEr9HMJnjR_13p2p_ai_agents5agent4taskINtB7_11TaskManagerpE12execute_task0Bb_
FNDA:0,_RNCNvMs1_NtNtCs4ZEr9HMJnjR_13p2p_ai_agents5agent4taskINtB7_11TaskManagerpE8get_task0Bb_
FNDA:0,_RNvMs1_NtNtCs4ZEr9HMJnjR_13p2p_ai_agents5agent4taskINtB5_11TaskManagerpE11cancel_taskB9_
FNDA:0,_RNvMs1_NtNtCs4ZEr9HMJnjR_13p2p_ai_agents5agent4taskINtB5_11TaskManagerpE11submit_taskB9_
FNDA:0,_RNvMs1_NtNtCs4ZEr9HMJnjR_13p2p_ai_agents5agent4taskINtB5_11TaskManagerpE12execute_taskB9_
FNDA:0,_RNvMs1_NtNtCs4ZEr9HMJnjR_13p2p_ai_agents5agent4taskINtB5_11TaskManagerpE3newB9_
FNDA:0,_RNvMs1_NtNtCs4ZEr9HMJnjR_13p2p_ai_agents5agent4taskINtB5_11TaskManagerpE8get_taskB9_
FNDA:0,_RNvMs2_NtNtCs4ZEr9HMJnjR_13p2p_ai_agents5agent4taskNtB5_4Task10set_status
FNDA:0,_RNvMs2_NtNtCs4ZEr9HMJnjR_13p2p_ai_agents5agent4taskNtB5_4Task12completed_at
FNDA:0,_RNvMs2_NtNtCs4ZEr9HMJnjR_13p2p_ai_agents5agent4taskNtB5_4Task2id
FNDA:12,_RNvMNtNtCs4ZEr9HMJnjR_13p2p_ai_agents5agent4taskNtB2_6TaskId11from_string
FNDA:7,_RNvMNtNtCs4ZEr9HMJnjR_13p2p_ai_agents5agent4taskNtB2_6TaskId3new
FNDA:10,_RNvMNtNtCs4ZEr9HMJnjR_13p2p_ai_agents5agent4taskNtB2_6TaskId6as_str
FNDA:1,_RNvMs2_NtNtCs4ZEr9HMJnjR_13p2p_ai_agents5agent4taskNtB5_4Task10created_at
FNDA:1,_RNvMs2_NtNtCs4ZEr9HMJnjR_13p2p_ai_agents5agent4taskNtB5_4Task10set_result
FNDA:3,_RNvMs2_NtNtCs4ZEr9HMJnjR_13p2p_ai_agents5agent4taskNtB5_4Task3new
FNDA:4,_RNvMs2_NtNtCs4ZEr9HMJnjR_13p2p_ai_agents5agent4taskNtB5_4Task6result
FNDA:3,_RNvMs2_NtNtCs4ZEr9HMJnjR_13p2p_ai_agents5agent4taskNtB5_4Task6status
FNDA:2,_RNvMs2_NtNtCs4ZEr9HMJnjR_13p2p_ai_agents5agent4taskNtB5_4Task7payload
FNDA:1,_RNvMs2_NtNtCs4ZEr9HMJnjR_13p2p_ai_agents5agent4taskNtB5_4Task8priority
FNDA:3,_RNvXs0_NtNtCs4ZEr9HMJnjR_13p2p_ai_agents5agent4taskNtB5_6TaskIdNtNtCsaTRkahAGrLL_4core3fmt7Display3fmt
FNDA:2,_RNvXs_NtNtCs4ZEr9HMJnjR_13p2p_ai_agents5agent4taskNtB4_6TaskIdNtNtCsaTRkahAGrLL_4core7default7Default7default
FNDA:1,_RNCNvNtNtNtCs4ZEr9HMJnjR_13p2p_ai_agents5agent4task5testss_18test_task_executor0B9_
FNDA:1,_RNCNvXNtNtNtCs4ZEr9HMJnjR_13p2p_ai_agents5agent4task5testsNtB4_12MockExecutorNtB6_12TaskExecutor7execute0Ba_
FNDA:1,_RNvNtNtNtCs4ZEr9HMJnjR_13p2p_ai_agents5agent4task5testss_16test_task_id_new
FNDA:1,_RNvNtNtNtCs4ZEr9HMJnjR_13p2p_ai_agents5agent4task5testss_17test_task_id_hash
FNDA:1,_RNvNtNtNtCs4ZEr9HMJnjR_13p2p_ai_agents5agent4task5testss_18test_task_executor
FNDA:1,_RNvNtNtNtCs4ZEr9HMJnjR_13p2p_ai_agents5agent4task5testss_18test_task_id_clone
FNDA:1,_RNvNtNtNtCs4ZEr9HMJnjR_13p2p_ai_agents5agent4task5testss_20test_task_id_default
FNDA:1,_RNvNtNtNtCs4ZEr9HMJnjR_13p2p_ai_agents5agent4task5testss_20test_task_id_display
FNDA:1,_RNvNtNtNtCs4ZEr9HMJnjR_13p2p_ai_agents5agent4task5testss_20test_task_set_result
FNDA:1,_RNvNtNtNtCs4ZEr9HMJnjR_13p2p_ai_agents5agent4task5testss_21test_task_id_equality
FNDA:1,_RNvNtNtNtCs4ZEr9HMJnjR_13p2p_ai_agents5agent4task5testss_21test_task_type_custom
FNDA:1,_RNvNtNtNtCs4ZEr9HMJnjR_13p2p_ai_agents5agent4task5testss_24test_task_id_from_string
FNDA:1,_RNvNtNtNtCs4ZEr9HMJnjR_13p2p_ai_agents5agent4task5testss_25test_task_id_empty_string
FNDA:1,_RNvNtNtNtCs4ZEr9HMJnjR_13p2p_ai_agents5agent4task5testss_26test_task_id_serialization
FNDA:1,_RNvNtNtNtCs4ZEr9HMJnjR_13p2p_ai_agents5agent4task5testss_27test_task_priority_ordering
FNDA:1,_RNvNtNtNtCs4ZEr9HMJnjR_13p2p_ai_agents5agent4task5testss_30test_task_creation_and_getters
FNDA:1,_RNvNtNtNtCs4ZEr9HMJnjR_13p2p_ai_agents5agent4task5testss_31test_task_id_special_characters
FNDA:1,_RNvNtNtNtCs4ZEr9HMJnjR_13p2p_ai_agents5agent4task5testss_36test_task_status_failed_with_message
FNDA:1,_RNvXNtNtNtCs4ZEr9HMJnjR_13p2p_ai_agents5agent4task5testsNtB2_12MockExecutorNtB4_12TaskExecutor7execute
FNF:43
FNH:32
DA:18,17
DA:19,17
DA:20,17
DA:23,12
DA:24,12
DA:25,12
DA:28,10
DA:29,10
DA:30,10
DA:34,2
DA:35,2
DA:36,2
DA:40,11
DA:41,11
DA:42,11
DA:173,0
DA:174,0
DA:175,0
DA:176,0
DA:177,0
DA:178,0
DA:179,0
DA:180,0
DA:181,0
DA:182,0
DA:183,0
DA:184,0
DA:185,0
DA:186,0
DA:187,0
DA:188,0
DA:189,0
DA:190,0
DA:191,0
DA:192,0
DA:193,0
DA:194,0
DA:195,0
DA:196,0
DA:197,0
DA:198,0
DA:199,0
DA:200,0
DA:201,0
DA:202,0
DA:203,0
DA:204,0
DA:205,0
DA:206,0
DA:207,0
DA:208,0
DA:213,13
DA:214,13
DA:215,13
DA:216,13
DA:217,13
DA:218,13
DA:219,13
DA:220,13
DA:221,13
DA:222,13
DA:223,13
DA:226,10
DA:227,10
DA:228,10
DA:231,1
DA:232,1
DA:233,1
DA:236,2
DA:237,2
DA:238,2
DA:241,3
DA:242,3
DA:243,3
DA:246,4
DA:247,4
DA:248,4
DA:251,1
DA:252,1
DA:253,1
DA:256,0
DA:257,0
DA:258,0
DA:261,0
DA:262,0
DA:263,0
DA:264,0
DA:266,0
DA:267,0
DA:268,0
DA:269,0
DA:272,1
DA:273,1
DA:274,1
DA:275,1
DA:276,1
DA:297,1
DA:298,1
DA:299,1
DA:300,1
DA:301,1
DA:302,1
DA:303,1
DA:306,1
DA:307,1
DA:308,1
DA:321,1
DA:322,1
DA:323,1
DA:324,1
DA:325,1
DA:326,1
DA:327,1
DA:339,1
DA:340,1
DA:341,1
DA:342,1
DA:343,1
DA:344,1
DA:345,1
DA:346,1
DA:359,1
DA:360,1
DA:361,1
DA:362,1
DA:363,1
DA:364,1
DA:381,1
DA:382,1
DA:383,1
DA:384,1
DA:385,1
DA:386,1
DA:387,1
DA:389,1
DA:390,1
DA:404,1
DA:405,1
DA:406,1
DA:407,1
DA:408,1
DA:409,1
DA:410,1
DA:425,1
DA:428,1
DA:429,1
DA:430,1
DA:431,1
DA:432,1
DA:433,1
DA:434,1
DA:435,1
DA:436,1
DA:437,1
DA:438,1
DA:439,1
DA:440,1
DA:441,1
DA:456,1
DA:457,1
DA:458,1
DA:459,1
DA:460,1
DA:461,1
DA:464,1
DA:465,1
DA:466,1
DA:479,1
DA:480,1
DA:481,1
DA:482,1
DA:483,1
DA:496,1
DA:497,1
DA:498,1
DA:499,1
DA:500,1
DA:504,1
DA:505,1
DA:506,1
DA:507,1
DA:509,1
DA:510,1
DA:511,1
DA:512,1
DA:513,1
DA:514,1
DA:515,1
DA:516,1
DA:517,1
DA:518,1
DA:519,1
DA:520,1
DA:521,1
DA:522,1
DA:523,1
DA:524,1
DA:525,1
DA:526,1
DA:530,1
DA:531,1
DA:532,1
DA:533,1
DA:534,1
DA:535,1
DA:536,0
DA:538,1
DA:542,1
DA:543,1
DA:544,1
DA:545,1
DA:546,1
DA:547,1
DA:548,0
DA:550,1
DA:554,1
DA:555,1
DA:556,1
DA:557,1
DA:558,1
DA:559,1
DA:560,1
DA:561,1
DA:562,1
DA:563,1
DA:564,1
DA:565,1
DA:566,1
DA:567,1
DA:568,1
DA:569,1
DA:572,1
DA:573,1
DA:574,1
DA:575,1
DA:578,1
DA:579,1
DA:580,1
DA:581,1
DA:582,1
DA:583,1
DA:584,1
DA:585,1
DA:586,1
DA:587,1
DA:588,1
DA:589,1
DA:590,1
DA:593,1
DA:594,1
DA:595,1
DA:596,1
DA:597,1
DA:598,1
DA:599,1
DA:600,1
DA:601,1
DA:602,1
DA:605,1
DA:606,1
DA:607,1
DA:608,1
DA:615,1
DA:617,1
DA:618,1
DA:619,1
DA:620,1
DA:621,1
DA:622,2
DA:626,1
DA:627,1
DA:628,1
DA:629,1
DA:630,1
DA:631,1
DA:632,1
DA:633,1
DA:634,1
DA:635,1
DA:636,1
DA:637,1
DA:638,1
DA:639,1
DA:640,1
BRF:0
BRH:0
LF:301
LH:248
end_of_record
SF:/Users/renegeers/Source/p2p-ai-agents/src/application/lifecycle.rs
FN:279,_RNCNCNvMs_NtNtCsazECCRb7Zym_13p2p_ai_agents11application9lifecycleNtB8_16LifecycleManager10load_state00Bc_
FN:262,_RNCNCNvMs_NtNtCsazECCRb7Zym_13p2p_ai_agents11application9lifecycleNtB8_16LifecycleManager13persist_state00Bc_
FN:268,_RNCNCNvMs_NtNtCsazECCRb7Zym_13p2p_ai_agents11application9lifecycleNtB8_16LifecycleManager13persist_state0s_0Bc_
FN:181,_RNCNCNvMs_NtNtCsazECCRb7Zym_13p2p_ai_agents11application9lifecycleNtB8_16LifecycleManager14handle_signals00Bc_
FN:188,_RNCNCNvMs_NtNtCsazECCRb7Zym_13p2p_ai_agents11application9lifecycleNtB8_16LifecycleManager14handle_signals0s_0Bc_
FN:276,_RNCNvMs_NtNtCsazECCRb7Zym_13p2p_ai_agents11application9lifecycleNtB6_16LifecycleManager10load_state0Ba_
FN:259,_RNCNvMs_NtNtCsazECCRb7Zym_13p2p_ai_agents11application9lifecycleNtB6_16LifecycleManager13persist_state0Ba_
FN:175,_RNCNvMs_NtNtCsazECCRb7Zym_13p2p_ai_agents11application9lifecycleNtB6_16LifecycleManager14handle_signals0Ba_
FN:218,_RNCNvMs_NtNtCsazECCRb7Zym_13p2p_ai_agents11application9lifecycleNtB6_16LifecycleManager20check_previous_state0Ba_
FN:247,_RNCNvMs_NtNtCsazECCRb7Zym_13p2p_ai_agents11application9lifecycleNtB6_16LifecycleManager28complete_inflight_operations0Ba_
FN:296,_RNCNvMs_NtNtCsazECCRb7Zym_13p2p_ai_agents11application9lifecycleNtB6_16LifecycleManager5state0Ba_
FN:75,_RNCNvMs_NtNtCsazECCRb7Zym_13p2p_ai_agents11application9lifecycleNtB6_16LifecycleManager7startup0Ba_
FN:117,_RNCNvMs_NtNtCsazECCRb7Zym_13p2p_ai_agents11application9lifecycleNtB6_16LifecycleManager8shutdown0Ba_
FN:296,_RNCNvMs_NtNtCsazECCRb7Zym_13p2p_ai_agents11application9lifecycleNtB6_16LifecycleManager5state0Cs6gPyyeLn53j_21lifecycle_integration
FN:34,_RNvMNtNtCsazECCRb7Zym_13p2p_ai_agents11application9lifecycleNtB2_14LifecycleState3new
FN:276,_RNvMs_NtNtCsazECCRb7Zym_13p2p_ai_agents11application9lifecycleNtB4_16LifecycleManager10load_state
FN:259,_RNvMs_NtNtCsazECCRb7Zym_13p2p_ai_agents11application9lifecycleNtB4_16LifecycleManager13persist_state
FN:175,_RNvMs_NtNtCsazECCRb7Zym_13p2p_ai_agents11application9lifecycleNtB4_16LifecycleManager14handle_signals
FN:70,_RNvMs_NtNtCsazECCRb7Zym_13p2p_ai_agents11application9lifecycleNtB4_16LifecycleManager16shutdown_timeout
FN:218,_RNvMs_NtNtCsazECCRb7Zym_13p2p_ai_agents11application9lifecycleNtB4_16LifecycleManager20check_previous_state
FN:64,_RNvMs_NtNtCsazECCRb7Zym_13p2p_ai_agents11application9lifecycleNtB4_16LifecycleManager21with_shutdown_timeout
FN:247,_RNvMs_NtNtCsazECCRb7Zym_13p2p_ai_agents11application9lifecycleNtB4_16LifecycleManager28complete_inflight_operations
FN:55,_RNvMs_NtNtCsazECCRb7Zym_13p2p_ai_agents11application9lifecycleNtB4_16LifecycleManager3new
FN:296,_RNvMs_NtNtCsazECCRb7Zym_13p2p_ai_agents11application9lifecycleNtB4_16LifecycleManager5state
FN:75,_RNvMs_NtNtCsazECCRb7Zym_13p2p_ai_agents11application9lifecycleNtB4_16LifecycleManager7startup
FN:117,_RNvMs_NtNtCsazECCRb7Zym_13p2p_ai_agents11application9lifecycleNtB4_16LifecycleManager8shutdown
FN:279,_RNCNCNvMs_NtNtCs4ZEr9HMJnjR_13p2p_ai_agents11application9lifecycleNtB8_16LifecycleManager10load_state00Bc_
FN:262,_RNCNCNvMs_NtNtCs4ZEr9HMJnjR_13p2p_ai_agents11application9lifecycleNtB8_16LifecycleManager13persist_state00Bc_
FN:268,_RNCNCNvMs_NtNtCs4ZEr9HMJnjR_13p2p_ai_agents11application9lifecycleNtB8_16LifecycleManager13persist_state0s_0Bc_
FN:181,_RNCNCNvMs_NtNtCs4ZEr9HMJnjR_13p2p_ai_agents11application9lifecycleNtB8_16LifecycleManager14handle_signals00Bc_
FN:188,_RNCNCNvMs_NtNtCs4ZEr9HMJnjR_13p2p_ai_agents11application9lifecycleNtB8_16LifecycleManager14handle_signals0s_0Bc_
FN:276,_RNCNvMs_NtNtCs4ZEr9HMJnjR_13p2p_ai_agents11application9lifecycleNtB6_16LifecycleManager10load_state0Ba_
FN:259,_RNCNvMs_NtNtCs4ZEr9HMJnjR_13p2p_ai_agents11application9lifecycleNtB6_16LifecycleManager13persist_state0Ba_
FN:175,_RNCNvMs_NtNtCs4ZEr9HMJnjR_13p2p_ai_agents11application9lifecycleNtB6_16LifecycleManager14handle_signals0Ba_
FN:218,_RNCNvMs_NtNtCs4ZEr9HMJnjR_13p2p_ai_agents11application9lifecycleNtB6_16LifecycleManager20check_previous_state0Ba_
FN:247,_RNCNvMs_NtNtCs4ZEr9HMJnjR_13p2p_ai_agents11application9lifecycleNtB6_16LifecycleManager28complete_inflight_operations0Ba_
FN:296,_RNCNvMs_NtNtCs4ZEr9HMJnjR_13p2p_ai_agents11application9lifecycleNtB6_16LifecycleManager5state0Ba_
FN:75,_RNCNvMs_NtNtCs4ZEr9HMJnjR_13p2p_ai_agents11application9lifecycleNtB6_16LifecycleManager7startup0Ba_
FN:117,_RNCNvMs_NtNtCs4ZEr9HMJnjR_13p2p_ai_agents11application9lifecycleNtB6_16LifecycleManager8shutdown0Ba_
FN:276,_RNvMs_NtNtCs4ZEr9HMJnjR_13p2p_ai_agents11application9lifecycleNtB4_16LifecycleManager10load_state
FN:259,_RNvMs_NtNtCs4ZEr9HMJnjR_13p2p_ai_agents11application9lifecycleNtB4_16LifecycleManager13persist_state
FN:175,_RNvMs_NtNtCs4ZEr9HMJnjR_13p2p_ai_agents11application9lifecycleNtB4_16LifecycleManager14handle_signals
FN:70,_RNvMs_NtNtCs4ZEr9HMJnjR_13p2p_ai_agents11application9lifecycleNtB4_16LifecycleManager16shutdown_timeout
FN:218,_RNvMs_NtNtCs4ZEr9HMJnjR_13p2p_ai_agents11application9lifecycleNtB4_16LifecycleManager20check_previous_state
FN:247,_RNvMs_NtNtCs4ZEr9HMJnjR_13p2p_ai_agents11application9lifecycleNtB4_16LifecycleManager28complete_inflight_operations
FN:296,_RNvMs_NtNtCs4ZEr9HMJnjR_13p2p_ai_agents11application9lifecycleNtB4_16LifecycleManager5state
FN:75,_RNvMs_NtNtCs4ZEr9HMJnjR_13p2p_ai_agents11application9lifecycleNtB4_16LifecycleManager7startup
FN:117,_RNvMs_NtNtCs4ZEr9HMJnjR_13p2p_ai_agents11application9lifecycleNtB4_16LifecycleManager8shutdown
FN:351,_RNvNtNtNtCs4ZEr9HMJnjR_13p2p_ai_agents11application9lifecycle5testss_25test_crash_recovery_state
FN:331,_RNvNtNtNtCs4ZEr9HMJnjR_13p2p_ai_agents11application9lifecycle5testss_25test_startup_and_shutdown
FN:307,_RNvNtNtNtCs4ZEr9HMJnjR_13p2p_ai_agents11application9lifecycle5testss_29test_lifecycle_state_creation
FN:317,_RNvNtNtNtCs4ZEr9HMJnjR_13p2p_ai_agents11application9lifecycle5testss_31test_lifecycle_manager_creation
FN:324,_RNvNtNtNtCs4ZEr9HMJnjR_13p2p_ai_agents11application9lifecycle5testss_37test_lifecycle_manager_custom_timeout
FN:34,_RNvMNtNtCs4ZEr9HMJnjR_13p2p_ai_agents11application9lifecycleNtB2_14LifecycleState3new
FN:64,_RNvMs_NtNtCs4ZEr9HMJnjR_13p2p_ai_agents11application9lifecycleNtB4_16LifecycleManager21with_shutdown_timeout
FN:55,_RNvMs_NtNtCs4ZEr9HMJnjR_13p2p_ai_agents11application9lifecycleNtB4_16LifecycleManager3new
FN:351,_RNCNvNtNtNtCs4ZEr9HMJnjR_13p2p_ai_agents11application9lifecycle5testss_25test_crash_recovery_state0B9_
FN:331,_RNCNvNtNtNtCs4ZEr9HMJnjR_13p2p_ai_agents11application9lifecycle5testss_25test_startup_and_shutdown0B9_
FN:307,_RNCNvNtNtNtCs4ZEr9HMJnjR_13p2p_ai_agents11application9lifecycle5testss_29test_lifecycle_state_creation0B9_
FN:317,_RNCNvNtNtNtCs4ZEr9HMJnjR_13p2p_ai_agents11application9lifecycle5testss_31test_lifecycle_manager_creation0B9_
FN:324,_RNCNvNtNtNtCs4ZEr9HMJnjR_13p2p_ai_agents11application9lifecycle5testss_37test_lifecycle_manager_custom_timeout0B9_
FNDA:0,_RNCNCNvMs_NtNtCsazECCRb7Zym_13p2p_ai_agents11application9lifecycleNtB8_16LifecycleManager10load_state00Bc_
FNDA:0,_RNCNCNvMs_NtNtCsazECCRb7Zym_13p2p_ai_agents11application9lifecycleNtB8_16LifecycleManager13persist_state00Bc_
FNDA:0,_RNCNCNvMs_NtNtCsazECCRb7Zym_13p2p_ai_agents11application9lifecycleNtB8_16LifecycleManager13persist_state0s_0Bc_
FNDA:0,_RNCNCNvMs_NtNtCsazECCRb7Zym_13p2p_ai_agents11application9lifecycleNtB8_16LifecycleManager14handle_signals00Bc_
FNDA:0,_RNCNCNvMs_NtNtCsazECCRb7Zym_13p2p_ai_agents11application9lifecycleNtB8_16LifecycleManager14handle_signals0s_0Bc_
FNDA:0,_RNCNvMs_NtNtCsazECCRb7Zym_13p2p_ai_agents11application9lifecycleNtB6_16LifecycleManager10load_state0Ba_
FNDA:0,_RNCNvMs_NtNtCsazECCRb7Zym_13p2p_ai_agents11application9lifecycleNtB6_16LifecycleManager13persist_state0Ba_
FNDA:0,_RNCNvMs_NtNtCsazECCRb7Zym_13p2p_ai_agents11application9lifecycleNtB6_16LifecycleManager14handle_signals0Ba_
FNDA:0,_RNCNvMs_NtNtCsazECCRb7Zym_13p2p_ai_agents11application9lifecycleNtB6_16LifecycleManager20check_previous_state0Ba_
FNDA:0,_RNCNvMs_NtNtCsazECCRb7Zym_13p2p_ai_agents11application9lifecycleNtB6_16LifecycleManager28complete_inflight_operations0Ba_
FNDA:0,_RNCNvMs_NtNtCsazECCRb7Zym_13p2p_ai_agents11application9lifecycleNtB6_16LifecycleManager5state0Ba_
FNDA:0,_RNCNvMs_NtNtCsazECCRb7Zym_13p2p_ai_agents11application9lifecycleNtB6_16LifecycleManager7startup0Ba_
FNDA:0,_RNCNvMs_NtNtCsazECCRb7Zym_13p2p_ai_agents11application9lifecycleNtB6_16LifecycleManager8shutdown0Ba_
FNDA:1,_RNCNvMs_NtNtCsazECCRb7Zym_13p2p_ai_agents11application9lifecycleNtB6_16LifecycleManager5state0Cs6gPyyeLn53j_21lifecycle_integration
FNDA:8,_RNvMNtNtCsazECCRb7Zym_13p2p_ai_agents11application9lifecycleNtB2_14LifecycleState3new
FNDA:0,_RNvMs_NtNtCsazECCRb7Zym_13p2p_ai_agents11application9lifecycleNtB4_16LifecycleManager10load_state
FNDA:0,_RNvMs_NtNtCsazECCRb7Zym_13p2p_ai_agents11application9lifecycleNtB4_16LifecycleManager13persist_state
FNDA:0,_RNvMs_NtNtCsazECCRb7Zym_13p2p_ai_agents11application9lifecycleNtB4_16LifecycleManager14handle_signals
FNDA:4,_RNvMs_NtNtCsazECCRb7Zym_13p2p_ai_agents11application9lifecycleNtB4_16LifecycleManager16shutdown_timeout
FNDA:0,_RNvMs_NtNtCsazECCRb7Zym_13p2p_ai_agents11application9lifecycleNtB4_16LifecycleManager20check_previous_state
FNDA:4,_RNvMs_NtNtCsazECCRb7Zym_13p2p_ai_agents11application9lifecycleNtB4_16LifecycleManager21with_shutdown_timeout
FNDA:0,_RNvMs_NtNtCsazECCRb7Zym_13p2p_ai_agents11application9lifecycleNtB4_16LifecycleManager28complete_inflight_operations
FNDA:5,_RNvMs_NtNtCsazECCRb7Zym_13p2p_ai_agents11application9lifecycleNtB4_16LifecycleManager3new
FNDA:1,_RNvMs_NtNtCsazECCRb7Zym_13p2p_ai_agents11application9lifecycleNtB4_16LifecycleManager5state
FNDA:0,_RNvMs_NtNtCsazECCRb7Zym_13p2p_ai_agents11application9lifecycleNtB4_16LifecycleManager7startup
FNDA:0,_RNvMs_NtNtCsazECCRb7Zym_13p2p_ai_agents11application9lifecycleNtB4_16LifecycleManager8shutdown
FNDA:0,_RNCNCNvMs_NtNtCs4ZEr9HMJnjR_13p2p_ai_agents11application9lifecycleNtB8_16LifecycleManager10load_state00Bc_
FNDA:0,_RNCNCNvMs_NtNtCs4ZEr9HMJnjR_13p2p_ai_agents11application9lifecycleNtB8_16LifecycleManager13persist_state00Bc_
FNDA:0,_RNCNCNvMs_NtNtCs4ZEr9HMJnjR_13p2p_ai_agents11application9lifecycleNtB8_16LifecycleManager13persist_state0s_0Bc_
FNDA:0,_RNCNCNvMs_NtNtCs4ZEr9HMJnjR_13p2p_ai_agents11application9lifecycleNtB8_16LifecycleManager14handle_signals00Bc_
FNDA:0,_RNCNCNvMs_NtNtCs4ZEr9HMJnjR_13p2p_ai_agents11application9lifecycleNtB8_16LifecycleManager14handle_signals0s_0Bc_
FNDA:0,_RNCNvMs_NtNtCs4ZEr9HMJnjR_13p2p_ai_agents11application9lifecycleNtB6_16LifecycleManager10load_state0Ba_
FNDA:0,_RNCNvMs_NtNtCs4ZEr9HMJnjR_13p2p_ai_agents11application9lifecycleNtB6_16LifecycleManager13persist_state0Ba_
FNDA:0,_RNCNvMs_NtNtCs4ZEr9HMJnjR_13p2p_ai_agents11application9lifecycleNtB6_16LifecycleManager14handle_signals0Ba_
FNDA:0,_RNCNvMs_NtNtCs4ZEr9HMJnjR_13p2p_ai_agents11application9lifecycleNtB6_16LifecycleManager20check_previous_state0Ba_
FNDA:0,_RNCNvMs_NtNtCs4ZEr9HMJnjR_13p2p_ai_agents11application9lifecycleNtB6_16LifecycleManager28complete_inflight_operations0Ba_
FNDA:0,_RNCNvMs_NtNtCs4ZEr9HMJnjR_13p2p_ai_agents11application9lifecycleNtB6_16LifecycleManager5state0Ba_
FNDA:0,_RNCNvMs_NtNtCs4ZEr9HMJnjR_13p2p_ai_agents11application9lifecycleNtB6_16LifecycleManager7startup0Ba_
FNDA:0,_RNCNvMs_NtNtCs4ZEr9HMJnjR_13p2p_ai_agents11application9lifecycleNtB6_16LifecycleManager8shutdown0Ba_
FNDA:0,_RNvMs_NtNtCs4ZEr9HMJnjR_13p2p_ai_agents11application9lifecycleNtB4_16LifecycleManager10load_state
FNDA:0,_RNvMs_NtNtCs4ZEr9HMJnjR_13p2p_ai_agents11application9lifecycleNtB4_16LifecycleManager13persist_state
FNDA:0,_RNvMs_NtNtCs4ZEr9HMJnjR_13p2p_ai_agents11application9lifecycleNtB4_16LifecycleManager14handle_signals
FNDA:0,_RNvMs_NtNtCs4ZEr9HMJnjR_13p2p_ai_agents11application9lifecycleNtB4_16LifecycleManager16shutdown_timeout
FNDA:0,_RNvMs_NtNtCs4ZEr9HMJnjR_13p2p_ai_agents11application9lifecycleNtB4_16LifecycleManager20check_previous_state
FNDA:0,_RNvMs_NtNtCs4ZEr9HMJnjR_13p2p_ai_agents11application9lifecycleNtB4_16LifecycleManager28complete_inflight_operations
FNDA:0,_RNvMs_NtNtCs4ZEr9HMJnjR_13p2p_ai_agents11application9lifecycleNtB4_16LifecycleManager5state
FNDA:0,_RNvMs_NtNtCs4ZEr9HMJnjR_13p2p_ai_agents11application9lifecycleNtB4_16LifecycleManager7startup
FNDA:0,_RNvMs_NtNtCs4ZEr9HMJnjR_13p2p_ai_agents11application9lifecycleNtB4_16LifecycleManager8shutdown
FNDA:1,_RNvNtNtNtCs4ZEr9HMJnjR_13p2p_ai_agents11application9lifecycle5testss_25test_crash_recovery_state
FNDA:1,_RNvNtNtNtCs4ZEr9HMJnjR_13p2p_ai_agents11application9lifecycle5testss_25test_startup_and_shutdown
FNDA:1,_RNvNtNtNtCs4ZEr9HMJnjR_13p2p_ai_agents11application9lifecycle5testss_29test_lifecycle_state_creation
FNDA:1,_RNvNtNtNtCs4ZEr9HMJnjR_13p2p_ai_agents11application9lifecycle5testss_31test_lifecycle_manager_creation
FNDA:1,_RNvNtNtNtCs4ZEr9HMJnjR_13p2p_ai_agents11application9lifecycle5testss_37test_lifecycle_manager_custom_timeout
FNDA:3,_RNvMNtNtCs4ZEr9HMJnjR_13p2p_ai_agents11application9lifecycleNtB2_14LifecycleState3new
FNDA:1,_RNvMs_NtNtCs4ZEr9HMJnjR_13p2p_ai_agents11application9lifecycleNtB4_16LifecycleManager21with_shutdown_timeout
FNDA:2,_RNvMs_NtNtCs4ZEr9HMJnjR_13p2p_ai_agents11application9lifecycleNtB4_16LifecycleManager3new
FNDA:1,_RNCNvNtNtNtCs4ZEr9HMJnjR_13p2p_ai_agents11application9lifecycle5testss_25test_crash_recovery_state0B9_
FNDA:1,_RNCNvNtNtNtCs4ZEr9HMJnjR_13p2p_ai_agents11application9lifecycle5testss_25test_startup_and_shutdown0B9_
FNDA:1,_RNCNvNtNtNtCs4ZEr9HMJnjR_13p2p_ai_agents11application9lifecycle5testss_29test_lifecycle_state_creation0B9_
FNDA:1,_RNCNvNtNtNtCs4ZEr9HMJnjR_13p2p_ai_agents11application9lifecycle5testss_31test_lifecycle_manager_creation0B9_
FNDA:1,_RNCNvNtNtNtCs4ZEr9HMJnjR_13p2p_ai_agents11application9lifecycle5testss_37test_lifecycle_manager_custom_timeout0B9_
FNF:35
FNH:16
DA:34,11
DA:35,11
DA:36,11
DA:37,11
DA:38,11
DA:39,11
DA:40,11
DA:41,11
DA:42,11
DA:43,11
DA:55,7
DA:56,7
DA:57,7
DA:58,7
DA:59,7
DA:60,7
DA:61,7
DA:64,5
DA:65,5
DA:66,5
DA:67,5
DA:70,4
DA:71,4
DA:72,4
DA:75,0
DA:76,0
DA:77,0
DA:78,0
DA:79,0
DA:80,0
DA:83,0
DA:84,0
DA:85,0
DA:88,0
DA:89,0
DA:92,0
DA:93,0
DA:96,0
DA:97,0
DA:98,0
DA:100,0
DA:103,0
DA:104,0
DA:105,0
DA:108,0
DA:109,0
DA:110,0
DA:112,0
DA:113,0
DA:114,0
DA:117,0
DA:118,0
DA:119,0
DA:120,0
DA:121,0
DA:122,0
DA:125,0
DA:126,0
DA:127,0
DA:128,0
DA:129,0
DA:130,0
DA:131,0
DA:132,0
DA:135,0
DA:136,0
DA:137,0
DA:139,0
DA:141,0
DA:143,0
DA:144,0
DA:147,0
DA:152,0
DA:153,0
DA:154,0
DA:155,0
DA:157,0
DA:158,0
DA:159,0
DA:162,0
DA:163,0
DA:164,0
DA:167,0
DA:168,0
DA:170,0
DA:171,0
DA:172,0
DA:175,0
DA:180,0
DA:181,0
DA:182,0
DA:183,0
DA:184,0
DA:185,0
DA:186,0
DA:187,0
DA:188,0
DA:189,0
DA:190,0
DA:191,0
DA:192,0
DA:193,0
DA:195,0
DA:196,0
DA:197,0
DA:199,0
DA:200,0
DA:213,0
DA:214,0
DA:215,0
DA:218,0
DA:219,0
DA:220,0
DA:221,0
DA:222,0
DA:223,0
DA:224,0
DA:227,0
DA:228,0
DA:230,0
DA:231,0
DA:233,0
DA:237,0
DA:239,0
DA:240,0
DA:243,0
DA:244,0
DA:247,0
DA:248,0
DA:249,0
DA:250,0
DA:251,0
DA:252,0
DA:253,0
DA:254,0
DA:255,0
DA:256,0
DA:259,0
DA:262,0
DA:263,0
DA:264,0
DA:266,0
DA:267,0
DA:268,0
DA:269,0
DA:270,0
DA:272,0
DA:273,0
DA:276,0
DA:277,0
DA:278,0
DA:279,0
DA:280,0
DA:281,0
DA:282,0
DA:283,0
DA:284,0
DA:285,0
DA:287,0
DA:288,0
DA:289,0
DA:290,0
DA:291,0
DA:293,0
DA:296,1
DA:297,1
DA:298,1
DA:307,1
DA:308,1
DA:309,1
DA:310,1
DA:311,1
DA:312,1
DA:313,1
DA:314,1
DA:317,1
DA:318,1
DA:319,1
DA:320,1
DA:321,1
DA:324,1
DA:325,1
DA:326,1
DA:327,1
DA:328,1
DA:331,1
DA:332,1
DA:333,1
DA:334,1
DA:335,1
DA:336,1
DA:337,1
DA:338,1
DA:339,1
DA:340,1
DA:341,1
DA:342,1
DA:343,1
DA:344,1
DA:345,1
DA:346,1
DA:347,1
DA:348,1
DA:351,1
DA:352,1
DA:353,1
DA:354,1
DA:355,1
DA:356,1
DA:357,1
DA:358,1
DA:359,1
DA:360,1
DA:361,1
DA:362,1
DA:363,1
DA:364,1
DA:365,1
DA:366,1
DA:367,1
DA:368,1
DA:369,1
DA:370,1
DA:371,1
DA:372,1
DA:373,1
DA:374,1
DA:375,1
DA:376,1
DA:377,1
DA:378,1
BRF:0
BRH:0
LF:301
LH:143
end_of_record
SF:/Users/renegeers/Source/p2p-ai-agents/src/application/mod.rs
FN:104,_RNCNvMNtCsazECCRb7Zym_13p2p_ai_agents11applicationNtB4_11Application10initialize0B6_
FN:300,_RNCNvMNtCsazECCRb7Zym_13p2p_ai_agents11applicationNtB4_11Application18get_network_config0B6_
FN:294,_RNCNvMNtCsazECCRb7Zym_13p2p_ai_agents11applicationNtB4_11Application18get_storage_policy0B6_
FN:283,_RNCNvMNtCsazECCRb7Zym_13p2p_ai_agents11applicationNtB4_11Application18initialize_network0B6_
FN:269,_RNCNvMNtCsazECCRb7Zym_13p2p_ai_agents11applicationNtB4_11Application18initialize_storage0B6_
FN:217,_RNCNvMNtCsazECCRb7Zym_13p2p_ai_agents11applicationNtB4_11Application18load_configuration0B6_
FN:233,_RNCNvMNtCsazECCRb7Zym_13p2p_ai_agents11applicationNtB4_11Application22register_core_services0B6_
FN:250,_RNCNvMNtCsazECCRb7Zym_13p2p_ai_agents11applicationNtB4_11Application25initialize_event_handlers0B6_
FN:161,_RNCNvMNtCsazECCRb7Zym_13p2p_ai_agents11applicationNtB4_11Application4stop0B6_
FN:133,_RNCNvMNtCsazECCRb7Zym_13p2p_ai_agents11applicationNtB4_11Application5start0B6_
FN:183,_RNCNvMNtCsazECCRb7Zym_13p2p_ai_agents11applicationNtB4_11Application5state0B6_
FN:211,_RNCNvMNtCsazECCRb7Zym_13p2p_ai_agents11applicationNtB4_11Application6agents0B6_
FN:204,_RNCNvMNtCsazECCRb7Zym_13p2p_ai_agents11applicationNtB4_11Application9add_agent0B6_
FN:365,_RNCNvXsi_NtCsazECCRb7Zym_13p2p_ai_agents11applicationNtB7_15EventBusServiceNtNtNtB9_4core8services7Service10initialize0B9_
FN:393,_RNCNvXsi_NtCsazECCRb7Zym_13p2p_ai_agents11applicationNtB7_15EventBusServiceNtNtNtB9_4core8services7Service14handle_request0B9_
FN:373,_RNCNvXsi_NtCsazECCRb7Zym_13p2p_ai_agents11applicationNtB7_15EventBusServiceNtNtNtB9_4core8services7Service4stop0B9_
FN:369,_RNCNvXsi_NtCsazECCRb7Zym_13p2p_ai_agents11applicationNtB7_15EventBusServiceNtNtNtB9_4core8services7Service5start0B9_
FN:381,_RNCNvXsi_NtCsazECCRb7Zym_13p2p_ai_agents11applicationNtB7_15EventBusServiceNtNtNtB9_4core8services7Service6health0B9_
FN:377,_RNCNvXsi_NtCsazECCRb7Zym_13p2p_ai_agents11applicationNtB7_15EventBusServiceNtNtNtB9_4core8services7Service6status0B9_
FN:430,_RNCNvXsj_NtCsazECCRb7Zym_13p2p_ai_agents11applicationNtB7_13ConfigServiceNtNtNtB9_4core8services7Service10initialize0B9_
FN:458,_RNCNvXsj_NtCsazECCRb7Zym_13p2p_ai_agents11applicationNtB7_13ConfigServiceNtNtNtB9_4core8services7Service14handle_request0B9_
FN:438,_RNCNvXsj_NtCsazECCRb7Zym_13p2p_ai_agents11applicationNtB7_13ConfigServiceNtNtNtB9_4core8services7Service4stop0B9_
FN:434,_RNCNvXsj_NtCsazECCRb7Zym_13p2p_ai_agents11applicationNtB7_13ConfigServiceNtNtNtB9_4core8services7Service5start0B9_
FN:446,_RNCNvXsj_NtCsazECCRb7Zym_13p2p_ai_agents11applicationNtB7_13ConfigServiceNtNtNtB9_4core8services7Service6health0B9_
FN:442,_RNCNvXsj_NtCsazECCRb7Zym_13p2p_ai_agents11applicationNtB7_13ConfigServiceNtNtNtB9_4core8services7Service6status0B9_
FN:484,_RNCNvXsl_NtCsazECCRb7Zym_13p2p_ai_agents11applicationNtB7_23ApplicationEventHandlerINtNtNtB9_4core6events12EventHandlerNtB1m_12AgentStartedE6handle0B9_
FN:496,_RNCNvXsm_NtCsazECCRb7Zym_13p2p_ai_agents11applicationNtB7_23ApplicationEventHandlerINtNtNtB9_4core6events12EventHandlerNtB1m_12AgentStoppedE6handle0B9_
FN:508,_RNCNvXsn_NtCsazECCRb7Zym_13p2p_ai_agents11applicationNtB7_23ApplicationEventHandlerINtNtNtB9_4core6events12EventHandlerNtB1m_13TaskCompletedE6handle0B9_
FN:520,_RNCNvXso_NtCsazECCRb7Zym_13p2p_ai_agents11applicationNtB7_23ApplicationEventHandlerINtNtNtB9_4core6events12EventHandlerNtB1m_10TaskFailedE6handle0B9_
FN:104,_RNvMNtCsazECCRb7Zym_13p2p_ai_agents11applicationNtB2_11Application10initialize
FN:199,_RNvMNtCsazECCRb7Zym_13p2p_ai_agents11applicationNtB2_11Application14config_manager
FN:194,_RNvMNtCsazECCRb7Zym_13p2p_ai_agents11applicationNtB2_11Application16service_registry
FN:300,_RNvMNtCsazECCRb7Zym_13p2p_ai_agents11applicationNtB2_11Application18get_network_config
FN:294,_RNvMNtCsazECCRb7Zym_13p2p_ai_agents11applicationNtB2_11Application18get_storage_policy
FN:283,_RNvMNtCsazECCRb7Zym_13p2p_ai_agents11applicationNtB2_11Application18initialize_network
FN:269,_RNvMNtCsazECCRb7Zym_13p2p_ai_agents11applicationNtB2_11Application18initialize_storage
FN:217,_RNvMNtCsazECCRb7Zym_13p2p_ai_agents11applicationNtB2_11Application18load_configuration
FN:233,_RNvMNtCsazECCRb7Zym_13p2p_ai_agents11applicationNtB2_11Application22register_core_services
FN:250,_RNvMNtCsazECCRb7Zym_13p2p_ai_agents11applicationNtB2_11Application25initialize_event_handlers
FN:90,_RNvMNtCsazECCRb7Zym_13p2p_ai_agents11applicationNtB2_11Application3new
FN:161,_RNvMNtCsazECCRb7Zym_13p2p_ai_agents11applicationNtB2_11Application4stop
FN:133,_RNvMNtCsazECCRb7Zym_13p2p_ai_agents11applicationNtB2_11Application5start
FN:183,_RNvMNtCsazECCRb7Zym_13p2p_ai_agents11applicationNtB2_11Application5state
FN:211,_RNvMNtCsazECCRb7Zym_13p2p_ai_agents11applicationNtB2_11Application6agents
FN:204,_RNvMNtCsazECCRb7Zym_13p2p_ai_agents11applicationNtB2_11Application9add_agent
FN:189,_RNvMNtCsazECCRb7Zym_13p2p_ai_agents11applicationNtB2_11Application9event_bus
FN:346,_RNvMs1_NtCsazECCRb7Zym_13p2p_ai_agents11applicationNtB5_15EventBusService3new
FN:411,_RNvMs2_NtCsazECCRb7Zym_13p2p_ai_agents11applicationNtB5_13ConfigService3new
FN:477,_RNvMs3_NtCsazECCRb7Zym_13p2p_ai_agents11applicationNtB5_23ApplicationEventHandler3new
FN:334,_RNvXs0_NtCsazECCRb7Zym_13p2p_ai_agents11applicationNtB5_11ApplicationNtNtCsaTRkahAGrLL_4core7default7Default7default
FN:319,_RNvXs_NtCsazECCRb7Zym_13p2p_ai_agents11applicationNtB4_11ApplicationNtNtCsaTRkahAGrLL_4core5clone5Clone5clone
FN:367,_RNvXsi_NtCsazECCRb7Zym_13p2p_ai_agents11applicationNtB5_15EventBusServiceNtNtNtB7_4core8services7Service10initialize
FN:401,_RNvXsi_NtCsazECCRb7Zym_13p2p_ai_agents11applicationNtB5_15EventBusServiceNtNtNtB7_4core8services7Service14handle_request
FN:353,_RNvXsi_NtCsazECCRb7Zym_13p2p_ai_agents11applicationNtB5_15EventBusServiceNtNtNtB7_4core8services7Service2id
FN:357,_RNvXsi_NtCsazECCRb7Zym_13p2p_ai_agents11applicationNtB5_15EventBusServiceNtNtNtB7_4core8services7Service4name
FN:375,_RNvXsi_NtCsazECCRb7Zym_13p2p_ai_agents11applicationNtB5_15EventBusServiceNtNtNtB7_4core8services7Service4stop
FN:371,_RNvXsi_NtCsazECCRb7Zym_13p2p_ai_agents11applicationNtB5_15EventBusServiceNtNtNtB7_4core8services7Service5start
FN:388,_RNvXsi_NtCsazECCRb7Zym_13p2p_ai_agents11applicationNtB5_15EventBusServiceNtNtNtB7_4core8services7Service6health
FN:379,_RNvXsi_NtCsazECCRb7Zym_13p2p_ai_agents11applicationNtB5_15EventBusServiceNtNtNtB7_4core8services7Service6status
FN:361,_RNvXsi_NtCsazECCRb7Zym_13p2p_ai_agents11applicationNtB5_15EventBusServiceNtNtNtB7_4core8services7Service7version
FN:432,_RNvXsj_NtCsazECCRb7Zym_13p2p_ai_agents11applicationNtB5_13ConfigServiceNtNtNtB7_4core8services7Service10initialize
FN:466,_RNvXsj_NtCsazECCRb7Zym_13p2p_ai_agents11applicationNtB5_13ConfigServiceNtNtNtB7_4core8services7Service14handle_request
FN:418,_RNvXsj_NtCsazECCRb7Zym_13p2p_ai_agents11applicationNtB5_13ConfigServiceNtNtNtB7_4core8services7Service2id
FN:422,_RNvXsj_NtCsazECCRb7Zym_13p2p_ai_agents11applicationNtB5_13ConfigServiceNtNtNtB7_4core8services7Service4name
FN:440,_RNvXsj_NtCsazECCRb7Zym_13p2p_ai_agents11applicationNtB5_13ConfigServiceNtNtNtB7_4core8services7Service4stop
FN:436,_RNvXsj_NtCsazECCRb7Zym_13p2p_ai_agents11applicationNtB5_13ConfigServiceNtNtNtB7_4core8services7Service5start
FN:453,_RNvXsj_NtCsazECCRb7Zym_13p2p_ai_agents11applicationNtB5_13ConfigServiceNtNtNtB7_4core8services7Service6health
FN:444,_RNvXsj_NtCsazECCRb7Zym_13p2p_ai_agents11applicationNtB5_13ConfigServiceNtNtNtB7_4core8services7Service6status
FN:426,_RNvXsj_NtCsazECCRb7Zym_13p2p_ai_agents11applicationNtB5_13ConfigServiceNtNtNtB7_4core8services7Service7version
FN:489,_RNvXsl_NtCsazECCRb7Zym_13p2p_ai_agents11applicationNtB5_23ApplicationEventHandlerINtNtNtB7_4core6events12EventHandlerNtB1k_12AgentStartedE4name
FN:487,_RNvXsl_NtCsazECCRb7Zym_13p2p_ai_agents11applicationNtB5_23ApplicationEventHandlerINtNtNtB7_4core6events12EventHandlerNtB1k_12AgentStartedE6handle
FN:501,_RNvXsm_NtCsazECCRb7Zym_13p2p_ai_agents11applicationNtB5_23ApplicationEventHandlerINtNtNtB7_4core6events12EventHandlerNtB1k_12AgentStoppedE4name
FN:499,_RNvXsm_NtCsazECCRb7Zym_13p2p_ai_agents11applicationNtB5_23ApplicationEventHandlerINtNtNtB7_4core6events12EventHandlerNtB1k_12AgentStoppedE6handle
FN:513,_RNvXsn_NtCsazECCRb7Zym_13p2p_ai_agents11applicationNtB5_23ApplicationEventHandlerINtNtNtB7_4core6events12EventHandlerNtB1k_13TaskCompletedE4name
FN:511,_RNvXsn_NtCsazECCRb7Zym_13p2p_ai_agents11applicationNtB5_23ApplicationEventHandlerINtNtNtB7_4core6events12EventHandlerNtB1k_13TaskCompletedE6handle
FN:525,_RNvXso_NtCsazECCRb7Zym_13p2p_ai_agents11applicationNtB5_23ApplicationEventHandlerINtNtNtB7_4core6events12EventHandlerNtB1k_10TaskFailedE4name
FN:523,_RNvXso_NtCsazECCRb7Zym_13p2p_ai_agents11applicationNtB5_23ApplicationEventHandlerINtNtNtB7_4core6events12EventHandlerNtB1k_10TaskFailedE6handle
FN:161,_RNCNvMNtCs4ZEr9HMJnjR_13p2p_ai_agents11applicationNtB4_11Application4stop0B6_
FN:133,_RNCNvMNtCs4ZEr9HMJnjR_13p2p_ai_agents11applicationNtB4_11Application5start0B6_
FN:211,_RNCNvMNtCs4ZEr9HMJnjR_13p2p_ai_agents11applicationNtB4_11Application6agents0B6_
FN:204,_RNCNvMNtCs4ZEr9HMJnjR_13p2p_ai_agents11applicationNtB4_11Application9add_agent0B6_
FN:199,_RNvMNtCs4ZEr9HMJnjR_13p2p_ai_agents11applicationNtB2_11Application14config_manager
FN:194,_RNvMNtCs4ZEr9HMJnjR_13p2p_ai_agents11applicationNtB2_11Application16service_registry
FN:161,_RNvMNtCs4ZEr9HMJnjR_13p2p_ai_agents11applicationNtB2_11Application4stop
FN:133,_RNvMNtCs4ZEr9HMJnjR_13p2p_ai_agents11applicationNtB2_11Application5start
FN:211,_RNvMNtCs4ZEr9HMJnjR_13p2p_ai_agents11applicationNtB2_11Application6agents
FN:204,_RNvMNtCs4ZEr9HMJnjR_13p2p_ai_agents11applicationNtB2_11Application9add_agent
FN:189,_RNvMNtCs4ZEr9HMJnjR_13p2p_ai_agents11applicationNtB2_11Application9event_bus
FN:334,_RNvXs0_NtCs4ZEr9HMJnjR_13p2p_ai_agents11applicationNtB5_11ApplicationNtNtCsaTRkahAGrLL_4core7default7Default7default
FN:535,_RNvNtNtCs4ZEr9HMJnjR_13p2p_ai_agents11application5testss_25test_application_creation
FN:541,_RNvNtNtCs4ZEr9HMJnjR_13p2p_ai_agents11application5testss_31test_application_initialization
FN:535,_RNCNvNtNtCs4ZEr9HMJnjR_13p2p_ai_agents11application5testss_25test_application_creation0B7_
FN:541,_RNCNvNtNtCs4ZEr9HMJnjR_13p2p_ai_agents11application5testss_31test_application_initialization0B7_
FN:104,_RNCNvMNtCs4ZEr9HMJnjR_13p2p_ai_agents11applicationNtB4_11Application10initialize0B6_
FN:300,_RNCNvMNtCs4ZEr9HMJnjR_13p2p_ai_agents11applicationNtB4_11Application18get_network_config0B6_
FN:294,_RNCNvMNtCs4ZEr9HMJnjR_13p2p_ai_agents11applicationNtB4_11Application18get_storage_policy0B6_
FN:283,_RNCNvMNtCs4ZEr9HMJnjR_13p2p_ai_agents11applicationNtB4_11Application18initialize_network0B6_
FN:269,_RNCNvMNtCs4ZEr9HMJnjR_13p2p_ai_agents11applicationNtB4_11Application18initialize_storage0B6_
FN:217,_RNCNvMNtCs4ZEr9HMJnjR_13p2p_ai_agents11applicationNtB4_11Application18load_configuration0B6_
FN:233,_RNCNvMNtCs4ZEr9HMJnjR_13p2p_ai_agents11applicationNtB4_11Application22register_core_services0B6_
FN:250,_RNCNvMNtCs4ZEr9HMJnjR_13p2p_ai_agents11applicationNtB4_11Application25initialize_event_handlers0B6_
FN:183,_RNCNvMNtCs4ZEr9HMJnjR_13p2p_ai_agents11applicationNtB4_11Application5state0B6_
FN:365,_RNCNvXsi_NtCs4ZEr9HMJnjR_13p2p_ai_agents11applicationNtB7_15EventBusServiceNtNtNtB9_4core8services7Service10initialize0B9_
FN:393,_RNCNvXsi_NtCs4ZEr9HMJnjR_13p2p_ai_agents11applicationNtB7_15EventBusServiceNtNtNtB9_4core8services7Service14handle_request0B9_
FN:373,_RNCNvXsi_NtCs4ZEr9HMJnjR_13p2p_ai_agents11applicationNtB7_15EventBusServiceNtNtNtB9_4core8services7Service4stop0B9_
FN:369,_RNCNvXsi_NtCs4ZEr9HMJnjR_13p2p_ai_agents11applicationNtB7_15EventBusServiceNtNtNtB9_4core8services7Service5start0B9_
FN:381,_RNCNvXsi_NtCs4ZEr9HMJnjR_13p2p_ai_agents11applicationNtB7_15EventBusServiceNtNtNtB9_4core8services7Service6health0B9_
FN:377,_RNCNvXsi_NtCs4ZEr9HMJnjR_13p2p_ai_agents11applicationNtB7_15EventBusServiceNtNtNtB9_4core8services7Service6status0B9_
FN:430,_RNCNvXsj_NtCs4ZEr9HMJnjR_13p2p_ai_agents11applicationNtB7_13ConfigServiceNtNtNtB9_4core8services7Service10initialize0B9_
FN:458,_RNCNvXsj_NtCs4ZEr9HMJnjR_13p2p_ai_agents11applicationNtB7_13ConfigServiceNtNtNtB9_4core8services7Service14handle_request0B9_
FN:438,_RNCNvXsj_NtCs4ZEr9HMJnjR_13p2p_ai_agents11applicationNtB7_13ConfigServiceNtNtNtB9_4core8services7Service4stop0B9_
FN:434,_RNCNvXsj_NtCs4ZEr9HMJnjR_13p2p_ai_agents11applicationNtB7_13ConfigServiceNtNtNtB9_4core8services7Service5start0B9_
FN:446,_RNCNvXsj_NtCs4ZEr9HMJnjR_13p2p_ai_agents11applicationNtB7_13ConfigServiceNtNtNtB9_4core8services7Service6health0B9_
FN:442,_RNCNvXsj_NtCs4ZEr9HMJnjR_13p2p_ai_agents11applicationNtB7_13ConfigServiceNtNtNtB9_4core8services7Service6status0B9_
FN:484,_RNCNvXsl_NtCs4ZEr9HMJnjR_13p2p_ai_agents11applicationNtB7_23ApplicationEventHandlerINtNtNtB9_4core6events12EventHandlerNtB1m_12AgentStartedE6handle0B9_
FN:496,_RNCNvXsm_NtCs4ZEr9HMJnjR_13p2p_ai_agents11applicationNtB7_23ApplicationEventHandlerINtNtNtB9_4core6events12EventHandlerNtB1m_12AgentStoppedE6handle0B9_
FN:508,_RNCNvXsn_NtCs4ZEr9HMJnjR_13p2p_ai_agents11applicationNtB7_23ApplicationEventHandlerINtNtNtB9_4core6events12EventHandlerNtB1m_13TaskCompletedE6handle0B9_
FN:520,_RNCNvXso_NtCs4ZEr9HMJnjR_13p2p_ai_agents11applicationNtB7_23ApplicationEventHandlerINtNtNtB9_4core6events12EventHandlerNtB1m_10TaskFailedE6handle0B9_
FN:104,_RNvMNtCs4ZEr9HMJnjR_13p2p_ai_agents11applicationNtB2_11Application10initialize
FN:300,_RNvMNtCs4ZEr9HMJnjR_13p2p_ai_agents11applicationNtB2_11Application18get_network_config
FN:294,_RNvMNtCs4ZEr9HMJnjR_13p2p_ai_agents11applicationNtB2_11Application18get_storage_policy
FN:283,_RNvMNtCs4ZEr9HMJnjR_13p2p_ai_agents11applicationNtB2_11Application18initialize_network
FN:269,_RNvMNtCs4ZEr9HMJnjR_13p2p_ai_agents11applicationNtB2_11Application18initialize_storage
FN:217,_RNvMNtCs4ZEr9HMJnjR_13p2p_ai_agents11applicationNtB2_11Application18load_configuration
FN:233,_RNvMNtCs4ZEr9HMJnjR_13p2p_ai_agents11applicationNtB2_11Application22register_core_services
FN:250,_RNvMNtCs4ZEr9HMJnjR_13p2p_ai_agents11applicationNtB2_11Application25initialize_event_handlers
FN:90,_RNvMNtCs4ZEr9HMJnjR_13p2p_ai_agents11applicationNtB2_11Application3new
FN:183,_RNvMNtCs4ZEr9HMJnjR_13p2p_ai_agents11applicationNtB2_11Application5state
FN:346,_RNvMs1_NtCs4ZEr9HMJnjR_13p2p_ai_agents11applicationNtB5_15EventBusService3new
FN:411,_RNvMs2_NtCs4ZEr9HMJnjR_13p2p_ai_agents11applicationNtB5_13ConfigService3new
FN:477,_RNvMs3_NtCs4ZEr9HMJnjR_13p2p_ai_agents11applicationNtB5_23ApplicationEventHandler3new
FN:319,_RNvXs_NtCs4ZEr9HMJnjR_13p2p_ai_agents11applicationNtB4_11ApplicationNtNtCsaTRkahAGrLL_4core5clone5Clone5clone
FN:367,_RNvXsi_NtCs4ZEr9HMJnjR_13p2p_ai_agents11applicationNtB5_15EventBusServiceNtNtNtB7_4core8services7Service10initialize
FN:401,_RNvXsi_NtCs4ZEr9HMJnjR_13p2p_ai_agents11applicationNtB5_15EventBusServiceNtNtNtB7_4core8services7Service14handle_request
FN:353,_RNvXsi_NtCs4ZEr9HMJnjR_13p2p_ai_agents11applicationNtB5_15EventBusServiceNtNtNtB7_4core8services7Service2id
FN:357,_RNvXsi_NtCs4ZEr9HMJnjR_13p2p_ai_agents11applicationNtB5_15EventBusServiceNtNtNtB7_4core8services7Service4name
FN:375,_RNvXsi_NtCs4ZEr9HMJnjR_13p2p_ai_agents11applicationNtB5_15EventBusServiceNtNtNtB7_4core8services7Service4stop
FN:371,_RNvXsi_NtCs4ZEr9HMJnjR_13p2p_ai_agents11applicationNtB5_15EventBusServiceNtNtNtB7_4core8services7Service5start
FN:388,_RNvXsi_NtCs4ZEr9HMJnjR_13p2p_ai_agents11applicationNtB5_15EventBusServiceNtNtNtB7_4core8services7Service6health
FN:379,_RNvXsi_NtCs4ZEr9HMJnjR_13p2p_ai_agents11applicationNtB5_15EventBusServiceNtNtNtB7_4core8services7Service6status
FN:361,_RNvXsi_NtCs4ZEr9HMJnjR_13p2p_ai_agents11applicationNtB5_15EventBusServiceNtNtNtB7_4core8services7Service7version
FN:432,_RNvXsj_NtCs4ZEr9HMJnjR_13p2p_ai_agents11applicationNtB5_13ConfigServiceNtNtNtB7_4core8services7Service10initialize
FN:466,_RNvXsj_NtCs4ZEr9HMJnjR_13p2p_ai_agents11applicationNtB5_13ConfigServiceNtNtNtB7_4core8services7Service14handle_request
FN:418,_RNvXsj_NtCs4ZEr9HMJnjR_13p2p_ai_agents11applicationNtB5_13ConfigServiceNtNtNtB7_4core8services7Service2id
FN:422,_RNvXsj_NtCs4ZEr9HMJnjR_13p2p_ai_agents11applicationNtB5_13ConfigServiceNtNtNtB7_4core8services7Service4name
FN:440,_RNvXsj_NtCs4ZEr9HMJnjR_13p2p_ai_agents11applicationNtB5_13ConfigServiceNtNtNtB7_4core8services7Service4stop
FN:436,_RNvXsj_NtCs4ZEr9HMJnjR_13p2p_ai_agents11applicationNtB5_13ConfigServiceNtNtNtB7_4core8services7Service5start
FN:453,_RNvXsj_NtCs4ZEr9HMJnjR_13p2p_ai_agents11applicationNtB5_13ConfigServiceNtNtNtB7_4core8services7Service6health
FN:444,_RNvXsj_NtCs4ZEr9HMJnjR_13p2p_ai_agents11applicationNtB5_13ConfigServiceNtNtNtB7_4core8services7Service6status
FN:426,_RNvXsj_NtCs4ZEr9HMJnjR_13p2p_ai_agents11applicationNtB5_13ConfigServiceNtNtNtB7_4core8services7Service7version
FN:489,_RNvXsl_NtCs4ZEr9HMJnjR_13p2p_ai_agents11applicationNtB5_23ApplicationEventHandlerINtNtNtB7_4core6events12EventHandlerNtB1k_12AgentStartedE4name
FN:487,_RNvXsl_NtCs4ZEr9HMJnjR_13p2p_ai_agents11applicationNtB5_23ApplicationEventHandlerINtNtNtB7_4core6events12EventHandlerNtB1k_12AgentStartedE6handle
FN:501,_RNvXsm_NtCs4ZEr9HMJnjR_13p2p_ai_agents11applicationNtB5_23ApplicationEventHandlerINtNtNtB7_4core6events12EventHandlerNtB1k_12AgentStoppedE4name
FN:499,_RNvXsm_NtCs4ZEr9HMJnjR_13p2p_ai_agents11applicationNtB5_23ApplicationEventHandlerINtNtNtB7_4core6events12EventHandlerNtB1k_12AgentStoppedE6handle
FN:513,_RNvXsn_NtCs4ZEr9HMJnjR_13p2p_ai_agents11applicationNtB5_23ApplicationEventHandlerINtNtNtB7_4core6events12EventHandlerNtB1k_13TaskCompletedE4name
FN:511,_RNvXsn_NtCs4ZEr9HMJnjR_13p2p_ai_agents11applicationNtB5_23ApplicationEventHandlerINtNtNtB7_4core6events12EventHandlerNtB1k_13TaskCompletedE6handle
FN:525,_RNvXso_NtCs4ZEr9HMJnjR_13p2p_ai_agents11applicationNtB5_23ApplicationEventHandlerINtNtNtB7_4core6events12EventHandlerNtB1k_10TaskFailedE4name
FN:523,_RNvXso_NtCs4ZEr9HMJnjR_13p2p_ai_agents11applicationNtB5_23ApplicationEventHandlerINtNtNtB7_4core6events12EventHandlerNtB1k_10TaskFailedE6handle
FNDA:0,_RNCNvMNtCsazECCRb7Zym_13p2p_ai_agents11applicationNtB4_11Application10initialize0B6_
FNDA:0,_RNCNvMNtCsazECCRb7Zym_13p2p_ai_agents11applicationNtB4_11Application18get_network_config0B6_
FNDA:0,_RNCNvMNtCsazECCRb7Zym_13p2p_ai_agents11applicationNtB4_11Application18get_storage_policy0B6_
FNDA:0,_RNCNvMNtCsazECCRb7Zym_13p2p_ai_agents11applicationNtB4_11Application18initialize_network0B6_
FNDA:0,_RNCNvMNtCsazECCRb7Zym_13p2p_ai_agents11applicationNtB4_11Application18initialize_storage0B6_
FNDA:0,_RNCNvMNtCsazECCRb7Zym_13p2p_ai_agents11applicationNtB4_11Application18load_configuration0B6_
FNDA:0,_RNCNvMNtCsazECCRb7Zym_13p2p_ai_agents11applicationNtB4_11Application22register_core_services0B6_
FNDA:0,_RNCNvMNtCsazECCRb7Zym_13p2p_ai_agents11applicationNtB4_11Application25initialize_event_handlers0B6_
FNDA:0,_RNCNvMNtCsazECCRb7Zym_13p2p_ai_agents11applicationNtB4_11Application4stop0B6_
FNDA:0,_RNCNvMNtCsazECCRb7Zym_13p2p_ai_agents11applicationNtB4_11Application5start0B6_
FNDA:0,_RNCNvMNtCsazECCRb7Zym_13p2p_ai_agents11applicationNtB4_11Application5state0B6_
FNDA:0,_RNCNvMNtCsazECCRb7Zym_13p2p_ai_agents11applicationNtB4_11Application6agents0B6_
FNDA:0,_RNCNvMNtCsazECCRb7Zym_13p2p_ai_agents11applicationNtB4_11Application9add_agent0B6_
FNDA:0,_RNCNvXsi_NtCsazECCRb7Zym_13p2p_ai_agents11applicationNtB7_15EventBusServiceNtNtNtB9_4core8services7Service10initialize0B9_
FNDA:0,_RNCNvXsi_NtCsazECCRb7Zym_13p2p_ai_agents11applicationNtB7_15EventBusServiceNtNtNtB9_4core8services7Service14handle_request0B9_
FNDA:0,_RNCNvXsi_NtCsazECCRb7Zym_13p2p_ai_agents11applicationNtB7_15EventBusServiceNtNtNtB9_4core8services7Service4stop0B9_
FNDA:0,_RNCNvXsi_NtCsazECCRb7Zym_13p2p_ai_agents11applicationNtB7_15EventBusServiceNtNtNtB9_4core8services7Service5start0B9_
FNDA:0,_RNCNvXsi_NtCsazECCRb7Zym_13p2p_ai_agents11applicationNtB7_15EventBusServiceNtNtNtB9_4core8services7Service6health0B9_
FNDA:0,_RNCNvXsi_NtCsazECCRb7Zym_13p2p_ai_agents11applicationNtB7_15EventBusServiceNtNtNtB9_4core8services7Service6status0B9_
FNDA:0,_RNCNvXsj_NtCsazECCRb7Zym_13p2p_ai_agents11applicationNtB7_13ConfigServiceNtNtNtB9_4core8services7Service10initialize0B9_
FNDA:0,_RNCNvXsj_NtCsazECCRb7Zym_13p2p_ai_agents11applicationNtB7_13ConfigServiceNtNtNtB9_4core8services7Service14handle_request0B9_
FNDA:0,_RNCNvXsj_NtCsazECCRb7Zym_13p2p_ai_agents11applicationNtB7_13ConfigServiceNtNtNtB9_4core8services7Service4stop0B9_
FNDA:0,_RNCNvXsj_NtCsazECCRb7Zym_13p2p_ai_agents11applicationNtB7_13ConfigServiceNtNtNtB9_4core8services7Service5start0B9_
FNDA:0,_RNCNvXsj_NtCsazECCRb7Zym_13p2p_ai_agents11applicationNtB7_13ConfigServiceNtNtNtB9_4core8services7Service6health0B9_
FNDA:0,_RNCNvXsj_NtCsazECCRb7Zym_13p2p_ai_agents11applicationNtB7_13ConfigServiceNtNtNtB9_4core8services7Service6status0B9_
FNDA:0,_RNCNvXsl_NtCsazECCRb7Zym_13p2p_ai_agents11applicationNtB7_23ApplicationEventHandlerINtNtNtB9_4core6events12EventHandlerNtB1m_12AgentStartedE6handle0B9_
FNDA:0,_RNCNvXsm_NtCsazECCRb7Zym_13p2p_ai_agents11applicationNtB7_23ApplicationEventHandlerINtNtNtB9_4core6events12EventHandlerNtB1m_12AgentStoppedE6handle0B9_
FNDA:0,_RNCNvXsn_NtCsazECCRb7Zym_13p2p_ai_agents11applicationNtB7_23ApplicationEventHandlerINtNtNtB9_4core6events12EventHandlerNtB1m_13TaskCompletedE6handle0B9_
FNDA:0,_RNCNvXso_NtCsazECCRb7Zym_13p2p_ai_agents11applicationNtB7_23ApplicationEventHandlerINtNtNtB9_4core6events12EventHandlerNtB1m_10TaskFailedE6handle0B9_
FNDA:0,_RNvMNtCsazECCRb7Zym_13p2p_ai_agents11applicationNtB2_11Application10initialize
FNDA:0,_RNvMNtCsazECCRb7Zym_13p2p_ai_agents11applicationNtB2_11Application14config_manager
FNDA:0,_RNvMNtCsazECCRb7Zym_13p2p_ai_agents11applicationNtB2_11Application16service_registry
FNDA:0,_RNvMNtCsazECCRb7Zym_13p2p_ai_agents11applicationNtB2_11Application18get_network_config
FNDA:0,_RNvMNtCsazECCRb7Zym_13p2p_ai_agents11applicationNtB2_11Application18get_storage_policy
FNDA:0,_RNvMNtCsazECCRb7Zym_13p2p_ai_agents11applicationNtB2_11Application18initialize_network
FNDA:0,_RNvMNtCsazECCRb7Zym_13p2p_ai_agents11applicationNtB2_11Application18initialize_storage
FNDA:0,_RNvMNtCsazECCRb7Zym_13p2p_ai_agents11applicationNtB2_11Application18load_configuration
FNDA:0,_RNvMNtCsazECCRb7Zym_13p2p_ai_agents11applicationNtB2_11Application22register_core_services
FNDA:0,_RNvMNtCsazECCRb7Zym_13p2p_ai_agents11applicationNtB2_11Application25initialize_event_handlers
FNDA:3,_RNvMNtCsazECCRb7Zym_13p2p_ai_agents11applicationNtB2_11Application3new
FNDA:0,_RNvMNtCsazECCRb7Zym_13p2p_ai_agents11applicationNtB2_11Application4stop
FNDA:0,_RNvMNtCsazECCRb7Zym_13p2p_ai_agents11applicationNtB2_11Application5start
FNDA:0,_RNvMNtCsazECCRb7Zym_13p2p_ai_agents11applicationNtB2_11Application5state
FNDA:0,_RNvMNtCsazECCRb7Zym_13p2p_ai_agents11applicationNtB2_11Application6agents
FNDA:0,_RNvMNtCsazECCRb7Zym_13p2p_ai_agents11applicationNtB2_11Application9add_agent
FNDA:0,_RNvMNtCsazECCRb7Zym_13p2p_ai_agents11applicationNtB2_11Application9event_bus
FNDA:0,_RNvMs1_NtCsazECCRb7Zym_13p2p_ai_agents11applicationNtB5_15EventBusService3new
FNDA:0,_RNvMs2_NtCsazECCRb7Zym_13p2p_ai_agents11applicationNtB5_13ConfigService3new
FNDA:0,_RNvMs3_NtCsazECCRb7Zym_13p2p_ai_agents11applicationNtB5_23ApplicationEventHandler3new
FNDA:0,_RNvXs0_NtCsazECCRb7Zym_13p2p_ai_agents11applicationNtB5_11ApplicationNtNtCsaTRkahAGrLL_4core7default7Default7default
FNDA:3,_RNvXs_NtCsazECCRb7Zym_13p2p_ai_agents11applicationNtB4_11ApplicationNtNtCsaTRkahAGrLL_4core5clone5Clone5clone
FNDA:0,_RNvXsi_NtCsazECCRb7Zym_13p2p_ai_agents11applicationNtB5_15EventBusServiceNtNtNtB7_4core8services7Service10initialize
FNDA:0,_RNvXsi_NtCsazECCRb7Zym_13p2p_ai_agents11applicationNtB5_15EventBusServiceNtNtNtB7_4core8services7Service14handle_request
FNDA:0,_RNvXsi_NtCsazECCRb7Zym_13p2p_ai_agents11applicationNtB5_15EventBusServiceNtNtNtB7_4core8services7Service2id
FNDA:0,_RNvXsi_NtCsazECCRb7Zym_13p2p_ai_agents11applicationNtB5_15EventBusServiceNtNtNtB7_4core8services7Service4name
FNDA:0,_RNvXsi_NtCsazECCRb7Zym_13p2p_ai_agents11applicationNtB5_15EventBusServiceNtNtNtB7_4core8services7Service4stop
FNDA:0,_RNvXsi_NtCsazECCRb7Zym_13p2p_ai_agents11applicationNtB5_15EventBusServiceNtNtNtB7_4core8services7Service5start
FNDA:0,_RNvXsi_NtCsazECCRb7Zym_13p2p_ai_agents11applicationNtB5_15EventBusServiceNtNtNtB7_4core8services7Service6health
FNDA:0,_RNvXsi_NtCsazECCRb7Zym_13p2p_ai_agents11applicationNtB5_15EventBusServiceNtNtNtB7_4core8services7Service6status
FNDA:0,_RNvXsi_NtCsazECCRb7Zym_13p2p_ai_agents11applicationNtB5_15EventBusServiceNtNtNtB7_4core8services7Service7version
FNDA:0,_RNvXsj_NtCsazECCRb7Zym_13p2p_ai_agents11applicationNtB5_13ConfigServiceNtNtNtB7_4core8services7Service10initialize
FNDA:0,_RNvXsj_NtCsazECCRb7Zym_13p2p_ai_agents11applicationNtB5_13ConfigServiceNtNtNtB7_4core8services7Service14handle_request
FNDA:0,_RNvXsj_NtCsazECCRb7Zym_13p2p_ai_agents11applicationNtB5_13ConfigServiceNtNtNtB7_4core8services7Service2id
FNDA:0,_RNvXsj_NtCsazECCRb7Zym_13p2p_ai_agents11applicationNtB5_13ConfigServiceNtNtNtB7_4core8services7Service4name
FNDA:0,_RNvXsj_NtCsazECCRb7Zym_13p2p_ai_agents11applicationNtB5_13ConfigServiceNtNtNtB7_4core8services7Service4stop
FNDA:0,_RNvXsj_NtCsazECCRb7Zym_13p2p_ai_agents11applicationNtB5_13ConfigServiceNtNtNtB7_4core8services7Service5start
FNDA:0,_RNvXsj_NtCsazECCRb7Zym_13p2p_ai_agents11applicationNtB5_13ConfigServiceNtNtNtB7_4core8services7Service6health
FNDA:0,_RNvXsj_NtCsazECCRb7Zym_13p2p_ai_agents11applicationNtB5_13ConfigServiceNtNtNtB7_4core8services7Service6status
FNDA:0,_RNvXsj_NtCsazECCRb7Zym_13p2p_ai_agents11applicationNtB5_13ConfigServiceNtNtNtB7_4core8services7Service7version
FNDA:0,_RNvXsl_NtCsazECCRb7Zym_13p2p_ai_agents11applicationNtB5_23ApplicationEventHandlerINtNtNtB7_4core6events12EventHandlerNtB1k_12AgentStartedE4name
FNDA:0,_RNvXsl_NtCsazECCRb7Zym_13p2p_ai_agents11applicationNtB5_23ApplicationEventHandlerINtNtNtB7_4core6events12EventHandlerNtB1k_12AgentStartedE6handle
FNDA:0,_RNvXsm_NtCsazECCRb7Zym_13p2p_ai_agents11applicationNtB5_23ApplicationEventHandlerINtNtNtB7_4core6events12EventHandlerNtB1k_12AgentStoppedE4name
FNDA:0,_RNvXsm_NtCsazECCRb7Zym_13p2p_ai_agents11applicationNtB5_23ApplicationEventHandlerINtNtNtB7_4core6events12EventHandlerNtB1k_12AgentStoppedE6handle
FNDA:0,_RNvXsn_NtCsazECCRb7Zym_13p2p_ai_agents11applicationNtB5_23ApplicationEventHandlerINtNtNtB7_4core6events12EventHandlerNtB1k_13TaskCompletedE4name
FNDA:0,_RNvXsn_NtCsazECCRb7Zym_13p2p_ai_agents11applicationNtB5_23ApplicationEventHandlerINtNtNtB7_4core6events12EventHandlerNtB1k_13TaskCompletedE6handle
FNDA:0,_RNvXso_NtCsazECCRb7Zym_13p2p_ai_agents11applicationNtB5_23ApplicationEventHandlerINtNtNtB7_4core6events12EventHandlerNtB1k_10TaskFailedE4name
FNDA:0,_RNvXso_NtCsazECCRb7Zym_13p2p_ai_agents11applicationNtB5_23ApplicationEventHandlerINtNtNtB7_4core6events12EventHandlerNtB1k_10TaskFailedE6handle
FNDA:0,_RNCNvMNtCs4ZEr9HMJnjR_13p2p_ai_agents11applicationNtB4_11Application4stop0B6_
FNDA:0,_RNCNvMNtCs4ZEr9HMJnjR_13p2p_ai_agents11applicationNtB4_11Application5start0B6_
FNDA:0,_RNCNvMNtCs4ZEr9HMJnjR_13p2p_ai_agents11applicationNtB4_11Application6agents0B6_
FNDA:0,_RNCNvMNtCs4ZEr9HMJnjR_13p2p_ai_agents11applicationNtB4_11Application9add_agent0B6_
FNDA:0,_RNvMNtCs4ZEr9HMJnjR_13p2p_ai_agents11applicationNtB2_11Application14config_manager
FNDA:0,_RNvMNtCs4ZEr9HMJnjR_13p2p_ai_agents11applicationNtB2_11Application16service_registry
FNDA:0,_RNvMNtCs4ZEr9HMJnjR_13p2p_ai_agents11applicationNtB2_11Application4stop
FNDA:0,_RNvMNtCs4ZEr9HMJnjR_13p2p_ai_agents11applicationNtB2_11Application5start
FNDA:0,_RNvMNtCs4ZEr9HMJnjR_13p2p_ai_agents11applicationNtB2_11Application6agents
FNDA:0,_RNvMNtCs4ZEr9HMJnjR_13p2p_ai_agents11applicationNtB2_11Application9add_agent
FNDA:0,_RNvMNtCs4ZEr9HMJnjR_13p2p_ai_agents11applicationNtB2_11Application9event_bus
FNDA:0,_RNvXs0_NtCs4ZEr9HMJnjR_13p2p_ai_agents11applicationNtB5_11ApplicationNtNtCsaTRkahAGrLL_4core7default7Default7default
FNDA:1,_RNvNtNtCs4ZEr9HMJnjR_13p2p_ai_agents11application5testss_25test_application_creation
FNDA:1,_RNvNtNtCs4ZEr9HMJnjR_13p2p_ai_agents11application5testss_31test_application_initialization
FNDA:1,_RNCNvNtNtCs4ZEr9HMJnjR_13p2p_ai_agents11application5testss_25test_application_creation0B7_
FNDA:1,_RNCNvNtNtCs4ZEr9HMJnjR_13p2p_ai_agents11application5testss_31test_application_initialization0B7_
FNDA:1,_RNCNvMNtCs4ZEr9HMJnjR_13p2p_ai_agents11applicationNtB4_11Application10initialize0B6_
FNDA:1,_RNCNvMNtCs4ZEr9HMJnjR_13p2p_ai_agents11applicationNtB4_11Application18get_network_config0B6_
FNDA:1,_RNCNvMNtCs4ZEr9HMJnjR_13p2p_ai_agents11applicationNtB4_11Application18get_storage_policy0B6_
FNDA:1,_RNCNvMNtCs4ZEr9HMJnjR_13p2p_ai_agents11applicationNtB4_11Application18initialize_network0B6_
FNDA:1,_RNCNvMNtCs4ZEr9HMJnjR_13p2p_ai_agents11applicationNtB4_11Application18initialize_storage0B6_
FNDA:1,_RNCNvMNtCs4ZEr9HMJnjR_13p2p_ai_agents11applicationNtB4_11Application18load_configuration0B6_
FNDA:1,_RNCNvMNtCs4ZEr9HMJnjR_13p2p_ai_agents11applicationNtB4_11Application22register_core_services0B6_
FNDA:1,_RNCNvMNtCs4ZEr9HMJnjR_13p2p_ai_agents11applicationNtB4_11Application25initialize_event_handlers0B6_
FNDA:2,_RNCNvMNtCs4ZEr9HMJnjR_13p2p_ai_agents11applicationNtB4_11Application5state0B6_
FNDA:0,_RNCNvXsi_NtCs4ZEr9HMJnjR_13p2p_ai_agents11applicationNtB7_15EventBusServiceNtNtNtB9_4core8services7Service10initialize0B9_
FNDA:0,_RNCNvXsi_NtCs4ZEr9HMJnjR_13p2p_ai_agents11applicationNtB7_15EventBusServiceNtNtNtB9_4core8services7Service14handle_request0B9_
FNDA:0,_RNCNvXsi_NtCs4ZEr9HMJnjR_13p2p_ai_agents11applicationNtB7_15EventBusServiceNtNtNtB9_4core8services7Service4stop0B9_
FNDA:0,_RNCNvXsi_NtCs4ZEr9HMJnjR_13p2p_ai_agents11applicationNtB7_15EventBusServiceNtNtNtB9_4core8services7Service5start0B9_
FNDA:0,_RNCNvXsi_NtCs4ZEr9HMJnjR_13p2p_ai_agents11applicationNtB7_15EventBusServiceNtNtNtB9_4core8services7Service6health0B9_
FNDA:0,_RNCNvXsi_NtCs4ZEr9HMJnjR_13p2p_ai_agents11applicationNtB7_15EventBusServiceNtNtNtB9_4core8services7Service6status0B9_
FNDA:0,_RNCNvXsj_NtCs4ZEr9HMJnjR_13p2p_ai_agents11applicationNtB7_13ConfigServiceNtNtNtB9_4core8services7Service10initialize0B9_
FNDA:0,_RNCNvXsj_NtCs4ZEr9HMJnjR_13p2p_ai_agents11applicationNtB7_13ConfigServiceNtNtNtB9_4core8services7Service14handle_request0B9_
FNDA:0,_RNCNvXsj_NtCs4ZEr9HMJnjR_13p2p_ai_agents11applicationNtB7_13ConfigServiceNtNtNtB9_4core8services7Service4stop0B9_
FNDA:0,_RNCNvXsj_NtCs4ZEr9HMJnjR_13p2p_ai_agents11applicationNtB7_13ConfigServiceNtNtNtB9_4core8services7Service5start0B9_
FNDA:0,_RNCNvXsj_NtCs4ZEr9HMJnjR_13p2p_ai_agents11applicationNtB7_13ConfigServiceNtNtNtB9_4core8services7Service6health0B9_
FNDA:0,_RNCNvXsj_NtCs4ZEr9HMJnjR_13p2p_ai_agents11applicationNtB7_13ConfigServiceNtNtNtB9_4core8services7Service6status0B9_
FNDA:0,_RNCNvXsl_NtCs4ZEr9HMJnjR_13p2p_ai_agents11applicationNtB7_23ApplicationEventHandlerINtNtNtB9_4core6events12EventHandlerNtB1m_12AgentStartedE6handle0B9_
FNDA:0,_RNCNvXsm_NtCs4ZEr9HMJnjR_13p2p_ai_agents11applicationNtB7_23ApplicationEventHandlerINtNtNtB9_4core6events12EventHandlerNtB1m_12AgentStoppedE6handle0B9_
FNDA:0,_RNCNvXsn_NtCs4ZEr9HMJnjR_13p2p_ai_agents11applicationNtB7_23ApplicationEventHandlerINtNtNtB9_4core6events12EventHandlerNtB1m_13TaskCompletedE6handle0B9_
FNDA:0,_RNCNvXso_NtCs4ZEr9HMJnjR_13p2p_ai_agents11applicationNtB7_23ApplicationEventHandlerINtNtNtB9_4core6events12EventHandlerNtB1m_10TaskFailedE6handle0B9_
FNDA:1,_RNvMNtCs4ZEr9HMJnjR_13p2p_ai_agents11applicationNtB2_11Application10initialize
FNDA:1,_RNvMNtCs4ZEr9HMJnjR_13p2p_ai_agents11applicationNtB2_11Application18get_network_config
FNDA:1,_RNvMNtCs4ZEr9HMJnjR_13p2p_ai_agents11applicationNtB2_11Application18get_storage_policy
FNDA:1,_RNvMNtCs4ZEr9HMJnjR_13p2p_ai_agents11applicationNtB2_11Application18initialize_network
FNDA:1,_RNvMNtCs4ZEr9HMJnjR_13p2p_ai_agents11applicationNtB2_11Application18initialize_storage
FNDA:1,_RNvMNtCs4ZEr9HMJnjR_13p2p_ai_agents11applicationNtB2_11Application18load_configuration
FNDA:1,_RNvMNtCs4ZEr9HMJnjR_13p2p_ai_agents11applicationNtB2_11Application22register_core_services
FNDA:1,_RNvMNtCs4ZEr9HMJnjR_13p2p_ai_agents11applicationNtB2_11Application25initialize_event_handlers
FNDA:4,_RNvMNtCs4ZEr9HMJnjR_13p2p_ai_agents11applicationNtB2_11Application3new
FNDA:2,_RNvMNtCs4ZEr9HMJnjR_13p2p_ai_agents11applicationNtB2_11Application5state
FNDA:1,_RNvMs1_NtCs4ZEr9HMJnjR_13p2p_ai_agents11applicationNtB5_15EventBusService3new
FNDA:1,_RNvMs2_NtCs4ZEr9HMJnjR_13p2p_ai_agents11applicationNtB5_13ConfigService3new
FNDA:1,_RNvMs3_NtCs4ZEr9HMJnjR_13p2p_ai_agents11applicationNtB5_23ApplicationEventHandler3new
FNDA:4,_RNvXs_NtCs4ZEr9HMJnjR_13p2p_ai_agents11applicationNtB4_11ApplicationNtNtCsaTRkahAGrLL_4core5clone5Clone5clone
FNDA:0,_RNvXsi_NtCs4ZEr9HMJnjR_13p2p_ai_agents11applicationNtB5_15EventBusServiceNtNtNtB7_4core8services7Service10initialize
FNDA:0,_RNvXsi_NtCs4ZEr9HMJnjR_13p2p_ai_agents11applicationNtB5_15EventBusServiceNtNtNtB7_4core8services7Service14handle_request
FNDA:1,_RNvXsi_NtCs4ZEr9HMJnjR_13p2p_ai_agents11applicationNtB5_15EventBusServiceNtNtNtB7_4core8services7Service2id
FNDA:1,_RNvXsi_NtCs4ZEr9HMJnjR_13p2p_ai_agents11applicationNtB5_15EventBusServiceNtNtNtB7_4core8services7Service4name
FNDA:0,_RNvXsi_NtCs4ZEr9HMJnjR_13p2p_ai_agents11applicationNtB5_15EventBusServiceNtNtNtB7_4core8services7Service4stop
FNDA:0,_RNvXsi_NtCs4ZEr9HMJnjR_13p2p_ai_agents11applicationNtB5_15EventBusServiceNtNtNtB7_4core8services7Service5start
FNDA:0,_RNvXsi_NtCs4ZEr9HMJnjR_13p2p_ai_agents11applicationNtB5_15EventBusServiceNtNtNtB7_4core8services7Service6health
FNDA:0,_RNvXsi_NtCs4ZEr9HMJnjR_13p2p_ai_agents11applicationNtB5_15EventBusServiceNtNtNtB7_4core8services7Service6status
FNDA:0,_RNvXsi_NtCs4ZEr9HMJnjR_13p2p_ai_agents11applicationNtB5_15EventBusServiceNtNtNtB7_4core8services7Service7version
FNDA:0,_RNvXsj_NtCs4ZEr9HMJnjR_13p2p_ai_agents11applicationNtB5_13ConfigServiceNtNtNtB7_4core8services7Service10initialize
FNDA:0,_RNvXsj_NtCs4ZEr9HMJnjR_13p2p_ai_agents11applicationNtB5_13ConfigServiceNtNtNtB7_4core8services7Service14handle_request
FNDA:1,_RNvXsj_NtCs4ZEr9HMJnjR_13p2p_ai_agents11applicationNtB5_13ConfigServiceNtNtNtB7_4core8services7Service2id
FNDA:1,_RNvXsj_NtCs4ZEr9HMJnjR_13p2p_ai_agents11applicationNtB5_13ConfigServiceNtNtNtB7_4core8services7Service4name
FNDA:0,_RNvXsj_NtCs4ZEr9HMJnjR_13p2p_ai_agents11applicationNtB5_13ConfigServiceNtNtNtB7_4core8services7Service4stop
FNDA:0,_RNvXsj_NtCs4ZEr9HMJnjR_13p2p_ai_agents11applicationNtB5_13ConfigServiceNtNtNtB7_4core8services7Service5start
FNDA:0,_RNvXsj_NtCs4ZEr9HMJnjR_13p2p_ai_agents11applicationNtB5_13ConfigServiceNtNtNtB7_4core8services7Service6health
FNDA:0,_RNvXsj_NtCs4ZEr9HMJnjR_13p2p_ai_agents11applicationNtB5_13ConfigServiceNtNtNtB7_4core8services7Service6status
FNDA:0,_RNvXsj_NtCs4ZEr9HMJnjR_13p2p_ai_agents11applicationNtB5_13ConfigServiceNtNtNtB7_4core8services7Service7version
FNDA:0,_RNvXsl_NtCs4ZEr9HMJnjR_13p2p_ai_agents11applicationNtB5_23ApplicationEventHandlerINtNtNtB7_4core6events12EventHandlerNtB1k_12AgentStartedE4name
FNDA:0,_RNvXsl_NtCs4ZEr9HMJnjR_13p2p_ai_agents11applicationNtB5_23ApplicationEventHandlerINtNtNtB7_4core6events12EventHandlerNtB1k_12AgentStartedE6handle
FNDA:0,_RNvXsm_NtCs4ZEr9HMJnjR_13p2p_ai_agents11applicationNtB5_23ApplicationEventHandlerINtNtNtB7_4core6events12EventHandlerNtB1k_12AgentStoppedE4name
FNDA:0,_RNvXsm_NtCs4ZEr9HMJnjR_13p2p_ai_agents11applicationNtB5_23ApplicationEventHandlerINtNtNtB7_4core6events12EventHandlerNtB1k_12AgentStoppedE6handle
FNDA:0,_RNvXsn_NtCs4ZEr9HMJnjR_13p2p_ai_agents11applicationNtB5_23ApplicationEventHandlerINtNtNtB7_4core6events12EventHandlerNtB1k_13TaskCompletedE4name
FNDA:0,_RNvXsn_NtCs4ZEr9HMJnjR_13p2p_ai_agents11applicationNtB5_23ApplicationEventHandlerINtNtNtB7_4core6events12EventHandlerNtB1k_13TaskCompletedE6handle
FNDA:0,_RNvXso_NtCs4ZEr9HMJnjR_13p2p_ai_agents11applicationNtB5_23ApplicationEventHandlerINtNtNtB7_4core6events12EventHandlerNtB1k_10TaskFailedE4name
FNDA:0,_RNvXso_NtCs4ZEr9HMJnjR_13p2p_ai_agents11applicationNtB5_23ApplicationEventHandlerINtNtNtB7_4core6events12EventHandlerNtB1k_10TaskFailedE6handle
FNF:81
FNH:31
DA:90,7
DA:91,7
DA:92,7
DA:93,7
DA:94,7
DA:95,7
DA:96,7
DA:97,7
DA:98,7
DA:99,7
DA:100,7
DA:101,7
DA:104,1
DA:106,1
DA:107,1
DA:108,1
DA:109,1
DA:110,1
DA:111,1
DA:114,1
DA:117,1
DA:120,1
DA:123,1
DA:126,1
DA:127,1
DA:128,1
DA:129,1
DA:130,1
DA:133,0
DA:134,0
DA:135,0
DA:136,0
DA:137,0
DA:138,0
DA:139,0
DA:140,0
DA:141,0
DA:142,0
DA:143,0
DA:146,0
DA:147,0
DA:148,0
DA:149,0
DA:152,0
DA:153,0
DA:154,0
DA:157,0
DA:158,0
DA:161,0
DA:162,0
DA:163,0
DA:166,0
DA:167,0
DA:168,0
DA:169,0
DA:170,0
DA:174,0
DA:175,0
DA:176,0
DA:178,0
DA:179,0
DA:180,0
DA:183,2
DA:184,2
DA:185,2
DA:186,2
DA:189,0
DA:190,0
DA:191,0
DA:194,0
DA:195,0
DA:196,0
DA:199,0
DA:200,0
DA:201,0
DA:204,0
DA:205,0
DA:206,0
DA:207,0
DA:208,0
DA:211,0
DA:212,0
DA:213,0
DA:214,0
DA:217,1
DA:218,1
DA:219,1
DA:222,1
DA:223,1
DA:224,0
DA:227,1
DA:229,1
DA:230,1
DA:233,1
DA:234,1
DA:235,1
DA:236,1
DA:237,1
DA:238,1
DA:241,1
DA:242,1
DA:243,1
DA:244,1
DA:246,1
DA:247,1
DA:250,1
DA:251,1
DA:252,1
DA:253,1
DA:254,1
DA:255,1
DA:256,1
DA:257,1
DA:258,1
DA:259,1
DA:260,1
DA:261,1
DA:262,1
DA:263,1
DA:265,1
DA:266,1
DA:269,1
DA:270,1
DA:273,1
DA:274,1
DA:276,1
DA:277,1
DA:278,1
DA:279,1
DA:280,1
DA:283,1
DA:284,1
DA:285,1
DA:287,1
DA:288,1
DA:289,1
DA:290,1
DA:291,1
DA:294,1
DA:295,1
DA:296,1
DA:297,1
DA:300,1
DA:301,1
DA:302,1
DA:303,1
DA:304,1
DA:305,1
DA:306,1
DA:307,1
DA:308,1
DA:309,1
DA:310,1
DA:311,1
DA:312,1
DA:313,1
DA:314,1
DA:315,1
DA:319,7
DA:320,7
DA:321,7
DA:322,7
DA:323,7
DA:324,7
DA:325,7
DA:326,7
DA:327,7
DA:328,7
DA:329,7
DA:330,7
DA:334,0
DA:335,0
DA:336,0
DA:346,1
DA:347,1
DA:348,1
DA:353,1
DA:354,1
DA:355,1
DA:357,1
DA:358,1
DA:359,1
DA:361,0
DA:362,0
DA:363,0
DA:365,0
DA:366,0
DA:367,0
DA:369,0
DA:370,0
DA:371,0
DA:373,0
DA:374,0
DA:375,0
DA:377,0
DA:378,0
DA:379,0
DA:381,0
DA:382,0
DA:383,0
DA:384,0
DA:385,0
DA:386,0
DA:387,0
DA:388,0
DA:393,0
DA:394,0
DA:395,0
DA:396,0
DA:397,0
DA:398,0
DA:399,0
DA:400,0
DA:401,0
DA:411,1
DA:412,1
DA:413,1
DA:418,1
DA:419,1
DA:420,1
DA:422,1
DA:423,1
DA:424,1
DA:426,0
DA:427,0
DA:428,0
DA:430,0
DA:431,0
DA:432,0
DA:434,0
DA:435,0
DA:436,0
DA:438,0
DA:439,0
DA:440,0
DA:442,0
DA:443,0
DA:444,0
DA:446,0
DA:447,0
DA:448,0
DA:449,0
DA:450,0
DA:451,0
DA:452,0
DA:453,0
DA:458,0
DA:459,0
DA:460,0
DA:461,0
DA:462,0
DA:463,0
DA:464,0
DA:465,0
DA:466,0
DA:477,1
DA:478,1
DA:479,1
DA:484,0
DA:485,0
DA:486,0
DA:487,0
DA:489,0
DA:490,0
DA:491,0
DA:496,0
DA:497,0
DA:498,0
DA:499,0
DA:501,0
DA:502,0
DA:503,0
DA:508,0
DA:509,0
DA:510,0
DA:511,0
DA:513,0
DA:514,0
DA:515,0
DA:520,0
DA:521,0
DA:522,0
DA:523,0
DA:525,0
DA:526,0
DA:527,0
DA:535,1
DA:536,1
DA:537,1
DA:538,1
DA:541,1
DA:542,1
DA:543,1
DA:544,1
DA:545,1
DA:546,1
BRF:0
BRH:0
LF:333
LH:165
end_of_record
SF:/Users/renegeers/Source/p2p-ai-agents/src/core/access_control.rs
FN:293,_RNCNCNvMs2_NtNtCsazECCRb7Zym_13p2p_ai_agents4core14access_controlNtB9_20AccessControlManager10is_allowed00Bd_
FN:255,_RNCNvMs2_NtNtCsazECCRb7Zym_13p2p_ai_agents4core14access_controlNtB7_20AccessControlManager10add_policy0Bb_
FN:289,_RNCNvMs2_NtNtCsazECCRb7Zym_13p2p_ai_agents4core14access_controlNtB7_20AccessControlManager10is_allowed0Bb_
FN:265,_RNCNvMs2_NtNtCsazECCRb7Zym_13p2p_ai_agents4core14access_controlNtB7_20AccessControlManager12authenticate0Bb_
FN:231,_RNCNvMs2_NtNtCsazECCRb7Zym_13p2p_ai_agents4core14access_controlNtB7_20AccessControlManager13add_principal0Bb_
FN:237,_RNCNvMs2_NtNtCsazECCRb7Zym_13p2p_ai_agents4core14access_controlNtB7_20AccessControlManager13get_principal0Bb_
FN:243,_RNCNvMs2_NtNtCsazECCRb7Zym_13p2p_ai_agents4core14access_controlNtB7_20AccessControlManager8add_role0Bb_
FN:249,_RNCNvMs2_NtNtCsazECCRb7Zym_13p2p_ai_agents4core14access_controlNtB7_20AccessControlManager8get_role0Bb_
FN:277,_RNCNvMs2_NtNtCsazECCRb7Zym_13p2p_ai_agents4core14access_controlNtB7_20AccessControlManager9authorize0Bb_
FN:352,_RNCNvMs3_NtNtCsazECCRb7Zym_13p2p_ai_agents4core14access_controlNtB7_19SimpleAuthenticator8add_user0Bb_
FN:429,_RNCNvMs6_NtNtCsazECCRb7Zym_13p2p_ai_agents4core14access_controlNtB7_17DefaultAuthorizer23update_role_permissions0Bb_
FN:311,_RNCNvXsO_NtNtCsazECCRb7Zym_13p2p_ai_agents4core14access_controlNtB7_20DefaultAuthenticatorNtB7_13Authenticator12authenticate0Bb_
FN:329,_RNCNvXsO_NtNtCsazECCRb7Zym_13p2p_ai_agents4core14access_controlNtB7_20DefaultAuthenticatorNtB7_13Authenticator12create_token0Bb_
FN:320,_RNCNvXsO_NtNtCsazECCRb7Zym_13p2p_ai_agents4core14access_controlNtB7_20DefaultAuthenticatorNtB7_13Authenticator14validate_token0Bb_
FN:370,_RNCNvXsP_NtNtCsazECCRb7Zym_13p2p_ai_agents4core14access_controlNtB7_19SimpleAuthenticatorNtB7_13Authenticator12authenticate0Bb_
FN:395,_RNCNvXsP_NtNtCsazECCRb7Zym_13p2p_ai_agents4core14access_controlNtB7_19SimpleAuthenticatorNtB7_13Authenticator12create_token0Bb_
FN:386,_RNCNvXsP_NtNtCsazECCRb7Zym_13p2p_ai_agents4core14access_controlNtB7_19SimpleAuthenticatorNtB7_13Authenticator14validate_token0Bb_
FN:468,_RNCNvXsQ_NtNtCsazECCRb7Zym_13p2p_ai_agents4core14access_controlNtB7_17DefaultAuthorizerNtB7_10Authorizer15get_permissions0Bb_
FN:442,_RNCNvXsQ_NtNtCsazECCRb7Zym_13p2p_ai_agents4core14access_controlNtB7_17DefaultAuthorizerNtB7_10Authorizer16check_permission0Bb_
FN:483,_RNCNvXsQ_NtNtCsazECCRb7Zym_13p2p_ai_agents4core14access_controlNtB7_17DefaultAuthorizerNtB7_10Authorizer8has_role0Bb_
FN:25,_RNvMNtNtCsazECCRb7Zym_13p2p_ai_agents4core14access_controlNtB2_11PrincipalId3new
FN:30,_RNvMNtNtCsazECCRb7Zym_13p2p_ai_agents4core14access_controlNtB2_11PrincipalId6as_str
FN:57,_RNvMs0_NtNtCsazECCRb7Zym_13p2p_ai_agents4core14access_controlNtB5_10Permission3new
FN:62,_RNvMs0_NtNtCsazECCRb7Zym_13p2p_ai_agents4core14access_controlNtB5_10Permission6as_str
FN:73,_RNvMs1_NtNtCsazECCRb7Zym_13p2p_ai_agents4core14access_controlNtB5_8Resource3new
FN:78,_RNvMs1_NtNtCsazECCRb7Zym_13p2p_ai_agents4core14access_controlNtB5_8Resource6as_str
FN:255,_RNvMs2_NtNtCsazECCRb7Zym_13p2p_ai_agents4core14access_controlNtB5_20AccessControlManager10add_policy
FN:284,_RNvMs2_NtNtCsazECCRb7Zym_13p2p_ai_agents4core14access_controlNtB5_20AccessControlManager10is_allowed
FN:261,_RNvMs2_NtNtCsazECCRb7Zym_13p2p_ai_agents4core14access_controlNtB5_20AccessControlManager12authenticate
FN:231,_RNvMs2_NtNtCsazECCRb7Zym_13p2p_ai_agents4core14access_controlNtB5_20AccessControlManager13add_principal
FN:237,_RNvMs2_NtNtCsazECCRb7Zym_13p2p_ai_agents4core14access_controlNtB5_20AccessControlManager13get_principal
FN:220,_RNvMs2_NtNtCsazECCRb7Zym_13p2p_ai_agents4core14access_controlNtB5_20AccessControlManager3new
FN:243,_RNvMs2_NtNtCsazECCRb7Zym_13p2p_ai_agents4core14access_controlNtB5_20AccessControlManager8add_role
FN:249,_RNvMs2_NtNtCsazECCRb7Zym_13p2p_ai_agents4core14access_controlNtB5_20AccessControlManager8get_role
FN:272,_RNvMs2_NtNtCsazECCRb7Zym_13p2p_ai_agents4core14access_controlNtB5_20AccessControlManager9authorize
FN:345,_RNvMs3_NtNtCsazECCRb7Zym_13p2p_ai_agents4core14access_controlNtB5_19SimpleAuthenticator3new
FN:352,_RNvMs3_NtNtCsazECCRb7Zym_13p2p_ai_agents4core14access_controlNtB5_19SimpleAuthenticator8add_user
FN:425,_RNvMs6_NtNtCsazECCRb7Zym_13p2p_ai_agents4core14access_controlNtB5_17DefaultAuthorizer23update_role_permissions
FN:418,_RNvMs6_NtNtCsazECCRb7Zym_13p2p_ai_agents4core14access_controlNtB5_17DefaultAuthorizer3new
FN:41,_RNvMs_NtNtCsazECCRb7Zym_13p2p_ai_agents4core14access_controlNtB4_6RoleId3new
FN:46,_RNvMs_NtNtCsazECCRb7Zym_13p2p_ai_agents4core14access_controlNtB4_6RoleId6as_str
FN:359,_RNvXs4_NtNtCsazECCRb7Zym_13p2p_ai_agents4core14access_controlNtB5_19SimpleAuthenticatorNtNtCsaTRkahAGrLL_4core7default7Default7default
FN:411,_RNvXs5_NtNtCsazECCRb7Zym_13p2p_ai_agents4core14access_controlNtB5_17DefaultAuthorizerNtNtCsaTRkahAGrLL_4core7default7Default7default
FN:318,_RNvXsO_NtNtCsazECCRb7Zym_13p2p_ai_agents4core14access_controlNtB5_20DefaultAuthenticatorNtB5_13Authenticator12authenticate
FN:335,_RNvXsO_NtNtCsazECCRb7Zym_13p2p_ai_agents4core14access_controlNtB5_20DefaultAuthenticatorNtB5_13Authenticator12create_token
FN:327,_RNvXsO_NtNtCsazECCRb7Zym_13p2p_ai_agents4core14access_controlNtB5_20DefaultAuthenticatorNtB5_13Authenticator14validate_token
FN:384,_RNvXsP_NtNtCsazECCRb7Zym_13p2p_ai_agents4core14access_controlNtB5_19SimpleAuthenticatorNtB5_13Authenticator12authenticate
FN:401,_RNvXsP_NtNtCsazECCRb7Zym_13p2p_ai_agents4core14access_controlNtB5_19SimpleAuthenticatorNtB5_13Authenticator12create_token
FN:393,_RNvXsP_NtNtCsazECCRb7Zym_13p2p_ai_agents4core14access_controlNtB5_19SimpleAuthenticatorNtB5_13Authenticator14validate_token
FN:481,_RNvXsQ_NtNtCsazECCRb7Zym_13p2p_ai_agents4core14access_controlNtB5_17DefaultAuthorizerNtB5_10Authorizer15get_permissions
FN:462,_RNvXsQ_NtNtCsazECCRb7Zym_13p2p_ai_agents4core14access_controlNtB5_17DefaultAuthorizerNtB5_10Authorizer16check_permission
FN:485,_RNvXsQ_NtNtCsazECCRb7Zym_13p2p_ai_agents4core14access_controlNtB5_17DefaultAuthorizerNtB5_10Authorizer8has_role
FN:395,_RNCNvXsP_NtNtCs4ZEr9HMJnjR_13p2p_ai_agents4core14access_controlNtB7_19SimpleAuthenticatorNtB7_13Authenticator12create_token0Bb_
FN:386,_RNCNvXsP_NtNtCs4ZEr9HMJnjR_13p2p_ai_agents4core14access_controlNtB7_19SimpleAuthenticatorNtB7_13Authenticator14validate_token0Bb_
FN:46,_RNvMs_NtNtCs4ZEr9HMJnjR_13p2p_ai_agents4core14access_controlNtB4_6RoleId6as_str
FN:359,_RNvXs4_NtNtCs4ZEr9HMJnjR_13p2p_ai_agents4core14access_controlNtB5_19SimpleAuthenticatorNtNtCsaTRkahAGrLL_4core7default7Default7default
FN:411,_RNvXs5_NtNtCs4ZEr9HMJnjR_13p2p_ai_agents4core14access_controlNtB5_17DefaultAuthorizerNtNtCsaTRkahAGrLL_4core7default7Default7default
FN:401,_RNvXsP_NtNtCs4ZEr9HMJnjR_13p2p_ai_agents4core14access_controlNtB5_19SimpleAuthenticatorNtB5_13Authenticator12create_token
FN:393,_RNvXsP_NtNtCs4ZEr9HMJnjR_13p2p_ai_agents4core14access_controlNtB5_19SimpleAuthenticatorNtB5_13Authenticator14validate_token
FN:511,_RNvNtNtNtCs4ZEr9HMJnjR_13p2p_ai_agents4core14access_control5testss_18test_role_creation
FN:552,_RNvNtNtNtCs4ZEr9HMJnjR_13p2p_ai_agents4core14access_control5testss_23test_default_authorizer
FN:669,_RNvNtNtNtCs4ZEr9HMJnjR_13p2p_ai_agents4core14access_control5testss_23test_policy_deny_effect
FN:493,_RNvNtNtNtCs4ZEr9HMJnjR_13p2p_ai_agents4core14access_control5testss_23test_principal_creation
FN:984,_RNvNtNtNtCs4ZEr9HMJnjR_13p2p_ai_agents4core14access_control5testss_25test_simple_authenticator
FN:533,_RNvNtNtNtCs4ZEr9HMJnjR_13p2p_ai_agents4core14access_control5testss_26test_default_authenticator
FN:603,_RNvNtNtNtCs4ZEr9HMJnjR_13p2p_ai_agents4core14access_control5testss_27test_access_control_manager
FN:720,_RNvNtNtNtCs4ZEr9HMJnjR_13p2p_ai_agents4core14access_control5testss_27test_policy_role_assignment
FN:922,_RNvNtNtNtCs4ZEr9HMJnjR_13p2p_ai_agents4core14access_control5testss_29test_policy_empty_permissions
FN:1016,_RNvNtNtNtCs4ZEr9HMJnjR_13p2p_ai_agents4core14access_control5testss_30test_policy_resource_isolation
FN:858,_RNvNtNtNtCs4ZEr9HMJnjR_13p2p_ai_agents4core14access_control5testss_31test_policy_conflict_resolution
FN:950,_RNvNtNtNtCs4ZEr9HMJnjR_13p2p_ai_agents4core14access_control5testss_34test_policy_permission_inheritance
FN:637,_RNvNtNtNtCs4ZEr9HMJnjR_13p2p_ai_agents4core14access_control5testss_35test_policy_creation_and_validation
FN:769,_RNvNtNtNtCs4ZEr9HMJnjR_13p2p_ai_agents4core14access_control5testss_39test_policy_principal_role_verification
FN:511,_RNCNvNtNtNtCs4ZEr9HMJnjR_13p2p_ai_agents4core14access_control5testss_18test_role_creation0B9_
FN:552,_RNCNvNtNtNtCs4ZEr9HMJnjR_13p2p_ai_agents4core14access_control5testss_23test_default_authorizer0B9_
FN:669,_RNCNvNtNtNtCs4ZEr9HMJnjR_13p2p_ai_agents4core14access_control5testss_23test_policy_deny_effect0B9_
FN:493,_RNCNvNtNtNtCs4ZEr9HMJnjR_13p2p_ai_agents4core14access_control5testss_23test_principal_creation0B9_
FN:984,_RNCNvNtNtNtCs4ZEr9HMJnjR_13p2p_ai_agents4core14access_control5testss_25test_simple_authenticator0B9_
FN:533,_RNCNvNtNtNtCs4ZEr9HMJnjR_13p2p_ai_agents4core14access_control5testss_26test_default_authenticator0B9_
FN:603,_RNCNvNtNtNtCs4ZEr9HMJnjR_13p2p_ai_agents4core14access_control5testss_27test_access_control_manager0B9_
FN:720,_RNCNvNtNtNtCs4ZEr9HMJnjR_13p2p_ai_agents4core14access_control5testss_27test_policy_role_assignment0B9_
FN:922,_RNCNvNtNtNtCs4ZEr9HMJnjR_13p2p_ai_agents4core14access_control5testss_29test_policy_empty_permissions0B9_
FN:1016,_RNCNvNtNtNtCs4ZEr9HMJnjR_13p2p_ai_agents4core14access_control5testss_30test_policy_resource_isolation0B9_
FN:858,_RNCNvNtNtNtCs4ZEr9HMJnjR_13p2p_ai_agents4core14access_control5testss_31test_policy_conflict_resolution0B9_
FN:950,_RNCNvNtNtNtCs4ZEr9HMJnjR_13p2p_ai_agents4core14access_control5testss_34test_policy_permission_inheritance0B9_
FN:637,_RNCNvNtNtNtCs4ZEr9HMJnjR_13p2p_ai_agents4core14access_control5testss_35test_policy_creation_and_validation0B9_
FN:769,_RNCNvNtNtNtCs4ZEr9HMJnjR_13p2p_ai_agents4core14access_control5testss_39test_policy_principal_role_verification0B9_
FN:25,_RNvMNtNtCs4ZEr9HMJnjR_13p2p_ai_agents4core14access_controlNtB2_11PrincipalId3new
FN:30,_RNvMNtNtCs4ZEr9HMJnjR_13p2p_ai_agents4core14access_controlNtB2_11PrincipalId6as_str
FN:57,_RNvMs0_NtNtCs4ZEr9HMJnjR_13p2p_ai_agents4core14access_controlNtB5_10Permission3new
FN:62,_RNvMs0_NtNtCs4ZEr9HMJnjR_13p2p_ai_agents4core14access_controlNtB5_10Permission6as_str
FN:73,_RNvMs1_NtNtCs4ZEr9HMJnjR_13p2p_ai_agents4core14access_controlNtB5_8Resource3new
FN:78,_RNvMs1_NtNtCs4ZEr9HMJnjR_13p2p_ai_agents4core14access_controlNtB5_8Resource6as_str
FN:255,_RNvMs2_NtNtCs4ZEr9HMJnjR_13p2p_ai_agents4core14access_controlNtB5_20AccessControlManager10add_policy
FN:284,_RNvMs2_NtNtCs4ZEr9HMJnjR_13p2p_ai_agents4core14access_controlNtB5_20AccessControlManager10is_allowed
FN:261,_RNvMs2_NtNtCs4ZEr9HMJnjR_13p2p_ai_agents4core14access_controlNtB5_20AccessControlManager12authenticate
FN:231,_RNvMs2_NtNtCs4ZEr9HMJnjR_13p2p_ai_agents4core14access_controlNtB5_20AccessControlManager13add_principal
FN:237,_RNvMs2_NtNtCs4ZEr9HMJnjR_13p2p_ai_agents4core14access_controlNtB5_20AccessControlManager13get_principal
FN:220,_RNvMs2_NtNtCs4ZEr9HMJnjR_13p2p_ai_agents4core14access_controlNtB5_20AccessControlManager3new
FN:243,_RNvMs2_NtNtCs4ZEr9HMJnjR_13p2p_ai_agents4core14access_controlNtB5_20AccessControlManager8add_role
FN:249,_RNvMs2_NtNtCs4ZEr9HMJnjR_13p2p_ai_agents4core14access_controlNtB5_20AccessControlManager8get_role
FN:272,_RNvMs2_NtNtCs4ZEr9HMJnjR_13p2p_ai_agents4core14access_controlNtB5_20AccessControlManager9authorize
FN:345,_RNvMs3_NtNtCs4ZEr9HMJnjR_13p2p_ai_agents4core14access_controlNtB5_19SimpleAuthenticator3new
FN:352,_RNvMs3_NtNtCs4ZEr9HMJnjR_13p2p_ai_agents4core14access_controlNtB5_19SimpleAuthenticator8add_user
FN:425,_RNvMs6_NtNtCs4ZEr9HMJnjR_13p2p_ai_agents4core14access_controlNtB5_17DefaultAuthorizer23update_role_permissions
FN:418,_RNvMs6_NtNtCs4ZEr9HMJnjR_13p2p_ai_agents4core14access_controlNtB5_17DefaultAuthorizer3new
FN:41,_RNvMs_NtNtCs4ZEr9HMJnjR_13p2p_ai_agents4core14access_controlNtB4_6RoleId3new
FN:318,_RNvXsO_NtNtCs4ZEr9HMJnjR_13p2p_ai_agents4core14access_controlNtB5_20DefaultAuthenticatorNtB5_13Authenticator12authenticate
FN:335,_RNvXsO_NtNtCs4ZEr9HMJnjR_13p2p_ai_agents4core14access_controlNtB5_20DefaultAuthenticatorNtB5_13Authenticator12create_token
FN:327,_RNvXsO_NtNtCs4ZEr9HMJnjR_13p2p_ai_agents4core14access_controlNtB5_20DefaultAuthenticatorNtB5_13Authenticator14validate_token
FN:384,_RNvXsP_NtNtCs4ZEr9HMJnjR_13p2p_ai_agents4core14access_controlNtB5_19SimpleAuthenticatorNtB5_13Authenticator12authenticate
FN:481,_RNvXsQ_NtNtCs4ZEr9HMJnjR_13p2p_ai_agents4core14access_controlNtB5_17DefaultAuthorizerNtB5_10Authorizer15get_permissions
FN:462,_RNvXsQ_NtNtCs4ZEr9HMJnjR_13p2p_ai_agents4core14access_controlNtB5_17DefaultAuthorizerNtB5_10Authorizer16check_permission
FN:485,_RNvXsQ_NtNtCs4ZEr9HMJnjR_13p2p_ai_agents4core14access_controlNtB5_17DefaultAuthorizerNtB5_10Authorizer8has_role
FN:293,_RNCNCNvMs2_NtNtCs4ZEr9HMJnjR_13p2p_ai_agents4core14access_controlNtB9_20AccessControlManager10is_allowed00Bd_
FN:255,_RNCNvMs2_NtNtCs4ZEr9HMJnjR_13p2p_ai_agents4core14access_controlNtB7_20AccessControlManager10add_policy0Bb_
FN:289,_RNCNvMs2_NtNtCs4ZEr9HMJnjR_13p2p_ai_agents4core14access_controlNtB7_20AccessControlManager10is_allowed0Bb_
FN:265,_RNCNvMs2_NtNtCs4ZEr9HMJnjR_13p2p_ai_agents4core14access_controlNtB7_20AccessControlManager12authenticate0Bb_
FN:231,_RNCNvMs2_NtNtCs4ZEr9HMJnjR_13p2p_ai_agents4core14access_controlNtB7_20AccessControlManager13add_principal0Bb_
FN:237,_RNCNvMs2_NtNtCs4ZEr9HMJnjR_13p2p_ai_agents4core14access_controlNtB7_20AccessControlManager13get_principal0Bb_
FN:243,_RNCNvMs2_NtNtCs4ZEr9HMJnjR_13p2p_ai_agents4core14access_controlNtB7_20AccessControlManager8add_role0Bb_
FN:249,_RNCNvMs2_NtNtCs4ZEr9HMJnjR_13p2p_ai_agents4core14access_controlNtB7_20AccessControlManager8get_role0Bb_
FN:277,_RNCNvMs2_NtNtCs4ZEr9HMJnjR_13p2p_ai_agents4core14access_controlNtB7_20AccessControlManager9authorize0Bb_
FN:352,_RNCNvMs3_NtNtCs4ZEr9HMJnjR_13p2p_ai_agents4core14access_controlNtB7_19SimpleAuthenticator8add_user0Bb_
FN:429,_RNCNvMs6_NtNtCs4ZEr9HMJnjR_13p2p_ai_agents4core14access_controlNtB7_17DefaultAuthorizer23update_role_permissions0Bb_
FN:311,_RNCNvXsO_NtNtCs4ZEr9HMJnjR_13p2p_ai_agents4core14access_controlNtB7_20DefaultAuthenticatorNtB7_13Authenticator12authenticate0Bb_
FN:329,_RNCNvXsO_NtNtCs4ZEr9HMJnjR_13p2p_ai_agents4core14access_controlNtB7_20DefaultAuthenticatorNtB7_13Authenticator12create_token0Bb_
FN:320,_RNCNvXsO_NtNtCs4ZEr9HMJnjR_13p2p_ai_agents4core14access_controlNtB7_20DefaultAuthenticatorNtB7_13Authenticator14validate_token0Bb_
FN:370,_RNCNvXsP_NtNtCs4ZEr9HMJnjR_13p2p_ai_agents4core14access_controlNtB7_19SimpleAuthenticatorNtB7_13Authenticator12authenticate0Bb_
FN:468,_RNCNvXsQ_NtNtCs4ZEr9HMJnjR_13p2p_ai_agents4core14access_controlNtB7_17DefaultAuthorizerNtB7_10Authorizer15get_permissions0Bb_
FN:442,_RNCNvXsQ_NtNtCs4ZEr9HMJnjR_13p2p_ai_agents4core14access_controlNtB7_17DefaultAuthorizerNtB7_10Authorizer16check_permission0Bb_
FN:483,_RNCNvXsQ_NtNtCs4ZEr9HMJnjR_13p2p_ai_agents4core14access_controlNtB7_17DefaultAuthorizerNtB7_10Authorizer8has_role0Bb_
FNDA:0,_RNCNCNvMs2_NtNtCsazECCRb7Zym_13p2p_ai_agents4core14access_controlNtB9_20AccessControlManager10is_allowed00Bd_
FNDA:0,_RNCNvMs2_NtNtCsazECCRb7Zym_13p2p_ai_agents4core14access_controlNtB7_20AccessControlManager10add_policy0Bb_
FNDA:0,_RNCNvMs2_NtNtCsazECCRb7Zym_13p2p_ai_agents4core14access_controlNtB7_20AccessControlManager10is_allowed0Bb_
FNDA:0,_RNCNvMs2_NtNtCsazECCRb7Zym_13p2p_ai_agents4core14access_controlNtB7_20AccessControlManager12authenticate0Bb_
FNDA:0,_RNCNvMs2_NtNtCsazECCRb7Zym_13p2p_ai_agents4core14access_controlNtB7_20AccessControlManager13add_principal0Bb_
FNDA:0,_RNCNvMs2_NtNtCsazECCRb7Zym_13p2p_ai_agents4core14access_controlNtB7_20AccessControlManager13get_principal0Bb_
FNDA:0,_RNCNvMs2_NtNtCsazECCRb7Zym_13p2p_ai_agents4core14access_controlNtB7_20AccessControlManager8add_role0Bb_
FNDA:0,_RNCNvMs2_NtNtCsazECCRb7Zym_13p2p_ai_agents4core14access_controlNtB7_20AccessControlManager8get_role0Bb_
FNDA:0,_RNCNvMs2_NtNtCsazECCRb7Zym_13p2p_ai_agents4core14access_controlNtB7_20AccessControlManager9authorize0Bb_
FNDA:0,_RNCNvMs3_NtNtCsazECCRb7Zym_13p2p_ai_agents4core14access_controlNtB7_19SimpleAuthenticator8add_user0Bb_
FNDA:0,_RNCNvMs6_NtNtCsazECCRb7Zym_13p2p_ai_agents4core14access_controlNtB7_17DefaultAuthorizer23update_role_permissions0Bb_
FNDA:0,_RNCNvXsO_NtNtCsazECCRb7Zym_13p2p_ai_agents4core14access_controlNtB7_20DefaultAuthenticatorNtB7_13Authenticator12authenticate0Bb_
FNDA:0,_RNCNvXsO_NtNtCsazECCRb7Zym_13p2p_ai_agents4core14access_controlNtB7_20DefaultAuthenticatorNtB7_13Authenticator12create_token0Bb_
FNDA:0,_RNCNvXsO_NtNtCsazECCRb7Zym_13p2p_ai_agents4core14access_controlNtB7_20DefaultAuthenticatorNtB7_13Authenticator14validate_token0Bb_
FNDA:0,_RNCNvXsP_NtNtCsazECCRb7Zym_13p2p_ai_agents4core14access_controlNtB7_19SimpleAuthenticatorNtB7_13Authenticator12authenticate0Bb_
FNDA:0,_RNCNvXsP_NtNtCsazECCRb7Zym_13p2p_ai_agents4core14access_controlNtB7_19SimpleAuthenticatorNtB7_13Authenticator12create_token0Bb_
FNDA:0,_RNCNvXsP_NtNtCsazECCRb7Zym_13p2p_ai_agents4core14access_controlNtB7_19SimpleAuthenticatorNtB7_13Authenticator14validate_token0Bb_
FNDA:0,_RNCNvXsQ_NtNtCsazECCRb7Zym_13p2p_ai_agents4core14access_controlNtB7_17DefaultAuthorizerNtB7_10Authorizer15get_permissions0Bb_
FNDA:0,_RNCNvXsQ_NtNtCsazECCRb7Zym_13p2p_ai_agents4core14access_controlNtB7_17DefaultAuthorizerNtB7_10Authorizer16check_permission0Bb_
FNDA:0,_RNCNvXsQ_NtNtCsazECCRb7Zym_13p2p_ai_agents4core14access_controlNtB7_17DefaultAuthorizerNtB7_10Authorizer8has_role0Bb_
FNDA:0,_RNvMNtNtCsazECCRb7Zym_13p2p_ai_agents4core14access_controlNtB2_11PrincipalId3new
FNDA:0,_RNvMNtNtCsazECCRb7Zym_13p2p_ai_agents4core14access_controlNtB2_11PrincipalId6as_str
FNDA:0,_RNvMs0_NtNtCsazECCRb7Zym_13p2p_ai_agents4core14access_controlNtB5_10Permission3new
FNDA:0,_RNvMs0_NtNtCsazECCRb7Zym_13p2p_ai_agents4core14access_controlNtB5_10Permission6as_str
FNDA:0,_RNvMs1_NtNtCsazECCRb7Zym_13p2p_ai_agents4core14access_controlNtB5_8Resource3new
FNDA:0,_RNvMs1_NtNtCsazECCRb7Zym_13p2p_ai_agents4core14access_controlNtB5_8Resource6as_str
FNDA:0,_RNvMs2_NtNtCsazECCRb7Zym_13p2p_ai_agents4core14access_controlNtB5_20AccessControlManager10add_policy
FNDA:0,_RNvMs2_NtNtCsazECCRb7Zym_13p2p_ai_agents4core14access_controlNtB5_20AccessControlManager10is_allowed
FNDA:0,_RNvMs2_NtNtCsazECCRb7Zym_13p2p_ai_agents4core14access_controlNtB5_20AccessControlManager12authenticate
FNDA:0,_RNvMs2_NtNtCsazECCRb7Zym_13p2p_ai_agents4core14access_controlNtB5_20AccessControlManager13add_principal
FNDA:0,_RNvMs2_NtNtCsazECCRb7Zym_13p2p_ai_agents4core14access_controlNtB5_20AccessControlManager13get_principal
FNDA:0,_RNvMs2_NtNtCsazECCRb7Zym_13p2p_ai_agents4core14access_controlNtB5_20AccessControlManager3new
FNDA:0,_RNvMs2_NtNtCsazECCRb7Zym_13p2p_ai_agents4core14access_controlNtB5_20AccessControlManager8add_role
FNDA:0,_RNvMs2_NtNtCsazECCRb7Zym_13p2p_ai_agents4core14access_controlNtB5_20AccessControlManager8get_role
FNDA:0,_RNvMs2_NtNtCsazECCRb7Zym_13p2p_ai_agents4core14access_controlNtB5_20AccessControlManager9authorize
FNDA:0,_RNvMs3_NtNtCsazECCRb7Zym_13p2p_ai_agents4core14access_controlNtB5_19SimpleAuthenticator3new
FNDA:0,_RNvMs3_NtNtCsazECCRb7Zym_13p2p_ai_agents4core14access_controlNtB5_19SimpleAuthenticator8add_user
FNDA:0,_RNvMs6_NtNtCsazECCRb7Zym_13p2p_ai_agents4core14access_controlNtB5_17DefaultAuthorizer23update_role_permissions
FNDA:0,_RNvMs6_NtNtCsazECCRb7Zym_13p2p_ai_agents4core14access_controlNtB5_17DefaultAuthorizer3new
FNDA:0,_RNvMs_NtNtCsazECCRb7Zym_13p2p_ai_agents4core14access_controlNtB4_6RoleId3new
FNDA:0,_RNvMs_NtNtCsazECCRb7Zym_13p2p_ai_agents4core14access_controlNtB4_6RoleId6as_str
FNDA:0,_RNvXs4_NtNtCsazECCRb7Zym_13p2p_ai_agents4core14access_controlNtB5_19SimpleAuthenticatorNtNtCsaTRkahAGrLL_4core7default7Default7default
FNDA:0,_RNvXs5_NtNtCsazECCRb7Zym_13p2p_ai_agents4core14access_controlNtB5_17DefaultAuthorizerNtNtCsaTRkahAGrLL_4core7default7Default7default
FNDA:0,_RNvXsO_NtNtCsazECCRb7Zym_13p2p_ai_agents4core14access_controlNtB5_20DefaultAuthenticatorNtB5_13Authenticator12authenticate
FNDA:0,_RNvXsO_NtNtCsazECCRb7Zym_13p2p_ai_agents4core14access_controlNtB5_20DefaultAuthenticatorNtB5_13Authenticator12create_token
FNDA:0,_RNvXsO_NtNtCsazECCRb7Zym_13p2p_ai_agents4core14access_controlNtB5_20DefaultAuthenticatorNtB5_13Authenticator14validate_token
FNDA:0,_RNvXsP_NtNtCsazECCRb7Zym_13p2p_ai_agents4core14access_controlNtB5_19SimpleAuthenticatorNtB5_13Authenticator12authenticate
FNDA:0,_RNvXsP_NtNtCsazECCRb7Zym_13p2p_ai_agents4core14access_controlNtB5_19SimpleAuthenticatorNtB5_13Authenticator12create_token
FNDA:0,_RNvXsP_NtNtCsazECCRb7Zym_13p2p_ai_agents4core14access_controlNtB5_19SimpleAuthenticatorNtB5_13Authenticator14validate_token
FNDA:0,_RNvXsQ_NtNtCsazECCRb7Zym_13p2p_ai_agents4core14access_controlNtB5_17DefaultAuthorizerNtB5_10Authorizer15get_permissions
FNDA:0,_RNvXsQ_NtNtCsazECCRb7Zym_13p2p_ai_agents4core14access_controlNtB5_17DefaultAuthorizerNtB5_10Authorizer16check_permission
FNDA:0,_RNvXsQ_NtNtCsazECCRb7Zym_13p2p_ai_agents4core14access_controlNtB5_17DefaultAuthorizerNtB5_10Authorizer8has_role
FNDA:0,_RNCNvXsP_NtNtCs4ZEr9HMJnjR_13p2p_ai_agents4core14access_controlNtB7_19SimpleAuthenticatorNtB7_13Authenticator12create_token0Bb_
FNDA:0,_RNCNvXsP_NtNtCs4ZEr9HMJnjR_13p2p_ai_agents4core14access_controlNtB7_19SimpleAuthenticatorNtB7_13Authenticator14validate_token0Bb_
FNDA:0,_RNvMs_NtNtCs4ZEr9HMJnjR_13p2p_ai_agents4core14access_controlNtB4_6RoleId6as_str
FNDA:0,_RNvXs4_NtNtCs4ZEr9HMJnjR_13p2p_ai_agents4core14access_controlNtB5_19SimpleAuthenticatorNtNtCsaTRkahAGrLL_4core7default7Default7default
FNDA:0,_RNvXs5_NtNtCs4ZEr9HMJnjR_13p2p_ai_agents4core14access_controlNtB5_17DefaultAuthorizerNtNtCsaTRkahAGrLL_4core7default7Default7default
FNDA:0,_RNvXsP_NtNtCs4ZEr9HMJnjR_13p2p_ai_agents4core14access_controlNtB5_19SimpleAuthenticatorNtB5_13Authenticator12create_token
FNDA:0,_RNvXsP_NtNtCs4ZEr9HMJnjR_13p2p_ai_agents4core14access_controlNtB5_19SimpleAuthenticatorNtB5_13Authenticator14validate_token
FNDA:1,_RNvNtNtNtCs4ZEr9HMJnjR_13p2p_ai_agents4core14access_control5testss_18test_role_creation
FNDA:1,_RNvNtNtNtCs4ZEr9HMJnjR_13p2p_ai_agents4core14access_control5testss_23test_default_authorizer
FNDA:1,_RNvNtNtNtCs4ZEr9HMJnjR_13p2p_ai_agents4core14access_control5testss_23test_policy_deny_effect
FNDA:1,_RNvNtNtNtCs4ZEr9HMJnjR_13p2p_ai_agents4core14access_control5testss_23test_principal_creation
FNDA:1,_RNvNtNtNtCs4ZEr9HMJnjR_13p2p_ai_agents4core14access_control5testss_25test_simple_authenticator
FNDA:1,_RNvNtNtNtCs4ZEr9HMJnjR_13p2p_ai_agents4core14access_control5testss_26test_default_authenticator
FNDA:1,_RNvNtNtNtCs4ZEr9HMJnjR_13p2p_ai_agents4core14access_control5testss_27test_access_control_manager
FNDA:1,_RNvNtNtNtCs4ZEr9HMJnjR_13p2p_ai_agents4core14access_control5testss_27test_policy_role_assignment
FNDA:1,_RNvNtNtNtCs4ZEr9HMJnjR_13p2p_ai_agents4core14access_control5testss_29test_policy_empty_permissions
FNDA:1,_RNvNtNtNtCs4ZEr9HMJnjR_13p2p_ai_agents4core14access_control5testss_30test_policy_resource_isolation
FNDA:1,_RNvNtNtNtCs4ZEr9HMJnjR_13p2p_ai_agents4core14access_control5testss_31test_policy_conflict_resolution
FNDA:1,_RNvNtNtNtCs4ZEr9HMJnjR_13p2p_ai_agents4core14access_control5testss_34test_policy_permission_inheritance
FNDA:1,_RNvNtNtNtCs4ZEr9HMJnjR_13p2p_ai_agents4core14access_control5testss_35test_policy_creation_and_validation
FNDA:1,_RNvNtNtNtCs4ZEr9HMJnjR_13p2p_ai_agents4core14access_control5testss_39test_policy_principal_role_verification
FNDA:1,_RNCNvNtNtNtCs4ZEr9HMJnjR_13p2p_ai_agents4core14access_control5testss_18test_role_creation0B9_
FNDA:1,_RNCNvNtNtNtCs4ZEr9HMJnjR_13p2p_ai_agents4core14access_control5testss_23test_default_authorizer0B9_
FNDA:1,_RNCNvNtNtNtCs4ZEr9HMJnjR_13p2p_ai_agents4core14access_control5testss_23test_policy_deny_effect0B9_
FNDA:1,_RNCNvNtNtNtCs4ZEr9HMJnjR_13p2p_ai_agents4core14access_control5testss_23test_principal_creation0B9_
FNDA:1,_RNCNvNtNtNtCs4ZEr9HMJnjR_13p2p_ai_agents4core14access_control5testss_25test_simple_authenticator0B9_
FNDA:1,_RNCNvNtNtNtCs4ZEr9HMJnjR_13p2p_ai_agents4core14access_control5testss_26test_default_authenticator0B9_
FNDA:1,_RNCNvNtNtNtCs4ZEr9HMJnjR_13p2p_ai_agents4core14access_control5testss_27test_access_control_manager0B9_
FNDA:1,_RNCNvNtNtNtCs4ZEr9HMJnjR_13p2p_ai_agents4core14access_control5testss_27test_policy_role_assignment0B9_
FNDA:1,_RNCNvNtNtNtCs4ZEr9HMJnjR_13p2p_ai_agents4core14access_control5testss_29test_policy_empty_permissions0B9_
FNDA:1,_RNCNvNtNtNtCs4ZEr9HMJnjR_13p2p_ai_agents4core14access_control5testss_30test_policy_resource_isolation0B9_
FNDA:1,_RNCNvNtNtNtCs4ZEr9HMJnjR_13p2p_ai_agents4core14access_control5testss_31test_policy_conflict_resolution0B9_
FNDA:1,_RNCNvNtNtNtCs4ZEr9HMJnjR_13p2p_ai_agents4core14access_control5testss_34test_policy_permission_inheritance0B9_
FNDA:1,_RNCNvNtNtNtCs4ZEr9HMJnjR_13p2p_ai_agents4core14access_control5testss_35test_policy_creation_and_validation0B9_
FNDA:1,_RNCNvNtNtNtCs4ZEr9HMJnjR_13p2p_ai_agents4core14access_control5testss_39test_policy_principal_role_verification0B9_
FNDA:1768386,_RNvMNtNtCs4ZEr9HMJnjR_13p2p_ai_agents4core14access_controlNtB2_11PrincipalId3new
FNDA:73874,_RNvMNtNtCs4ZEr9HMJnjR_13p2p_ai_agents4core14access_controlNtB2_11PrincipalId6as_str
FNDA:73901,_RNvMs0_NtNtCs4ZEr9HMJnjR_13p2p_ai_agents4core14access_controlNtB5_10Permission3new
FNDA:73873,_RNvMs0_NtNtCs4ZEr9HMJnjR_13p2p_ai_agents4core14access_controlNtB5_10Permission6as_str
FNDA:73895,_RNvMs1_NtNtCs4ZEr9HMJnjR_13p2p_ai_agents4core14access_controlNtB5_8Resource3new
FNDA:73873,_RNvMs1_NtNtCs4ZEr9HMJnjR_13p2p_ai_agents4core14access_controlNtB5_8Resource6as_str
FNDA:1,_RNvMs2_NtNtCs4ZEr9HMJnjR_13p2p_ai_agents4core14access_controlNtB5_20AccessControlManager10add_policy
FNDA:73869,_RNvMs2_NtNtCs4ZEr9HMJnjR_13p2p_ai_agents4core14access_controlNtB5_20AccessControlManager10is_allowed
FNDA:1694345,_RNvMs2_NtNtCs4ZEr9HMJnjR_13p2p_ai_agents4core14access_controlNtB5_20AccessControlManager12authenticate
FNDA:210,_RNvMs2_NtNtCs4ZEr9HMJnjR_13p2p_ai_agents4core14access_controlNtB5_20AccessControlManager13add_principal
FNDA:73874,_RNvMs2_NtNtCs4ZEr9HMJnjR_13p2p_ai_agents4core14access_controlNtB5_20AccessControlManager13get_principal
FNDA:8,_RNvMs2_NtNtCs4ZEr9HMJnjR_13p2p_ai_agents4core14access_controlNtB5_20AccessControlManager3new
FNDA:7,_RNvMs2_NtNtCs4ZEr9HMJnjR_13p2p_ai_agents4core14access_controlNtB5_20AccessControlManager8add_role
FNDA:2,_RNvMs2_NtNtCs4ZEr9HMJnjR_13p2p_ai_agents4core14access_controlNtB5_20AccessControlManager8get_role
FNDA:73868,_RNvMs2_NtNtCs4ZEr9HMJnjR_13p2p_ai_agents4core14access_controlNtB5_20AccessControlManager9authorize
FNDA:1,_RNvMs3_NtNtCs4ZEr9HMJnjR_13p2p_ai_agents4core14access_controlNtB5_19SimpleAuthenticator3new
FNDA:1,_RNvMs3_NtNtCs4ZEr9HMJnjR_13p2p_ai_agents4core14access_controlNtB5_19SimpleAuthenticator8add_user
FNDA:7,_RNvMs6_NtNtCs4ZEr9HMJnjR_13p2p_ai_agents4core14access_controlNtB5_17DefaultAuthorizer23update_role_permissions
FNDA:14,_RNvMs6_NtNtCs4ZEr9HMJnjR_13p2p_ai_agents4core14access_controlNtB5_17DefaultAuthorizer3new
FNDA:147,_RNvMs_NtNtCs4ZEr9HMJnjR_13p2p_ai_agents4core14access_controlNtB4_6RoleId3new
FNDA:1694346,_RNvXsO_NtNtCs4ZEr9HMJnjR_13p2p_ai_agents4core14access_controlNtB5_20DefaultAuthenticatorNtB5_13Authenticator12authenticate
FNDA:0,_RNvXsO_NtNtCs4ZEr9HMJnjR_13p2p_ai_agents4core14access_controlNtB5_20DefaultAuthenticatorNtB5_13Authenticator12create_token
FNDA:0,_RNvXsO_NtNtCs4ZEr9HMJnjR_13p2p_ai_agents4core14access_controlNtB5_20DefaultAuthenticatorNtB5_13Authenticator14validate_token
FNDA:3,_RNvXsP_NtNtCs4ZEr9HMJnjR_13p2p_ai_agents4core14access_controlNtB5_19SimpleAuthenticatorNtB5_13Authenticator12authenticate
FNDA:1,_RNvXsQ_NtNtCs4ZEr9HMJnjR_13p2p_ai_agents4core14access_controlNtB5_17DefaultAuthorizerNtB5_10Authorizer15get_permissions
FNDA:73879,_RNvXsQ_NtNtCs4ZEr9HMJnjR_13p2p_ai_agents4core14access_controlNtB5_17DefaultAuthorizerNtB5_10Authorizer16check_permission
FNDA:0,_RNvXsQ_NtNtCs4ZEr9HMJnjR_13p2p_ai_agents4core14access_controlNtB5_17DefaultAuthorizerNtB5_10Authorizer8has_role
FNDA:1,_RNCNCNvMs2_NtNtCs4ZEr9HMJnjR_13p2p_ai_agents4core14access_controlNtB9_20AccessControlManager10is_allowed00Bd_
FNDA:1,_RNCNvMs2_NtNtCs4ZEr9HMJnjR_13p2p_ai_agents4core14access_controlNtB7_20AccessControlManager10add_policy0Bb_
FNDA:73869,_RNCNvMs2_NtNtCs4ZEr9HMJnjR_13p2p_ai_agents4core14access_controlNtB7_20AccessControlManager10is_allowed0Bb_
FNDA:1694345,_RNCNvMs2_NtNtCs4ZEr9HMJnjR_13p2p_ai_agents4core14access_controlNtB7_20AccessControlManager12authenticate0Bb_
FNDA:210,_RNCNvMs2_NtNtCs4ZEr9HMJnjR_13p2p_ai_agents4core14access_controlNtB7_20AccessControlManager13add_principal0Bb_
FNDA:73874,_RNCNvMs2_NtNtCs4ZEr9HMJnjR_13p2p_ai_agents4core14access_controlNtB7_20AccessControlManager13get_principal0Bb_
FNDA:7,_RNCNvMs2_NtNtCs4ZEr9HMJnjR_13p2p_ai_agents4core14access_controlNtB7_20AccessControlManager8add_role0Bb_
FNDA:2,_RNCNvMs2_NtNtCs4ZEr9HMJnjR_13p2p_ai_agents4core14access_controlNtB7_20AccessControlManager8get_role0Bb_
FNDA:73868,_RNCNvMs2_NtNtCs4ZEr9HMJnjR_13p2p_ai_agents4core14access_controlNtB7_20AccessControlManager9authorize0Bb_
FNDA:1,_RNCNvMs3_NtNtCs4ZEr9HMJnjR_13p2p_ai_agents4core14access_controlNtB7_19SimpleAuthenticator8add_user0Bb_
FNDA:7,_RNCNvMs6_NtNtCs4ZEr9HMJnjR_13p2p_ai_agents4core14access_controlNtB7_17DefaultAuthorizer23update_role_permissions0Bb_
FNDA:1694346,_RNCNvXsO_NtNtCs4ZEr9HMJnjR_13p2p_ai_agents4core14access_controlNtB7_20DefaultAuthenticatorNtB7_13Authenticator12authenticate0Bb_
FNDA:0,_RNCNvXsO_NtNtCs4ZEr9HMJnjR_13p2p_ai_agents4core14access_controlNtB7_20DefaultAuthenticatorNtB7_13Authenticator12create_token0Bb_
FNDA:0,_RNCNvXsO_NtNtCs4ZEr9HMJnjR_13p2p_ai_agents4core14access_controlNtB7_20DefaultAuthenticatorNtB7_13Authenticator14validate_token0Bb_
FNDA:3,_RNCNvXsP_NtNtCs4ZEr9HMJnjR_13p2p_ai_agents4core14access_controlNtB7_19SimpleAuthenticatorNtB7_13Authenticator12authenticate0Bb_
FNDA:1,_RNCNvXsQ_NtNtCs4ZEr9HMJnjR_13p2p_ai_agents4core14access_controlNtB7_17DefaultAuthorizerNtB7_10Authorizer15get_permissions0Bb_
FNDA:73879,_RNCNvXsQ_NtNtCs4ZEr9HMJnjR_13p2p_ai_agents4core14access_controlNtB7_17DefaultAuthorizerNtB7_10Authorizer16check_permission0Bb_
FNDA:0,_RNCNvXsQ_NtNtCs4ZEr9HMJnjR_13p2p_ai_agents4core14access_controlNtB7_17DefaultAuthorizerNtB7_10Authorizer8has_role0Bb_
FNF:80
FNH:67
DA:25,1768386
DA:26,1768386
DA:27,1768386
DA:30,73874
DA:31,73874
DA:32,73874
DA:41,147
DA:42,147
DA:43,147
DA:46,0
DA:47,0
DA:48,0
DA:57,73901
DA:58,73901
DA:59,73901
DA:62,73873
DA:63,73873
DA:64,73873
DA:73,73895
DA:74,73895
DA:75,73895
DA:78,73873
DA:79,73873
DA:80,73873
DA:220,8
DA:221,8
DA:222,8
DA:223,8
DA:224,8
DA:225,8
DA:226,8
DA:227,8
DA:228,8
DA:231,210
DA:232,210
DA:233,210
DA:234,210
DA:237,73874
DA:238,73874
DA:239,73874
DA:240,73874
DA:243,7
DA:244,7
DA:245,7
DA:246,7
DA:249,2
DA:250,2
DA:251,2
DA:252,2
DA:255,1
DA:256,1
DA:257,1
DA:258,1
DA:261,1694345
DA:262,1694345
DA:263,1694345
DA:264,1694345
DA:265,1694345
DA:266,1694345
DA:267,1694345
DA:268,1694345
DA:269,1694345
DA:272,73868
DA:273,73868
DA:274,73868
DA:275,73868
DA:276,73868
DA:277,73868
DA:278,73868
DA:279,73868
DA:280,73868
DA:281,73868
DA:284,73869
DA:285,73869
DA:286,73869
DA:287,73869
DA:288,73869
DA:289,73869
DA:290,73869
DA:291,73869
DA:292,73869
DA:293,73869
DA:295,73868
DA:296,0
DA:297,73868
DA:299,73869
DA:311,1694346
DA:313,1694346
DA:314,1694346
DA:315,1694346
DA:316,1694346
DA:317,1694346
DA:318,3388692
DA:320,0
DA:321,0
DA:322,0
DA:323,0
DA:324,0
DA:325,0
DA:326,0
DA:327,0
DA:329,0
DA:330,0
DA:331,0
DA:332,0
DA:333,0
DA:334,0
DA:335,0
DA:345,1
DA:346,1
DA:347,1
DA:348,1
DA:349,1
DA:352,1
DA:353,1
DA:354,1
DA:355,1
DA:359,0
DA:360,0
DA:361,0
DA:370,3
DA:371,3
DA:372,3
DA:373,2
DA:374,2
DA:375,1
DA:376,1
DA:377,1
DA:378,1
DA:379,1
DA:380,1
DA:381,0
DA:382,1
DA:383,2
DA:384,6
DA:386,0
DA:387,0
DA:388,0
DA:389,0
DA:390,0
DA:391,0
DA:392,0
DA:393,0
DA:395,0
DA:396,0
DA:397,0
DA:398,0
DA:399,0
DA:400,0
DA:401,0
DA:411,0
DA:412,0
DA:413,0
DA:418,14
DA:419,14
DA:420,14
DA:421,14
DA:422,14
DA:425,7
DA:426,7
DA:427,7
DA:428,7
DA:429,7
DA:430,7
DA:431,7
DA:432,7
DA:442,73879
DA:443,73879
DA:446,147754
DA:447,73881
DA:448,13
DA:449,12
DA:450,6
DA:451,6
DA:452,1
DA:453,73868
DA:456,73873
DA:457,73873
DA:458,73873
DA:459,73873
DA:460,73873
DA:461,73873
DA:462,147758
DA:468,1
DA:469,1
DA:470,1
DA:472,2
DA:473,1
DA:474,1
DA:475,1
DA:476,1
DA:477,0
DA:480,1
DA:481,2
DA:483,0
DA:484,0
DA:485,0
DA:493,1
DA:494,1
DA:495,1
DA:496,1
DA:497,1
DA:498,1
DA:499,1
DA:500,1
DA:501,1
DA:502,1
DA:503,1
DA:504,1
DA:505,1
DA:506,1
DA:507,1
DA:508,1
DA:511,1
DA:512,1
DA:513,1
DA:514,1
DA:515,1
DA:516,1
DA:517,1
DA:518,1
DA:519,1
DA:520,1
DA:521,1
DA:522,1
DA:523,1
DA:524,1
DA:525,1
DA:526,1
DA:527,1
DA:528,1
DA:529,1
DA:530,1
DA:533,1
DA:534,1
DA:535,1
DA:536,1
DA:537,1
DA:538,1
DA:539,1
DA:540,1
DA:541,1
DA:542,1
DA:543,1
DA:544,1
DA:545,1
DA:546,1
DA:547,1
DA:548,1
DA:549,1
DA:552,1
DA:553,1
DA:554,1
DA:555,1
DA:556,1
DA:557,1
DA:558,1
DA:559,1
DA:560,1
DA:561,1
DA:562,1
DA:563,1
DA:564,1
DA:565,1
DA:566,1
DA:567,1
DA:568,1
DA:569,1
DA:570,1
DA:571,1
DA:572,1
DA:573,1
DA:574,1
DA:575,1
DA:576,1
DA:577,1
DA:578,1
DA:579,1
DA:580,1
DA:581,1
DA:582,1
DA:583,1
DA:584,1
DA:585,1
DA:586,1
DA:587,1
DA:588,1
DA:589,1
DA:590,1
DA:591,1
DA:592,1
DA:593,1
DA:594,1
DA:595,1
DA:596,1
DA:597,1
DA:598,1
DA:599,1
DA:600,1
DA:603,1
DA:604,1
DA:605,1
DA:606,1
DA:607,1
DA:608,1
DA:609,1
DA:610,1
DA:611,1
DA:612,1
DA:613,1
DA:614,1
DA:615,1
DA:616,1
DA:617,1
DA:618,1
DA:619,1
DA:620,1
DA:621,1
DA:622,1
DA:623,1
DA:624,1
DA:625,1
DA:626,1
DA:627,1
DA:628,1
DA:629,1
DA:630,1
DA:631,1
DA:632,1
DA:633,1
DA:634,1
DA:637,1
DA:638,1
DA:639,1
DA:640,1
DA:641,1
DA:642,1
DA:643,1
DA:644,1
DA:645,1
DA:646,1
DA:647,1
DA:648,1
DA:649,1
DA:650,1
DA:651,1
DA:652,1
DA:653,1
DA:654,1
DA:655,1
DA:656,1
DA:657,1
DA:658,1
DA:659,1
DA:660,1
DA:661,1
DA:662,1
DA:663,1
DA:664,1
DA:665,1
DA:666,1
DA:669,1
DA:670,1
DA:671,1
DA:672,1
DA:673,1
DA:674,1
DA:675,1
DA:676,1
DA:677,1
DA:678,1
DA:679,1
DA:680,1
DA:681,1
DA:682,1
DA:683,1
DA:684,1
DA:685,1
DA:686,1
DA:687,1
DA:688,1
DA:689,1
DA:690,1
DA:691,1
DA:692,1
DA:693,1
DA:694,1
DA:695,1
DA:696,1
DA:697,1
DA:698,1
DA:699,1
DA:700,1
DA:701,1
DA:702,1
DA:703,1
DA:704,1
DA:705,1
DA:706,1
DA:707,1
DA:708,1
DA:709,1
DA:710,1
DA:711,1
DA:712,1
DA:713,1
DA:714,1
DA:715,1
DA:716,1
DA:717,1
DA:720,1
DA:721,1
DA:722,1
DA:723,1
DA:724,1
DA:725,1
DA:726,1
DA:727,1
DA:728,1
DA:729,1
DA:730,1
DA:731,1
DA:732,1
DA:733,1
DA:734,1
DA:735,1
DA:736,1
DA:737,1
DA:738,1
DA:739,1
DA:740,1
DA:741,1
DA:742,1
DA:743,1
DA:744,1
DA:745,1
DA:746,1
DA:747,1
DA:748,1
DA:749,1
DA:750,1
DA:751,1
DA:752,1
DA:753,1
DA:754,1
DA:755,1
DA:756,1
DA:757,1
DA:758,1
DA:759,1
DA:760,1
DA:761,1
DA:762,1
DA:763,1
DA:764,1
DA:765,1
DA:766,1
DA:769,1
DA:770,1
DA:771,1
DA:772,1
DA:773,1
DA:774,1
DA:775,1
DA:776,1
DA:777,1
DA:778,1
DA:779,1
DA:780,1
DA:781,1
DA:782,1
DA:783,1
DA:784,1
DA:785,1
DA:786,1
DA:787,1
DA:788,1
DA:789,1
DA:790,1
DA:791,1
DA:792,1
DA:793,1
DA:794,1
DA:795,1
DA:796,1
DA:797,1
DA:798,1
DA:799,1
DA:800,1
DA:801,1
DA:802,1
DA:803,1
DA:804,1
DA:805,1
DA:806,1
DA:807,1
DA:808,1
DA:809,1
DA:810,1
DA:811,1
DA:812,1
DA:813,1
DA:814,1
DA:815,1
DA:816,1
DA:817,1
DA:818,1
DA:819,1
DA:820,1
DA:821,1
DA:822,1
DA:823,1
DA:824,1
DA:825,1
DA:826,1
DA:827,1
DA:828,1
DA:829,1
DA:830,1
DA:831,1
DA:832,1
DA:833,1
DA:834,1
DA:835,1
DA:836,1
DA:837,1
DA:838,1
DA:839,1
DA:840,1
DA:841,1
DA:842,1
DA:843,1
DA:844,1
DA:845,1
DA:846,1
DA:847,1
DA:848,1
DA:849,1
DA:850,1
DA:851,1
DA:852,1
DA:853,1
DA:854,1
DA:855,1
DA:858,1
DA:859,1
DA:860,1
DA:861,1
DA:862,1
DA:863,1
DA:864,1
DA:865,1
DA:866,1
DA:867,1
DA:868,1
DA:869,1
DA:870,1
DA:871,1
DA:872,1
DA:873,1
DA:874,1
DA:875,1
DA:876,1
DA:877,1
DA:878,1
DA:879,1
DA:880,1
DA:881,1
DA:882,1
DA:883,1
DA:884,1
DA:885,1
DA:886,1
DA:887,1
DA:888,1
DA:889,1
DA:890,1
DA:891,1
DA:892,1
DA:893,1
DA:894,1
DA:895,1
DA:896,1
DA:897,1
DA:898,1
DA:899,1
DA:900,1
DA:901,1
DA:902,1
DA:903,1
DA:904,1
DA:905,1
DA:906,1
DA:907,1
DA:908,1
DA:909,1
DA:910,1
DA:911,1
DA:912,1
DA:913,1
DA:914,1
DA:915,1
DA:916,1
DA:917,1
DA:918,1
DA:919,1
DA:922,1
DA:923,1
DA:924,1
DA:925,1
DA:926,1
DA:927,1
DA:928,1
DA:929,1
DA:930,1
DA:931,1
DA:932,1
DA:933,1
DA:934,1
DA:935,1
DA:936,1
DA:937,1
DA:938,1
DA:939,1
DA:940,1
DA:941,1
DA:942,1
DA:943,1
DA:944,1
DA:945,1
DA:946,1
DA:947,1
DA:950,1
DA:951,1
DA:952,1
DA:953,1
DA:954,1
DA:955,1
DA:956,1
DA:957,1
DA:958,1
DA:959,1
DA:960,1
DA:961,1
DA:962,1
DA:963,1
DA:964,1
DA:965,1
DA:966,1
DA:967,1
DA:968,1
DA:969,1
DA:970,1
DA:971,1
DA:972,1
DA:973,1
DA:974,1
DA:975,1
DA:976,1
DA:977,1
DA:978,1
DA:979,1
DA:980,1
DA:981,1
DA:984,1
DA:985,1
DA:986,1
DA:987,1
DA:988,1
DA:989,1
DA:990,1
DA:991,1
DA:992,1
DA:993,1
DA:994,1
DA:995,1
DA:996,1
DA:997,1
DA:998,1
DA:999,1
DA:1000,1
DA:1001,1
DA:1002,1
DA:1003,1
DA:1004,1
DA:1005,1
DA:1006,1
DA:1007,1
DA:1008,1
DA:1009,1
DA:1010,1
DA:1011,1
DA:1012,1
DA:1013,1
DA:1016,1
DA:1017,1
DA:1018,1
DA:1019,1
DA:1020,1
DA:1021,1
DA:1022,1
DA:1023,1
DA:1024,1
DA:1025,1
DA:1026,1
DA:1027,1
DA:1028,1
DA:1029,1
DA:1030,1
DA:1031,1
DA:1032,1
DA:1033,1
DA:1034,1
DA:1035,1
DA:1036,1
DA:1037,1
DA:1038,1
DA:1039,1
DA:1040,1
DA:1041,1
DA:1042,1
DA:1043,1
DA:1044,1
DA:1045,1
DA:1046,1
DA:1047,1
DA:1048,1
DA:1049,1
DA:1050,1
DA:1051,1
DA:1052,1
DA:1053,1
DA:1054,1
DA:1055,1
DA:1056,1
DA:1057,1
DA:1058,1
DA:1059,1
DA:1060,1
DA:1061,1
DA:1062,1
DA:1063,1
DA:1064,1
DA:1065,1
DA:1066,1
DA:1067,1
DA:1068,1
DA:1069,1
DA:1070,1
DA:1071,1
DA:1072,1
DA:1073,1
DA:1074,1
DA:1075,1
DA:1076,1
DA:1077,1
DA:1078,1
BRF:0
BRH:0
LF:1257
LH:1205
end_of_record
SF:/Users/renegeers/Source/p2p-ai-agents/src/core/config.rs
FN:398,_RINvMs_NtNtCsazECCRb7Zym_13p2p_ai_agents4core6configNtB5_13ConfigManager14export_to_filepEB9_
FN:188,_RINvMs_NtNtCsazECCRb7Zym_13p2p_ai_agents4core6configNtB5_13ConfigManager14load_from_filepEB9_
FN:402,_RNCINvMs_NtNtCsazECCRb7Zym_13p2p_ai_agents4core6configNtB7_13ConfigManager14export_to_filepE0Bb_
FN:188,_RNCINvMs_NtNtCsazECCRb7Zym_13p2p_ai_agents4core6configNtB7_13ConfigManager14load_from_filepE0Bb_
FN:406,_RNCNCINvMs_NtNtCsazECCRb7Zym_13p2p_ai_agents4core6configNtB9_13ConfigManager14export_to_filepE00Bd_
FN:410,_RNCNCINvMs_NtNtCsazECCRb7Zym_13p2p_ai_agents4core6configNtB9_13ConfigManager14export_to_filepE0s0_0Bd_
FN:420,_RNCNCINvMs_NtNtCsazECCRb7Zym_13p2p_ai_agents4core6configNtB9_13ConfigManager14export_to_filepE0s1_0Bd_
FN:408,_RNCNCINvMs_NtNtCsazECCRb7Zym_13p2p_ai_agents4core6configNtB9_13ConfigManager14export_to_filepE0s_0Bd_
FN:199,_RNCNCINvMs_NtNtCsazECCRb7Zym_13p2p_ai_agents4core6configNtB9_13ConfigManager14load_from_filepE00Bd_
FN:203,_RNCNCINvMs_NtNtCsazECCRb7Zym_13p2p_ai_agents4core6configNtB9_13ConfigManager14load_from_filepE0s0_0Bd_
FN:205,_RNCNCINvMs_NtNtCsazECCRb7Zym_13p2p_ai_agents4core6configNtB9_13ConfigManager14load_from_filepE0s1_0Bd_
FN:207,_RNCNCINvMs_NtNtCsazECCRb7Zym_13p2p_ai_agents4core6configNtB9_13ConfigManager14load_from_filepE0s2_0Bd_
FN:201,_RNCNCINvMs_NtNtCsazECCRb7Zym_13p2p_ai_agents4core6configNtB9_13ConfigManager14load_from_filepE0s_0Bd_
FN:245,_RNCNCNvMs_NtNtCsazECCRb7Zym_13p2p_ai_agents4core6configNtB8_13ConfigManager13load_from_env00Bc_
FN:321,_RNCNCNvMs_NtNtCsazECCRb7Zym_13p2p_ai_agents4core6configNtB8_13ConfigManager3set00Bc_
FN:340,_RNCNCNvMs_NtNtCsazECCRb7Zym_13p2p_ai_agents4core6configNtB8_13ConfigManager3set0s_0Bc_
FN:358,_RNCNvMs_NtNtCsazECCRb7Zym_13p2p_ai_agents4core6configNtB6_13ConfigManager11add_watcher0Ba_
FN:223,_RNCNvMs_NtNtCsazECCRb7Zym_13p2p_ai_agents4core6configNtB6_13ConfigManager13load_from_env0Ba_
FN:296,_RNCNvMs_NtNtCsazECCRb7Zym_13p2p_ai_agents4core6configNtB6_13ConfigManager16get_from_section0Ba_
FN:278,_RNCNvMs_NtNtCsazECCRb7Zym_13p2p_ai_agents4core6configNtB6_13ConfigManager3get0Ba_
FN:309,_RNCNvMs_NtNtCsazECCRb7Zym_13p2p_ai_agents4core6configNtB6_13ConfigManager3set0Ba_
FN:364,_RNCNvMs_NtNtCsazECCRb7Zym_13p2p_ai_agents4core6configNtB6_13ConfigManager7get_all0Ba_
FN:378,_RNCNvMs_NtNtCsazECCRb7Zym_13p2p_ai_agents4core6configNtB6_13ConfigManager8validate0Ba_
FN:56,_RNvMNtNtCsazECCRb7Zym_13p2p_ai_agents4core6configNtB2_11ConfigValue10as_boolean
FN:40,_RNvMNtNtCsazECCRb7Zym_13p2p_ai_agents4core6configNtB2_11ConfigValue10as_integer
FN:64,_RNvMNtNtCsazECCRb7Zym_13p2p_ai_agents4core6configNtB2_11ConfigValue8as_array
FN:48,_RNvMNtNtCsazECCRb7Zym_13p2p_ai_agents4core6configNtB2_11ConfigValue8as_float
FN:72,_RNvMNtNtCsazECCRb7Zym_13p2p_ai_agents4core6configNtB2_11ConfigValue9as_object
FN:32,_RNvMNtNtCsazECCRb7Zym_13p2p_ai_agents4core6configNtB2_11ConfigValue9as_string
FN:358,_RNvMs_NtNtCsazECCRb7Zym_13p2p_ai_agents4core6configNtB4_13ConfigManager11add_watcher
FN:223,_RNvMs_NtNtCsazECCRb7Zym_13p2p_ai_agents4core6configNtB4_13ConfigManager13load_from_env
FN:259,_RNvMs_NtNtCsazECCRb7Zym_13p2p_ai_agents4core6configNtB4_13ConfigManager15parse_env_value
FN:292,_RNvMs_NtNtCsazECCRb7Zym_13p2p_ai_agents4core6configNtB4_13ConfigManager16get_from_section
FN:278,_RNvMs_NtNtCsazECCRb7Zym_13p2p_ai_agents4core6configNtB4_13ConfigManager3get
FN:176,_RNvMs_NtNtCsazECCRb7Zym_13p2p_ai_agents4core6configNtB4_13ConfigManager3new
FN:309,_RNvMs_NtNtCsazECCRb7Zym_13p2p_ai_agents4core6configNtB4_13ConfigManager3set
FN:364,_RNvMs_NtNtCsazECCRb7Zym_13p2p_ai_agents4core6configNtB4_13ConfigManager7get_all
FN:378,_RNvMs_NtNtCsazECCRb7Zym_13p2p_ai_agents4core6configNtB4_13ConfigManager8validate
FN:427,_RNvXs0_NtNtCsazECCRb7Zym_13p2p_ai_agents4core6configNtB5_13ConfigManagerNtNtCsaTRkahAGrLL_4core7default7Default7default
FN:398,_RINvMs_NtNtCs4ZEr9HMJnjR_13p2p_ai_agents4core6configNtB5_13ConfigManager14export_to_filepEB9_
FN:402,_RNCINvMs_NtNtCs4ZEr9HMJnjR_13p2p_ai_agents4core6configNtB7_13ConfigManager14export_to_filepE0Bb_
FN:406,_RNCNCINvMs_NtNtCs4ZEr9HMJnjR_13p2p_ai_agents4core6configNtB9_13ConfigManager14export_to_filepE00Bd_
FN:410,_RNCNCINvMs_NtNtCs4ZEr9HMJnjR_13p2p_ai_agents4core6configNtB9_13ConfigManager14export_to_filepE0s0_0Bd_
FN:420,_RNCNCINvMs_NtNtCs4ZEr9HMJnjR_13p2p_ai_agents4core6configNtB9_13ConfigManager14export_to_filepE0s1_0Bd_
FN:408,_RNCNCINvMs_NtNtCs4ZEr9HMJnjR_13p2p_ai_agents4core6configNtB9_13ConfigManager14export_to_filepE0s_0Bd_
FN:296,_RNCNvMs_NtNtCs4ZEr9HMJnjR_13p2p_ai_agents4core6configNtB6_13ConfigManager16get_from_section0Ba_
FN:364,_RNCNvMs_NtNtCs4ZEr9HMJnjR_13p2p_ai_agents4core6configNtB6_13ConfigManager7get_all0Ba_
FN:56,_RNvMNtNtCs4ZEr9HMJnjR_13p2p_ai_agents4core6configNtB2_11ConfigValue10as_boolean
FN:40,_RNvMNtNtCs4ZEr9HMJnjR_13p2p_ai_agents4core6configNtB2_11ConfigValue10as_integer
FN:64,_RNvMNtNtCs4ZEr9HMJnjR_13p2p_ai_agents4core6configNtB2_11ConfigValue8as_array
FN:48,_RNvMNtNtCs4ZEr9HMJnjR_13p2p_ai_agents4core6configNtB2_11ConfigValue8as_float
FN:72,_RNvMNtNtCs4ZEr9HMJnjR_13p2p_ai_agents4core6configNtB2_11ConfigValue9as_object
FN:32,_RNvMNtNtCs4ZEr9HMJnjR_13p2p_ai_agents4core6configNtB2_11ConfigValue9as_string
FN:292,_RNvMs_NtNtCs4ZEr9HMJnjR_13p2p_ai_agents4core6configNtB4_13ConfigManager16get_from_section
FN:364,_RNvMs_NtNtCs4ZEr9HMJnjR_13p2p_ai_agents4core6configNtB4_13ConfigManager7get_all
FN:427,_RNvXs0_NtNtCs4ZEr9HMJnjR_13p2p_ai_agents4core6configNtB5_13ConfigManagerNtNtCsaTRkahAGrLL_4core7default7Default7default
FN:473,_RNCNvNtNtNtCs4ZEr9HMJnjR_13p2p_ai_agents4core6config5testss_28test_config_manager_watchers0B9_
FN:499,_RNCNvNtNtNtCs4ZEr9HMJnjR_13p2p_ai_agents4core6config5testss_30test_config_manager_validation0B9_
FN:458,_RNCNvNtNtNtCs4ZEr9HMJnjR_13p2p_ai_agents4core6config5testss_36test_config_manager_basic_operations0B9_
FN:450,_RNCNvXNtNtNtCs4ZEr9HMJnjR_13p2p_ai_agents4core6config5testsNtB4_17TestConfigWatcherNtB6_13ConfigWatcher16on_config_change0Ba_
FN:473,_RNvNtNtNtCs4ZEr9HMJnjR_13p2p_ai_agents4core6config5testss_28test_config_manager_watchers
FN:499,_RNvNtNtNtCs4ZEr9HMJnjR_13p2p_ai_agents4core6config5testss_30test_config_manager_validation
FN:458,_RNvNtNtNtCs4ZEr9HMJnjR_13p2p_ai_agents4core6config5testss_36test_config_manager_basic_operations
FN:442,_RNvXNtNtNtCs4ZEr9HMJnjR_13p2p_ai_agents4core6config5testsNtB2_17TestConfigWatcherNtB4_13ConfigWatcher16on_config_change
FN:188,_RINvMs_NtNtCs4ZEr9HMJnjR_13p2p_ai_agents4core6configNtB5_13ConfigManager14load_from_fileReEB9_
FN:188,_RNCINvMs_NtNtCs4ZEr9HMJnjR_13p2p_ai_agents4core6configNtB7_13ConfigManager14load_from_fileReE0Bb_
FN:199,_RNCNCINvMs_NtNtCs4ZEr9HMJnjR_13p2p_ai_agents4core6configNtB9_13ConfigManager14load_from_fileReE00Bd_
FN:203,_RNCNCINvMs_NtNtCs4ZEr9HMJnjR_13p2p_ai_agents4core6configNtB9_13ConfigManager14load_from_fileReE0s0_0Bd_
FN:205,_RNCNCINvMs_NtNtCs4ZEr9HMJnjR_13p2p_ai_agents4core6configNtB9_13ConfigManager14load_from_fileReE0s1_0Bd_
FN:207,_RNCNCINvMs_NtNtCs4ZEr9HMJnjR_13p2p_ai_agents4core6configNtB9_13ConfigManager14load_from_fileReE0s2_0Bd_
FN:201,_RNCNCINvMs_NtNtCs4ZEr9HMJnjR_13p2p_ai_agents4core6configNtB9_13ConfigManager14load_from_fileReE0s_0Bd_
FN:245,_RNCNCNvMs_NtNtCs4ZEr9HMJnjR_13p2p_ai_agents4core6configNtB8_13ConfigManager13load_from_env00Bc_
FN:321,_RNCNCNvMs_NtNtCs4ZEr9HMJnjR_13p2p_ai_agents4core6configNtB8_13ConfigManager3set00Bc_
FN:340,_RNCNCNvMs_NtNtCs4ZEr9HMJnjR_13p2p_ai_agents4core6configNtB8_13ConfigManager3set0s_0Bc_
FN:358,_RNCNvMs_NtNtCs4ZEr9HMJnjR_13p2p_ai_agents4core6configNtB6_13ConfigManager11add_watcher0Ba_
FN:223,_RNCNvMs_NtNtCs4ZEr9HMJnjR_13p2p_ai_agents4core6configNtB6_13ConfigManager13load_from_env0Ba_
FN:278,_RNCNvMs_NtNtCs4ZEr9HMJnjR_13p2p_ai_agents4core6configNtB6_13ConfigManager3get0Ba_
FN:309,_RNCNvMs_NtNtCs4ZEr9HMJnjR_13p2p_ai_agents4core6configNtB6_13ConfigManager3set0Ba_
FN:378,_RNCNvMs_NtNtCs4ZEr9HMJnjR_13p2p_ai_agents4core6configNtB6_13ConfigManager8validate0Ba_
FN:358,_RNvMs_NtNtCs4ZEr9HMJnjR_13p2p_ai_agents4core6configNtB4_13ConfigManager11add_watcher
FN:223,_RNvMs_NtNtCs4ZEr9HMJnjR_13p2p_ai_agents4core6configNtB4_13ConfigManager13load_from_env
FN:259,_RNvMs_NtNtCs4ZEr9HMJnjR_13p2p_ai_agents4core6configNtB4_13ConfigManager15parse_env_value
FN:278,_RNvMs_NtNtCs4ZEr9HMJnjR_13p2p_ai_agents4core6configNtB4_13ConfigManager3get
FN:176,_RNvMs_NtNtCs4ZEr9HMJnjR_13p2p_ai_agents4core6configNtB4_13ConfigManager3new
FN:309,_RNvMs_NtNtCs4ZEr9HMJnjR_13p2p_ai_agents4core6configNtB4_13ConfigManager3set
FN:378,_RNvMs_NtNtCs4ZEr9HMJnjR_13p2p_ai_agents4core6configNtB4_13ConfigManager8validate
FNDA:0,_RINvMs_NtNtCsazECCRb7Zym_13p2p_ai_agents4core6configNtB5_13ConfigManager14export_to_filepEB9_
FNDA:0,_RINvMs_NtNtCsazECCRb7Zym_13p2p_ai_agents4core6configNtB5_13ConfigManager14load_from_filepEB9_
FNDA:0,_RNCINvMs_NtNtCsazECCRb7Zym_13p2p_ai_agents4core6configNtB7_13ConfigManager14export_to_filepE0Bb_
FNDA:0,_RNCINvMs_NtNtCsazECCRb7Zym_13p2p_ai_agents4core6configNtB7_13ConfigManager14load_from_filepE0Bb_
FNDA:0,_RNCNCINvMs_NtNtCsazECCRb7Zym_13p2p_ai_agents4core6configNtB9_13ConfigManager14export_to_filepE00Bd_
FNDA:0,_RNCNCINvMs_NtNtCsazECCRb7Zym_13p2p_ai_agents4core6configNtB9_13ConfigManager14export_to_filepE0s0_0Bd_
FNDA:0,_RNCNCINvMs_NtNtCsazECCRb7Zym_13p2p_ai_agents4core6configNtB9_13ConfigManager14export_to_filepE0s1_0Bd_
FNDA:0,_RNCNCINvMs_NtNtCsazECCRb7Zym_13p2p_ai_agents4core6configNtB9_13ConfigManager14export_to_filepE0s_0Bd_
FNDA:0,_RNCNCINvMs_NtNtCsazECCRb7Zym_13p2p_ai_agents4core6configNtB9_13ConfigManager14load_from_filepE00Bd_
FNDA:0,_RNCNCINvMs_NtNtCsazECCRb7Zym_13p2p_ai_agents4core6configNtB9_13ConfigManager14load_from_filepE0s0_0Bd_
FNDA:0,_RNCNCINvMs_NtNtCsazECCRb7Zym_13p2p_ai_agents4core6configNtB9_13ConfigManager14load_from_filepE0s1_0Bd_
FNDA:0,_RNCNCINvMs_NtNtCsazECCRb7Zym_13p2p_ai_agents4core6configNtB9_13ConfigManager14load_from_filepE0s2_0Bd_
FNDA:0,_RNCNCINvMs_NtNtCsazECCRb7Zym_13p2p_ai_agents4core6configNtB9_13ConfigManager14load_from_filepE0s_0Bd_
FNDA:0,_RNCNCNvMs_NtNtCsazECCRb7Zym_13p2p_ai_agents4core6configNtB8_13ConfigManager13load_from_env00Bc_
FNDA:0,_RNCNCNvMs_NtNtCsazECCRb7Zym_13p2p_ai_agents4core6configNtB8_13ConfigManager3set00Bc_
FNDA:0,_RNCNCNvMs_NtNtCsazECCRb7Zym_13p2p_ai_agents4core6configNtB8_13ConfigManager3set0s_0Bc_
FNDA:0,_RNCNvMs_NtNtCsazECCRb7Zym_13p2p_ai_agents4core6configNtB6_13ConfigManager11add_watcher0Ba_
FNDA:0,_RNCNvMs_NtNtCsazECCRb7Zym_13p2p_ai_agents4core6configNtB6_13ConfigManager13load_from_env0Ba_
FNDA:0,_RNCNvMs_NtNtCsazECCRb7Zym_13p2p_ai_agents4core6configNtB6_13ConfigManager16get_from_section0Ba_
FNDA:0,_RNCNvMs_NtNtCsazECCRb7Zym_13p2p_ai_agents4core6configNtB6_13ConfigManager3get0Ba_
FNDA:0,_RNCNvMs_NtNtCsazECCRb7Zym_13p2p_ai_agents4core6configNtB6_13ConfigManager3set0Ba_
FNDA:0,_RNCNvMs_NtNtCsazECCRb7Zym_13p2p_ai_agents4core6configNtB6_13ConfigManager7get_all0Ba_
FNDA:0,_RNCNvMs_NtNtCsazECCRb7Zym_13p2p_ai_agents4core6configNtB6_13ConfigManager8validate0Ba_
FNDA:0,_RNvMNtNtCsazECCRb7Zym_13p2p_ai_agents4core6configNtB2_11ConfigValue10as_boolean
FNDA:0,_RNvMNtNtCsazECCRb7Zym_13p2p_ai_agents4core6configNtB2_11ConfigValue10as_integer
FNDA:0,_RNvMNtNtCsazECCRb7Zym_13p2p_ai_agents4core6configNtB2_11ConfigValue8as_array
FNDA:0,_RNvMNtNtCsazECCRb7Zym_13p2p_ai_agents4core6configNtB2_11ConfigValue8as_float
FNDA:0,_RNvMNtNtCsazECCRb7Zym_13p2p_ai_agents4core6configNtB2_11ConfigValue9as_object
FNDA:0,_RNvMNtNtCsazECCRb7Zym_13p2p_ai_agents4core6configNtB2_11ConfigValue9as_string
FNDA:0,_RNvMs_NtNtCsazECCRb7Zym_13p2p_ai_agents4core6configNtB4_13ConfigManager11add_watcher
FNDA:0,_RNvMs_NtNtCsazECCRb7Zym_13p2p_ai_agents4core6configNtB4_13ConfigManager13load_from_env
FNDA:0,_RNvMs_NtNtCsazECCRb7Zym_13p2p_ai_agents4core6configNtB4_13ConfigManager15parse_env_value
FNDA:0,_RNvMs_NtNtCsazECCRb7Zym_13p2p_ai_agents4core6configNtB4_13ConfigManager16get_from_section
FNDA:0,_RNvMs_NtNtCsazECCRb7Zym_13p2p_ai_agents4core6configNtB4_13ConfigManager3get
FNDA:3,_RNvMs_NtNtCsazECCRb7Zym_13p2p_ai_agents4core6configNtB4_13ConfigManager3new
FNDA:0,_RNvMs_NtNtCsazECCRb7Zym_13p2p_ai_agents4core6configNtB4_13ConfigManager3set
FNDA:0,_RNvMs_NtNtCsazECCRb7Zym_13p2p_ai_agents4core6configNtB4_13ConfigManager7get_all
FNDA:0,_RNvMs_NtNtCsazECCRb7Zym_13p2p_ai_agents4core6configNtB4_13ConfigManager8validate
FNDA:0,_RNvXs0_NtNtCsazECCRb7Zym_13p2p_ai_agents4core6configNtB5_13ConfigManagerNtNtCsaTRkahAGrLL_4core7default7Default7default
FNDA:0,_RINvMs_NtNtCs4ZEr9HMJnjR_13p2p_ai_agents4core6configNtB5_13ConfigManager14export_to_filepEB9_
FNDA:0,_RNCINvMs_NtNtCs4ZEr9HMJnjR_13p2p_ai_agents4core6configNtB7_13ConfigManager14export_to_filepE0Bb_
FNDA:0,_RNCNCINvMs_NtNtCs4ZEr9HMJnjR_13p2p_ai_agents4core6configNtB9_13ConfigManager14export_to_filepE00Bd_
FNDA:0,_RNCNCINvMs_NtNtCs4ZEr9HMJnjR_13p2p_ai_agents4core6configNtB9_13ConfigManager14export_to_filepE0s0_0Bd_
FNDA:0,_RNCNCINvMs_NtNtCs4ZEr9HMJnjR_13p2p_ai_agents4core6configNtB9_13ConfigManager14export_to_filepE0s1_0Bd_
FNDA:0,_RNCNCINvMs_NtNtCs4ZEr9HMJnjR_13p2p_ai_agents4core6configNtB9_13ConfigManager14export_to_filepE0s_0Bd_
FNDA:0,_RNCNvMs_NtNtCs4ZEr9HMJnjR_13p2p_ai_agents4core6configNtB6_13ConfigManager16get_from_section0Ba_
FNDA:0,_RNCNvMs_NtNtCs4ZEr9HMJnjR_13p2p_ai_agents4core6configNtB6_13ConfigManager7get_all0Ba_
FNDA:0,_RNvMNtNtCs4ZEr9HMJnjR_13p2p_ai_agents4core6configNtB2_11ConfigValue10as_boolean
FNDA:0,_RNvMNtNtCs4ZEr9HMJnjR_13p2p_ai_agents4core6configNtB2_11ConfigValue10as_integer
FNDA:0,_RNvMNtNtCs4ZEr9HMJnjR_13p2p_ai_agents4core6configNtB2_11ConfigValue8as_array
FNDA:0,_RNvMNtNtCs4ZEr9HMJnjR_13p2p_ai_agents4core6configNtB2_11ConfigValue8as_float
FNDA:0,_RNvMNtNtCs4ZEr9HMJnjR_13p2p_ai_agents4core6configNtB2_11ConfigValue9as_object
FNDA:0,_RNvMNtNtCs4ZEr9HMJnjR_13p2p_ai_agents4core6configNtB2_11ConfigValue9as_string
FNDA:0,_RNvMs_NtNtCs4ZEr9HMJnjR_13p2p_ai_agents4core6configNtB4_13ConfigManager16get_from_section
FNDA:0,_RNvMs_NtNtCs4ZEr9HMJnjR_13p2p_ai_agents4core6configNtB4_13ConfigManager7get_all
FNDA:0,_RNvXs0_NtNtCs4ZEr9HMJnjR_13p2p_ai_agents4core6configNtB5_13ConfigManagerNtNtCsaTRkahAGrLL_4core7default7Default7default
FNDA:1,_RNCNvNtNtNtCs4ZEr9HMJnjR_13p2p_ai_agents4core6config5testss_28test_config_manager_watchers0B9_
FNDA:1,_RNCNvNtNtNtCs4ZEr9HMJnjR_13p2p_ai_agents4core6config5testss_30test_config_manager_validation0B9_
FNDA:1,_RNCNvNtNtNtCs4ZEr9HMJnjR_13p2p_ai_agents4core6config5testss_36test_config_manager_basic_operations0B9_
FNDA:1,_RNCNvXNtNtNtCs4ZEr9HMJnjR_13p2p_ai_agents4core6config5testsNtB4_17TestConfigWatcherNtB6_13ConfigWatcher16on_config_change0Ba_
FNDA:1,_RNvNtNtNtCs4ZEr9HMJnjR_13p2p_ai_agents4core6config5testss_28test_config_manager_watchers
FNDA:1,_RNvNtNtNtCs4ZEr9HMJnjR_13p2p_ai_agents4core6config5testss_30test_config_manager_validation
FNDA:1,_RNvNtNtNtCs4ZEr9HMJnjR_13p2p_ai_agents4core6config5testss_36test_config_manager_basic_operations
FNDA:1,_RNvXNtNtNtCs4ZEr9HMJnjR_13p2p_ai_agents4core6config5testsNtB2_17TestConfigWatcherNtB4_13ConfigWatcher16on_config_change
FNDA:1,_RINvMs_NtNtCs4ZEr9HMJnjR_13p2p_ai_agents4core6configNtB5_13ConfigManager14load_from_fileReEB9_
FNDA:1,_RNCINvMs_NtNtCs4ZEr9HMJnjR_13p2p_ai_agents4core6configNtB7_13ConfigManager14load_from_fileReE0Bb_
FNDA:0,_RNCNCINvMs_NtNtCs4ZEr9HMJnjR_13p2p_ai_agents4core6configNtB9_13ConfigManager14load_from_fileReE00Bd_
FNDA:0,_RNCNCINvMs_NtNtCs4ZEr9HMJnjR_13p2p_ai_agents4core6configNtB9_13ConfigManager14load_from_fileReE0s0_0Bd_
FNDA:0,_RNCNCINvMs_NtNtCs4ZEr9HMJnjR_13p2p_ai_agents4core6configNtB9_13ConfigManager14load_from_fileReE0s1_0Bd_
FNDA:0,_RNCNCINvMs_NtNtCs4ZEr9HMJnjR_13p2p_ai_agents4core6configNtB9_13ConfigManager14load_from_fileReE0s2_0Bd_
FNDA:0,_RNCNCINvMs_NtNtCs4ZEr9HMJnjR_13p2p_ai_agents4core6configNtB9_13ConfigManager14load_from_fileReE0s_0Bd_
FNDA:0,_RNCNCNvMs_NtNtCs4ZEr9HMJnjR_13p2p_ai_agents4core6configNtB8_13ConfigManager13load_from_env00Bc_
FNDA:3,_RNCNCNvMs_NtNtCs4ZEr9HMJnjR_13p2p_ai_agents4core6configNtB8_13ConfigManager3set00Bc_
FNDA:3,_RNCNCNvMs_NtNtCs4ZEr9HMJnjR_13p2p_ai_agents4core6configNtB8_13ConfigManager3set0s_0Bc_
FNDA:1,_RNCNvMs_NtNtCs4ZEr9HMJnjR_13p2p_ai_agents4core6configNtB6_13ConfigManager11add_watcher0Ba_
FNDA:1,_RNCNvMs_NtNtCs4ZEr9HMJnjR_13p2p_ai_agents4core6configNtB6_13ConfigManager13load_from_env0Ba_
FNDA:1,_RNCNvMs_NtNtCs4ZEr9HMJnjR_13p2p_ai_agents4core6configNtB6_13ConfigManager3get0Ba_
FNDA:3,_RNCNvMs_NtNtCs4ZEr9HMJnjR_13p2p_ai_agents4core6configNtB6_13ConfigManager3set0Ba_
FNDA:2,_RNCNvMs_NtNtCs4ZEr9HMJnjR_13p2p_ai_agents4core6configNtB6_13ConfigManager8validate0Ba_
FNDA:1,_RNvMs_NtNtCs4ZEr9HMJnjR_13p2p_ai_agents4core6configNtB4_13ConfigManager11add_watcher
FNDA:1,_RNvMs_NtNtCs4ZEr9HMJnjR_13p2p_ai_agents4core6configNtB4_13ConfigManager13load_from_env
FNDA:0,_RNvMs_NtNtCs4ZEr9HMJnjR_13p2p_ai_agents4core6configNtB4_13ConfigManager15parse_env_value
FNDA:1,_RNvMs_NtNtCs4ZEr9HMJnjR_13p2p_ai_agents4core6configNtB4_13ConfigManager3get
FNDA:7,_RNvMs_NtNtCs4ZEr9HMJnjR_13p2p_ai_agents4core6configNtB4_13ConfigManager3new
FNDA:3,_RNvMs_NtNtCs4ZEr9HMJnjR_13p2p_ai_agents4core6configNtB4_13ConfigManager3set
FNDA:2,_RNvMs_NtNtCs4ZEr9HMJnjR_13p2p_ai_agents4core6configNtB4_13ConfigManager8validate
FNF:47
FNH:23
DA:32,0
DA:33,0
DA:34,0
DA:35,0
DA:37,0
DA:40,0
DA:41,0
DA:42,0
DA:43,0
DA:45,0
DA:48,0
DA:49,0
DA:50,0
DA:51,0
DA:53,0
DA:56,0
DA:57,0
DA:58,0
DA:59,0
DA:61,0
DA:64,0
DA:65,0
DA:66,0
DA:67,0
DA:69,0
DA:72,0
DA:73,0
DA:74,0
DA:75,0
DA:77,0
DA:176,10
DA:177,10
DA:178,10
DA:179,10
DA:180,10
DA:181,10
DA:182,10
DA:183,10
DA:184,10
DA:185,10
DA:188,1
DA:189,1
DA:190,1
DA:191,1
DA:192,1
DA:193,1
DA:194,1
DA:195,0
DA:197,0
DA:198,0
DA:199,0
DA:201,0
DA:202,0
DA:203,0
DA:204,0
DA:205,0
DA:206,0
DA:207,0
DA:210,0
DA:211,0
DA:212,0
DA:216,0
DA:217,0
DA:218,0
DA:219,0
DA:220,1
DA:223,1
DA:224,1
DA:226,86
DA:227,85
DA:228,0
DA:229,0
DA:231,0
DA:232,0
DA:233,0
DA:234,0
DA:235,0
DA:236,0
DA:237,0
DA:238,0
DA:239,0
DA:240,0
DA:241,0
DA:242,0
DA:243,0
DA:244,0
DA:245,0
DA:246,0
DA:247,0
DA:248,0
DA:249,0
DA:250,0
DA:251,0
DA:252,85
DA:255,1
DA:256,1
DA:259,0
DA:261,0
DA:262,0
DA:263,0
DA:265,0
DA:266,0
DA:267,0
DA:269,0
DA:270,0
DA:271,0
DA:272,0
DA:273,0
DA:274,0
DA:275,0
DA:278,1
DA:279,1
DA:282,1
DA:283,1
DA:284,1
DA:285,0
DA:288,0
DA:289,1
DA:292,0
DA:293,0
DA:294,0
DA:295,0
DA:296,0
DA:297,0
DA:299,0
DA:300,0
DA:301,0
DA:302,0
DA:303,0
DA:305,0
DA:306,0
DA:309,3
DA:310,3
DA:313,3
DA:314,3
DA:315,0
DA:316,0
DA:317,0
DA:318,0
DA:321,3
DA:322,3
DA:323,3
DA:324,3
DA:325,3
DA:326,3
DA:327,3
DA:328,3
DA:329,3
DA:330,3
DA:331,3
DA:332,3
DA:333,3
DA:334,3
DA:335,3
DA:336,3
DA:337,3
DA:338,3
DA:339,3
DA:340,3
DA:341,3
DA:342,3
DA:343,3
DA:344,3
DA:345,3
DA:346,3
DA:349,3
DA:350,3
DA:351,1
DA:352,1
DA:354,3
DA:355,3
DA:358,1
DA:359,1
DA:360,1
DA:361,1
DA:364,0
DA:365,0
DA:366,0
DA:368,0
DA:369,0
DA:370,0
DA:371,0
DA:374,0
DA:375,0
DA:378,2
DA:379,2
DA:381,2
DA:382,1
DA:383,1
DA:384,1
DA:386,1
DA:387,1
DA:388,1
DA:389,1
DA:390,0
DA:394,1
DA:395,2
DA:398,0
DA:399,0
DA:400,0
DA:401,0
DA:402,0
DA:403,0
DA:404,0
DA:405,0
DA:406,0
DA:407,0
DA:408,0
DA:409,0
DA:410,0
DA:412,0
DA:413,0
DA:414,0
DA:418,0
DA:419,0
DA:420,0
DA:422,0
DA:423,0
DA:427,0
DA:428,0
DA:429,0
DA:442,1
DA:443,1
DA:444,1
DA:445,1
DA:446,1
DA:447,1
DA:448,1
DA:449,1
DA:450,1
DA:451,1
DA:452,1
DA:453,1
DA:454,1
DA:458,1
DA:459,1
DA:460,1
DA:461,1
DA:462,1
DA:463,1
DA:464,1
DA:465,1
DA:466,1
DA:467,1
DA:468,1
DA:469,1
DA:470,1
DA:473,1
DA:474,1
DA:475,1
DA:476,1
DA:477,1
DA:478,1
DA:479,1
DA:480,1
DA:481,1
DA:482,1
DA:483,1
DA:484,1
DA:485,1
DA:486,1
DA:487,1
DA:488,1
DA:489,1
DA:490,1
DA:491,1
DA:492,1
DA:493,1
DA:494,1
DA:495,1
DA:496,1
DA:499,1
DA:500,1
DA:501,1
DA:502,1
DA:503,1
DA:504,1
DA:505,1
DA:506,1
DA:507,1
DA:508,1
DA:509,1
DA:510,1
DA:511,1
DA:512,1
DA:513,1
DA:514,1
DA:515,1
DA:516,1
DA:517,1
DA:518,1
DA:519,1
DA:520,1
BRF:0
BRH:0
LF:365
LH:212
end_of_record
SF:/Users/renegeers/Source/p2p-ai-agents/src/core/container.rs
FN:206,_RINvMNtNtCsazECCRb7Zym_13p2p_ai_agents4core9containerNtB3_9Container13is_registeredpEB7_
FN:112,_RINvMNtNtCsazECCRb7Zym_13p2p_ai_agents4core9containerNtB3_9Container15register_scopedppEB7_
FN:102,_RINvMNtNtCsazECCRb7Zym_13p2p_ai_agents4core9containerNtB3_9Container18register_singletonppEB7_
FN:122,_RINvMNtNtCsazECCRb7Zym_13p2p_ai_agents4core9containerNtB3_9Container18register_transientppEB7_
FN:132,_RINvMNtNtCsazECCRb7Zym_13p2p_ai_agents4core9containerNtB3_9Container7resolvepEB7_
FN:73,_RINvMNtNtCsazECCRb7Zym_13p2p_ai_agents4core9containerNtB3_9Container8registerppEB7_
FN:209,_RNCINvMNtNtCsazECCRb7Zym_13p2p_ai_agents4core9containerNtB5_9Container13is_registeredpE0B9_
FN:116,_RNCINvMNtNtCsazECCRb7Zym_13p2p_ai_agents4core9containerNtB5_9Container15register_scopedppE0B9_
FN:106,_RNCINvMNtNtCsazECCRb7Zym_13p2p_ai_agents4core9containerNtB5_9Container18register_singletonppE0B9_
FN:126,_RNCINvMNtNtCsazECCRb7Zym_13p2p_ai_agents4core9containerNtB5_9Container18register_transientppE0B9_
FN:135,_RNCINvMNtNtCsazECCRb7Zym_13p2p_ai_agents4core9containerNtB5_9Container7resolvepE0B9_
FN:81,_RNCINvMNtNtCsazECCRb7Zym_13p2p_ai_agents4core9containerNtB5_9Container8registerppE0B9_
FN:139,_RNCNCINvMNtNtCsazECCRb7Zym_13p2p_ai_agents4core9containerNtB7_9Container7resolvepE00Bb_
FN:156,_RNCNCINvMNtNtCsazECCRb7Zym_13p2p_ai_agents4core9containerNtB7_9Container7resolvepE0s0_0Bb_
FN:169,_RNCNCINvMNtNtCsazECCRb7Zym_13p2p_ai_agents4core9containerNtB7_9Container7resolvepE0s1_0Bb_
FN:177,_RNCNCINvMNtNtCsazECCRb7Zym_13p2p_ai_agents4core9containerNtB7_9Container7resolvepE0s2_0Bb_
FN:189,_RNCNCINvMNtNtCsazECCRb7Zym_13p2p_ai_agents4core9containerNtB7_9Container7resolvepE0s3_0Bb_
FN:147,_RNCNCINvMNtNtCsazECCRb7Zym_13p2p_ai_agents4core9containerNtB7_9Container7resolvepE0s_0Bb_
FN:220,_RNCNCNvMNtNtCsazECCRb7Zym_13p2p_ai_agents4core9containerNtB6_9Container19registered_services00Ba_
FN:200,_RNCNvMNtNtCsazECCRb7Zym_13p2p_ai_agents4core9containerNtB4_9Container12clear_scoped0B8_
FN:216,_RNCNvMNtNtCsazECCRb7Zym_13p2p_ai_agents4core9containerNtB4_9Container19registered_services0B8_
FN:200,_RNvMNtNtCsazECCRb7Zym_13p2p_ai_agents4core9containerNtB2_9Container12clear_scoped
FN:216,_RNvMNtNtCsazECCRb7Zym_13p2p_ai_agents4core9containerNtB2_9Container19registered_services
FN:65,_RNvMNtNtCsazECCRb7Zym_13p2p_ai_agents4core9containerNtB2_9Container3new
FN:226,_RNvXs_NtNtCsazECCRb7Zym_13p2p_ai_agents4core9containerNtB4_9ContainerNtNtCsaTRkahAGrLL_4core7default7Default7default
FN:206,_RINvMNtNtCs4ZEr9HMJnjR_13p2p_ai_agents4core9containerNtB3_9Container13is_registeredpEB7_
FN:112,_RINvMNtNtCs4ZEr9HMJnjR_13p2p_ai_agents4core9containerNtB3_9Container15register_scopedppEB7_
FN:122,_RINvMNtNtCs4ZEr9HMJnjR_13p2p_ai_agents4core9containerNtB3_9Container18register_transientppEB7_
FN:209,_RNCINvMNtNtCs4ZEr9HMJnjR_13p2p_ai_agents4core9containerNtB5_9Container13is_registeredpE0B9_
FN:116,_RNCINvMNtNtCs4ZEr9HMJnjR_13p2p_ai_agents4core9containerNtB5_9Container15register_scopedppE0B9_
FN:126,_RNCINvMNtNtCs4ZEr9HMJnjR_13p2p_ai_agents4core9containerNtB5_9Container18register_transientppE0B9_
FN:220,_RNCNCNvMNtNtCs4ZEr9HMJnjR_13p2p_ai_agents4core9containerNtB6_9Container19registered_services00Ba_
FN:200,_RNCNvMNtNtCs4ZEr9HMJnjR_13p2p_ai_agents4core9containerNtB4_9Container12clear_scoped0B8_
FN:216,_RNCNvMNtNtCs4ZEr9HMJnjR_13p2p_ai_agents4core9containerNtB4_9Container19registered_services0B8_
FN:200,_RNvMNtNtCs4ZEr9HMJnjR_13p2p_ai_agents4core9containerNtB2_9Container12clear_scoped
FN:216,_RNvMNtNtCs4ZEr9HMJnjR_13p2p_ai_agents4core9containerNtB2_9Container19registered_services
FN:226,_RNvXs_NtNtCs4ZEr9HMJnjR_13p2p_ai_agents4core9containerNtB4_9ContainerNtNtCsaTRkahAGrLL_4core7default7Default7default
FN:237,_RNvXNCNvNtNtCs4ZEr9HMJnjR_13p2p_ai_agents4core12system_testss_43test_complete_agent_lifecycle_with_security0NtB2_18ServiceFactoryImplNtNtB8_9container14ServiceFactory6create
FN:237,_RNvXNCNvNtNtCs4ZEr9HMJnjR_13p2p_ai_agents4core12system_testss_43test_system_resource_management_and_cleanup0NtB2_18ServiceFactoryImplNtNtB8_9container14ServiceFactory6create
FN:65,_RNvMNtNtCs4ZEr9HMJnjR_13p2p_ai_agents4core9containerNtB2_9Container3new
FN:102,_RINvMNtNtCs4ZEr9HMJnjR_13p2p_ai_agents4core9containerNtB3_9Container18register_singletonNtNtB3_5tests11TestServiceNtNCNvB1q_s_33test_container_already_registered018ServiceFactoryImplEB7_
FN:102,_RINvMNtNtCs4ZEr9HMJnjR_13p2p_ai_agents4core9containerNtB3_9Container18register_singletonNtNtB3_5tests11TestServiceNtNCNvB1q_s_33test_container_already_registered0s_18ServiceFactoryImplEB7_
FN:102,_RINvMNtNtCs4ZEr9HMJnjR_13p2p_ai_agents4core9containerNtB3_9Container18register_singletonNtNtB3_5tests11TestServiceNtNCNvB1q_s_42test_container_registration_and_resolution018ServiceFactoryImplEB7_
FN:102,_RINvMNtNtCs4ZEr9HMJnjR_13p2p_ai_agents4core9containerNtB3_9Container18register_singletonNtNtCsfmASsVe1tYz_5alloc6string6StringNtNCNvNtB5_12system_testss_43test_complete_agent_lifecycle_with_security018ServiceFactoryImplEB7_
FN:102,_RINvMNtNtCs4ZEr9HMJnjR_13p2p_ai_agents4core9containerNtB3_9Container18register_singletonNtNtCsfmASsVe1tYz_5alloc6string6StringNtNCNvNtB5_12system_testss_43test_system_resource_management_and_cleanup018ServiceFactoryImplEB7_
FN:102,_RINvMNtNtCs4ZEr9HMJnjR_13p2p_ai_agents4core9containerNtB3_9Container18register_singletonNtNtCsfmASsVe1tYz_5alloc6string6StringNtNCNvNtNtB5_10load_tests20container_load_tests30test_container_operations_load018ServiceFactoryImplEB7_
FN:132,_RINvMNtNtCs4ZEr9HMJnjR_13p2p_ai_agents4core9containerNtB3_9Container7resolveNtNtB3_5tests11TestServiceEB7_
FN:132,_RINvMNtNtCs4ZEr9HMJnjR_13p2p_ai_agents4core9containerNtB3_9Container7resolveNtNtCsfmASsVe1tYz_5alloc6string6StringEB7_
FN:73,_RINvMNtNtCs4ZEr9HMJnjR_13p2p_ai_agents4core9containerNtB3_9Container8registerNtNtB3_5tests11TestServiceNtNCNvB1f_s_33test_container_already_registered018ServiceFactoryImplEB7_
FN:73,_RINvMNtNtCs4ZEr9HMJnjR_13p2p_ai_agents4core9containerNtB3_9Container8registerNtNtB3_5tests11TestServiceNtNCNvB1f_s_33test_container_already_registered0s_18ServiceFactoryImplEB7_
FN:73,_RINvMNtNtCs4ZEr9HMJnjR_13p2p_ai_agents4core9containerNtB3_9Container8registerNtNtB3_5tests11TestServiceNtNCNvB1f_s_42test_container_registration_and_resolution018ServiceFactoryImplEB7_
FN:73,_RINvMNtNtCs4ZEr9HMJnjR_13p2p_ai_agents4core9containerNtB3_9Container8registerNtNtCsfmASsVe1tYz_5alloc6string6StringNtNCNvNtB5_12system_testss_43test_complete_agent_lifecycle_with_security018ServiceFactoryImplEB7_
FN:73,_RINvMNtNtCs4ZEr9HMJnjR_13p2p_ai_agents4core9containerNtB3_9Container8registerNtNtCsfmASsVe1tYz_5alloc6string6StringNtNCNvNtB5_12system_testss_43test_system_resource_management_and_cleanup018ServiceFactoryImplEB7_
FN:73,_RINvMNtNtCs4ZEr9HMJnjR_13p2p_ai_agents4core9containerNtB3_9Container8registerNtNtCsfmASsVe1tYz_5alloc6string6StringNtNCNvNtNtB5_10load_tests20container_load_tests30test_container_operations_load018ServiceFactoryImplEB7_
FN:106,_RNCINvMNtNtCs4ZEr9HMJnjR_13p2p_ai_agents4core9containerNtB5_9Container18register_singletonNtNtB5_5tests11TestServiceNtNCNvB1s_s_33test_container_already_registered018ServiceFactoryImplE0B9_
FN:106,_RNCINvMNtNtCs4ZEr9HMJnjR_13p2p_ai_agents4core9containerNtB5_9Container18register_singletonNtNtB5_5tests11TestServiceNtNCNvB1s_s_33test_container_already_registered0s_18ServiceFactoryImplE0B9_
FN:106,_RNCINvMNtNtCs4ZEr9HMJnjR_13p2p_ai_agents4core9containerNtB5_9Container18register_singletonNtNtB5_5tests11TestServiceNtNCNvB1s_s_42test_container_registration_and_resolution018ServiceFactoryImplE0B9_
FN:106,_RNCINvMNtNtCs4ZEr9HMJnjR_13p2p_ai_agents4core9containerNtB5_9Container18register_singletonNtNtCsfmASsVe1tYz_5alloc6string6StringNtNCNvNtB7_12system_testss_43test_complete_agent_lifecycle_with_security018ServiceFactoryImplE0B9_
FN:106,_RNCINvMNtNtCs4ZEr9HMJnjR_13p2p_ai_agents4core9containerNtB5_9Container18register_singletonNtNtCsfmASsVe1tYz_5alloc6string6StringNtNCNvNtB7_12system_testss_43test_system_resource_management_and_cleanup018ServiceFactoryImplE0B9_
FN:106,_RNCINvMNtNtCs4ZEr9HMJnjR_13p2p_ai_agents4core9containerNtB5_9Container18register_singletonNtNtCsfmASsVe1tYz_5alloc6string6StringNtNCNvNtNtB7_10load_tests20container_load_tests30test_container_operations_load018ServiceFactoryImplE0B9_
FN:135,_RNCINvMNtNtCs4ZEr9HMJnjR_13p2p_ai_agents4core9containerNtB5_9Container7resolveNtNtB5_5tests11TestServiceE0B9_
FN:135,_RNCINvMNtNtCs4ZEr9HMJnjR_13p2p_ai_agents4core9containerNtB5_9Container7resolveNtNtCsfmASsVe1tYz_5alloc6string6StringE0B9_
FN:81,_RNCINvMNtNtCs4ZEr9HMJnjR_13p2p_ai_agents4core9containerNtB5_9Container8registerNtNtB5_5tests11TestServiceNtNCNvB1h_s_33test_container_already_registered018ServiceFactoryImplE0B9_
FN:81,_RNCINvMNtNtCs4ZEr9HMJnjR_13p2p_ai_agents4core9containerNtB5_9Container8registerNtNtB5_5tests11TestServiceNtNCNvB1h_s_33test_container_already_registered0s_18ServiceFactoryImplE0B9_
FN:81,_RNCINvMNtNtCs4ZEr9HMJnjR_13p2p_ai_agents4core9containerNtB5_9Container8registerNtNtB5_5tests11TestServiceNtNCNvB1h_s_42test_container_registration_and_resolution018ServiceFactoryImplE0B9_
FN:81,_RNCINvMNtNtCs4ZEr9HMJnjR_13p2p_ai_agents4core9containerNtB5_9Container8registerNtNtCsfmASsVe1tYz_5alloc6string6StringNtNCNvNtB7_12system_testss_43test_complete_agent_lifecycle_with_security018ServiceFactoryImplE0B9_
FN:81,_RNCINvMNtNtCs4ZEr9HMJnjR_13p2p_ai_agents4core9containerNtB5_9Container8registerNtNtCsfmASsVe1tYz_5alloc6string6StringNtNCNvNtB7_12system_testss_43test_system_resource_management_and_cleanup018ServiceFactoryImplE0B9_
FN:81,_RNCINvMNtNtCs4ZEr9HMJnjR_13p2p_ai_agents4core9containerNtB5_9Container8registerNtNtCsfmASsVe1tYz_5alloc6string6StringNtNCNvNtNtB7_10load_tests20container_load_tests30test_container_operations_load018ServiceFactoryImplE0B9_
FN:139,_RNCNCINvMNtNtCs4ZEr9HMJnjR_13p2p_ai_agents4core9containerNtB7_9Container7resolveNtNtB7_5tests11TestServiceE00Bb_
FN:156,_RNCNCINvMNtNtCs4ZEr9HMJnjR_13p2p_ai_agents4core9containerNtB7_9Container7resolveNtNtB7_5tests11TestServiceE0s0_0Bb_
FN:169,_RNCNCINvMNtNtCs4ZEr9HMJnjR_13p2p_ai_agents4core9containerNtB7_9Container7resolveNtNtB7_5tests11TestServiceE0s1_0Bb_
FN:177,_RNCNCINvMNtNtCs4ZEr9HMJnjR_13p2p_ai_agents4core9containerNtB7_9Container7resolveNtNtB7_5tests11TestServiceE0s2_0Bb_
FN:189,_RNCNCINvMNtNtCs4ZEr9HMJnjR_13p2p_ai_agents4core9containerNtB7_9Container7resolveNtNtB7_5tests11TestServiceE0s3_0Bb_
FN:147,_RNCNCINvMNtNtCs4ZEr9HMJnjR_13p2p_ai_agents4core9containerNtB7_9Container7resolveNtNtB7_5tests11TestServiceE0s_0Bb_
FN:139,_RNCNCINvMNtNtCs4ZEr9HMJnjR_13p2p_ai_agents4core9containerNtB7_9Container7resolveNtNtCsfmASsVe1tYz_5alloc6string6StringE00Bb_
FN:156,_RNCNCINvMNtNtCs4ZEr9HMJnjR_13p2p_ai_agents4core9containerNtB7_9Container7resolveNtNtCsfmASsVe1tYz_5alloc6string6StringE0s0_0Bb_
FN:169,_RNCNCINvMNtNtCs4ZEr9HMJnjR_13p2p_ai_agents4core9containerNtB7_9Container7resolveNtNtCsfmASsVe1tYz_5alloc6string6StringE0s1_0Bb_
FN:177,_RNCNCINvMNtNtCs4ZEr9HMJnjR_13p2p_ai_agents4core9containerNtB7_9Container7resolveNtNtCsfmASsVe1tYz_5alloc6string6StringE0s2_0Bb_
FN:189,_RNCNCINvMNtNtCs4ZEr9HMJnjR_13p2p_ai_agents4core9containerNtB7_9Container7resolveNtNtCsfmASsVe1tYz_5alloc6string6StringE0s3_0Bb_
FN:147,_RNCNCINvMNtNtCs4ZEr9HMJnjR_13p2p_ai_agents4core9containerNtB7_9Container7resolveNtNtCsfmASsVe1tYz_5alloc6string6StringE0s_0Bb_
FN:260,_RNvMNtNtNtCs4ZEr9HMJnjR_13p2p_ai_agents4core9container5testsNtB2_11TestService3new
FN:287,_RNvNtNtNtCs4ZEr9HMJnjR_13p2p_ai_agents4core9container5testss_32test_container_service_not_found
FN:295,_RNvNtNtNtCs4ZEr9HMJnjR_13p2p_ai_agents4core9container5testss_33test_container_already_registered
FN:266,_RNvNtNtNtCs4ZEr9HMJnjR_13p2p_ai_agents4core9container5testss_42test_container_registration_and_resolution
FN:237,_RNvXNCNvNtNtNtCs4ZEr9HMJnjR_13p2p_ai_agents4core9container5testss_33test_container_already_registered0NtB2_18ServiceFactoryImplNtB8_14ServiceFactory6create
FN:237,_RNvXNCNvNtNtNtCs4ZEr9HMJnjR_13p2p_ai_agents4core9container5testss_42test_container_registration_and_resolution0NtB2_18ServiceFactoryImplNtB8_14ServiceFactory6create
FN:237,_RNvXs_NCNvNtNtNtCs4ZEr9HMJnjR_13p2p_ai_agents4core9container5testss_33test_container_already_registered0NtB4_s_18ServiceFactoryImplNtBa_14ServiceFactory6create
FN:237,_RNvXNCNvNtNtNtCs4ZEr9HMJnjR_13p2p_ai_agents4core10load_tests20container_load_tests30test_container_operations_load0NtB2_18ServiceFactoryImplNtNtBa_9container14ServiceFactory6create
FN:287,_RNCNvNtNtNtCs4ZEr9HMJnjR_13p2p_ai_agents4core9container5testss_32test_container_service_not_found0B9_
FN:295,_RNCNvNtNtNtCs4ZEr9HMJnjR_13p2p_ai_agents4core9container5testss_33test_container_already_registered0B9_
FN:266,_RNCNvNtNtNtCs4ZEr9HMJnjR_13p2p_ai_agents4core9container5testss_42test_container_registration_and_resolution0B9_
FN:299,_RNCNvXNCNvNtNtNtCs4ZEr9HMJnjR_13p2p_ai_agents4core9container5testss_33test_container_already_registered0NtB4_18ServiceFactoryImplNtBa_14ServiceFactory6create0Be_
FN:271,_RNCNvXNCNvNtNtNtCs4ZEr9HMJnjR_13p2p_ai_agents4core9container5testss_42test_container_registration_and_resolution0NtB4_18ServiceFactoryImplNtBa_14ServiceFactory6create0Be_
FN:306,_RNCNvXs_NCNvNtNtNtCs4ZEr9HMJnjR_13p2p_ai_agents4core9container5testss_33test_container_already_registered0NtB6_s_18ServiceFactoryImplNtBc_14ServiceFactory6create0Bg_
FNDA:0,_RINvMNtNtCsazECCRb7Zym_13p2p_ai_agents4core9containerNtB3_9Container13is_registeredpEB7_
FNDA:0,_RINvMNtNtCsazECCRb7Zym_13p2p_ai_agents4core9containerNtB3_9Container15register_scopedppEB7_
FNDA:0,_RINvMNtNtCsazECCRb7Zym_13p2p_ai_agents4core9containerNtB3_9Container18register_singletonppEB7_
FNDA:0,_RINvMNtNtCsazECCRb7Zym_13p2p_ai_agents4core9containerNtB3_9Container18register_transientppEB7_
FNDA:0,_RINvMNtNtCsazECCRb7Zym_13p2p_ai_agents4core9containerNtB3_9Container7resolvepEB7_
FNDA:0,_RINvMNtNtCsazECCRb7Zym_13p2p_ai_agents4core9containerNtB3_9Container8registerppEB7_
FNDA:0,_RNCINvMNtNtCsazECCRb7Zym_13p2p_ai_agents4core9containerNtB5_9Container13is_registeredpE0B9_
FNDA:0,_RNCINvMNtNtCsazECCRb7Zym_13p2p_ai_agents4core9containerNtB5_9Container15register_scopedppE0B9_
FNDA:0,_RNCINvMNtNtCsazECCRb7Zym_13p2p_ai_agents4core9containerNtB5_9Container18register_singletonppE0B9_
FNDA:0,_RNCINvMNtNtCsazECCRb7Zym_13p2p_ai_agents4core9containerNtB5_9Container18register_transientppE0B9_
FNDA:0,_RNCINvMNtNtCsazECCRb7Zym_13p2p_ai_agents4core9containerNtB5_9Container7resolvepE0B9_
FNDA:0,_RNCINvMNtNtCsazECCRb7Zym_13p2p_ai_agents4core9containerNtB5_9Container8registerppE0B9_
FNDA:0,_RNCNCINvMNtNtCsazECCRb7Zym_13p2p_ai_agents4core9containerNtB7_9Container7resolvepE00Bb_
FNDA:0,_RNCNCINvMNtNtCsazECCRb7Zym_13p2p_ai_agents4core9containerNtB7_9Container7resolvepE0s0_0Bb_
FNDA:0,_RNCNCINvMNtNtCsazECCRb7Zym_13p2p_ai_agents4core9containerNtB7_9Container7resolvepE0s1_0Bb_
FNDA:0,_RNCNCINvMNtNtCsazECCRb7Zym_13p2p_ai_agents4core9containerNtB7_9Container7resolvepE0s2_0Bb_
FNDA:0,_RNCNCINvMNtNtCsazECCRb7Zym_13p2p_ai_agents4core9containerNtB7_9Container7resolvepE0s3_0Bb_
FNDA:0,_RNCNCINvMNtNtCsazECCRb7Zym_13p2p_ai_agents4core9containerNtB7_9Container7resolvepE0s_0Bb_
FNDA:0,_RNCNCNvMNtNtCsazECCRb7Zym_13p2p_ai_agents4core9containerNtB6_9Container19registered_services00Ba_
FNDA:0,_RNCNvMNtNtCsazECCRb7Zym_13p2p_ai_agents4core9containerNtB4_9Container12clear_scoped0B8_
FNDA:0,_RNCNvMNtNtCsazECCRb7Zym_13p2p_ai_agents4core9containerNtB4_9Container19registered_services0B8_
FNDA:0,_RNvMNtNtCsazECCRb7Zym_13p2p_ai_agents4core9containerNtB2_9Container12clear_scoped
FNDA:0,_RNvMNtNtCsazECCRb7Zym_13p2p_ai_agents4core9containerNtB2_9Container19registered_services
FNDA:3,_RNvMNtNtCsazECCRb7Zym_13p2p_ai_agents4core9containerNtB2_9Container3new
FNDA:0,_RNvXs_NtNtCsazECCRb7Zym_13p2p_ai_agents4core9containerNtB4_9ContainerNtNtCsaTRkahAGrLL_4core7default7Default7default
FNDA:0,_RINvMNtNtCs4ZEr9HMJnjR_13p2p_ai_agents4core9containerNtB3_9Container13is_registeredpEB7_
FNDA:0,_RINvMNtNtCs4ZEr9HMJnjR_13p2p_ai_agents4core9containerNtB3_9Container15register_scopedppEB7_
FNDA:0,_RINvMNtNtCs4ZEr9HMJnjR_13p2p_ai_agents4core9containerNtB3_9Container18register_transientppEB7_
FNDA:0,_RNCINvMNtNtCs4ZEr9HMJnjR_13p2p_ai_agents4core9containerNtB5_9Container13is_registeredpE0B9_
FNDA:0,_RNCINvMNtNtCs4ZEr9HMJnjR_13p2p_ai_agents4core9containerNtB5_9Container15register_scopedppE0B9_
FNDA:0,_RNCINvMNtNtCs4ZEr9HMJnjR_13p2p_ai_agents4core9containerNtB5_9Container18register_transientppE0B9_
FNDA:0,_RNCNCNvMNtNtCs4ZEr9HMJnjR_13p2p_ai_agents4core9containerNtB6_9Container19registered_services00Ba_
FNDA:0,_RNCNvMNtNtCs4ZEr9HMJnjR_13p2p_ai_agents4core9containerNtB4_9Container12clear_scoped0B8_
FNDA:0,_RNCNvMNtNtCs4ZEr9HMJnjR_13p2p_ai_agents4core9containerNtB4_9Container19registered_services0B8_
FNDA:0,_RNvMNtNtCs4ZEr9HMJnjR_13p2p_ai_agents4core9containerNtB2_9Container12clear_scoped
FNDA:0,_RNvMNtNtCs4ZEr9HMJnjR_13p2p_ai_agents4core9containerNtB2_9Container19registered_services
FNDA:0,_RNvXs_NtNtCs4ZEr9HMJnjR_13p2p_ai_agents4core9containerNtB4_9ContainerNtNtCsaTRkahAGrLL_4core7default7Default7default
FNDA:1,_RNvXNCNvNtNtCs4ZEr9HMJnjR_13p2p_ai_agents4core12system_testss_43test_complete_agent_lifecycle_with_security0NtB2_18ServiceFactoryImplNtNtB8_9container14ServiceFactory6create
FNDA:1,_RNvXNCNvNtNtCs4ZEr9HMJnjR_13p2p_ai_agents4core12system_testss_43test_system_resource_management_and_cleanup0NtB2_18ServiceFactoryImplNtNtB8_9container14ServiceFactory6create
FNDA:12,_RNvMNtNtCs4ZEr9HMJnjR_13p2p_ai_agents4core9containerNtB2_9Container3new
FNDA:1,_RINvMNtNtCs4ZEr9HMJnjR_13p2p_ai_agents4core9containerNtB3_9Container18register_singletonNtNtB3_5tests11TestServiceNtNCNvB1q_s_33test_container_already_registered018ServiceFactoryImplEB7_
FNDA:1,_RINvMNtNtCs4ZEr9HMJnjR_13p2p_ai_agents4core9containerNtB3_9Container18register_singletonNtNtB3_5tests11TestServiceNtNCNvB1q_s_33test_container_already_registered0s_18ServiceFactoryImplEB7_
FNDA:1,_RINvMNtNtCs4ZEr9HMJnjR_13p2p_ai_agents4core9containerNtB3_9Container18register_singletonNtNtB3_5tests11TestServiceNtNCNvB1q_s_42test_container_registration_and_resolution018ServiceFactoryImplEB7_
FNDA:1,_RINvMNtNtCs4ZEr9HMJnjR_13p2p_ai_agents4core9containerNtB3_9Container18register_singletonNtNtCsfmASsVe1tYz_5alloc6string6StringNtNCNvNtB5_12system_testss_43test_complete_agent_lifecycle_with_security018ServiceFactoryImplEB7_
FNDA:1,_RINvMNtNtCs4ZEr9HMJnjR_13p2p_ai_agents4core9containerNtB3_9Container18register_singletonNtNtCsfmASsVe1tYz_5alloc6string6StringNtNCNvNtB5_12system_testss_43test_system_resource_management_and_cleanup018ServiceFactoryImplEB7_
FNDA:1,_RINvMNtNtCs4ZEr9HMJnjR_13p2p_ai_agents4core9containerNtB3_9Container18register_singletonNtNtCsfmASsVe1tYz_5alloc6string6StringNtNCNvNtNtB5_10load_tests20container_load_tests30test_container_operations_load018ServiceFactoryImplEB7_
FNDA:3,_RINvMNtNtCs4ZEr9HMJnjR_13p2p_ai_agents4core9containerNtB3_9Container7resolveNtNtB3_5tests11TestServiceEB7_
FNDA:223594,_RINvMNtNtCs4ZEr9HMJnjR_13p2p_ai_agents4core9containerNtB3_9Container7resolveNtNtCsfmASsVe1tYz_5alloc6string6StringEB7_
FNDA:1,_RINvMNtNtCs4ZEr9HMJnjR_13p2p_ai_agents4core9containerNtB3_9Container8registerNtNtB3_5tests11TestServiceNtNCNvB1f_s_33test_container_already_registered018ServiceFactoryImplEB7_
FNDA:1,_RINvMNtNtCs4ZEr9HMJnjR_13p2p_ai_agents4core9containerNtB3_9Container8registerNtNtB3_5tests11TestServiceNtNCNvB1f_s_33test_container_already_registered0s_18ServiceFactoryImplEB7_
FNDA:1,_RINvMNtNtCs4ZEr9HMJnjR_13p2p_ai_agents4core9containerNtB3_9Container8registerNtNtB3_5tests11TestServiceNtNCNvB1f_s_42test_container_registration_and_resolution018ServiceFactoryImplEB7_
FNDA:1,_RINvMNtNtCs4ZEr9HMJnjR_13p2p_ai_agents4core9containerNtB3_9Container8registerNtNtCsfmASsVe1tYz_5alloc6string6StringNtNCNvNtB5_12system_testss_43test_complete_agent_lifecycle_with_security018ServiceFactoryImplEB7_
FNDA:1,_RINvMNtNtCs4ZEr9HMJnjR_13p2p_ai_agents4core9containerNtB3_9Container8registerNtNtCsfmASsVe1tYz_5alloc6string6StringNtNCNvNtB5_12system_testss_43test_system_resource_management_and_cleanup018ServiceFactoryImplEB7_
FNDA:1,_RINvMNtNtCs4ZEr9HMJnjR_13p2p_ai_agents4core9containerNtB3_9Container8registerNtNtCsfmASsVe1tYz_5alloc6string6StringNtNCNvNtNtB5_10load_tests20container_load_tests30test_container_operations_load018ServiceFactoryImplEB7_
FNDA:1,_RNCINvMNtNtCs4ZEr9HMJnjR_13p2p_ai_agents4core9containerNtB5_9Container18register_singletonNtNtB5_5tests11TestServiceNtNCNvB1s_s_33test_container_already_registered018ServiceFactoryImplE0B9_
FNDA:1,_RNCINvMNtNtCs4ZEr9HMJnjR_13p2p_ai_agents4core9containerNtB5_9Container18register_singletonNtNtB5_5tests11TestServiceNtNCNvB1s_s_33test_container_already_registered0s_18ServiceFactoryImplE0B9_
FNDA:1,_RNCINvMNtNtCs4ZEr9HMJnjR_13p2p_ai_agents4core9containerNtB5_9Container18register_singletonNtNtB5_5tests11TestServiceNtNCNvB1s_s_42test_container_registration_and_resolution018ServiceFactoryImplE0B9_
FNDA:1,_RNCINvMNtNtCs4ZEr9HMJnjR_13p2p_ai_agents4core9containerNtB5_9Container18register_singletonNtNtCsfmASsVe1tYz_5alloc6string6StringNtNCNvNtB7_12system_testss_43test_complete_agent_lifecycle_with_security018ServiceFactoryImplE0B9_
FNDA:1,_RNCINvMNtNtCs4ZEr9HMJnjR_13p2p_ai_agents4core9containerNtB5_9Container18register_singletonNtNtCsfmASsVe1tYz_5alloc6string6StringNtNCNvNtB7_12system_testss_43test_system_resource_management_and_cleanup018ServiceFactoryImplE0B9_
FNDA:1,_RNCINvMNtNtCs4ZEr9HMJnjR_13p2p_ai_agents4core9containerNtB5_9Container18register_singletonNtNtCsfmASsVe1tYz_5alloc6string6StringNtNCNvNtNtB7_10load_tests20container_load_tests30test_container_operations_load018ServiceFactoryImplE0B9_
FNDA:3,_RNCINvMNtNtCs4ZEr9HMJnjR_13p2p_ai_agents4core9containerNtB5_9Container7resolveNtNtB5_5tests11TestServiceE0B9_
FNDA:223594,_RNCINvMNtNtCs4ZEr9HMJnjR_13p2p_ai_agents4core9containerNtB5_9Container7resolveNtNtCsfmASsVe1tYz_5alloc6string6StringE0B9_
FNDA:1,_RNCINvMNtNtCs4ZEr9HMJnjR_13p2p_ai_agents4core9containerNtB5_9Container8registerNtNtB5_5tests11TestServiceNtNCNvB1h_s_33test_container_already_registered018ServiceFactoryImplE0B9_
FNDA:1,_RNCINvMNtNtCs4ZEr9HMJnjR_13p2p_ai_agents4core9containerNtB5_9Container8registerNtNtB5_5tests11TestServiceNtNCNvB1h_s_33test_container_already_registered0s_18ServiceFactoryImplE0B9_
FNDA:1,_RNCINvMNtNtCs4ZEr9HMJnjR_13p2p_ai_agents4core9containerNtB5_9Container8registerNtNtB5_5tests11TestServiceNtNCNvB1h_s_42test_container_registration_and_resolution018ServiceFactoryImplE0B9_
FNDA:1,_RNCINvMNtNtCs4ZEr9HMJnjR_13p2p_ai_agents4core9containerNtB5_9Container8registerNtNtCsfmASsVe1tYz_5alloc6string6StringNtNCNvNtB7_12system_testss_43test_complete_agent_lifecycle_with_security018ServiceFactoryImplE0B9_
FNDA:1,_RNCINvMNtNtCs4ZEr9HMJnjR_13p2p_ai_agents4core9containerNtB5_9Container8registerNtNtCsfmASsVe1tYz_5alloc6string6StringNtNCNvNtB7_12system_testss_43test_system_resource_management_and_cleanup018ServiceFactoryImplE0B9_
FNDA:1,_RNCINvMNtNtCs4ZEr9HMJnjR_13p2p_ai_agents4core9containerNtB5_9Container8registerNtNtCsfmASsVe1tYz_5alloc6string6StringNtNCNvNtNtB7_10load_tests20container_load_tests30test_container_operations_load018ServiceFactoryImplE0B9_
FNDA:1,_RNCNCINvMNtNtCs4ZEr9HMJnjR_13p2p_ai_agents4core9containerNtB7_9Container7resolveNtNtB7_5tests11TestServiceE00Bb_
FNDA:0,_RNCNCINvMNtNtCs4ZEr9HMJnjR_13p2p_ai_agents4core9containerNtB7_9Container7resolveNtNtB7_5tests11TestServiceE0s0_0Bb_
FNDA:0,_RNCNCINvMNtNtCs4ZEr9HMJnjR_13p2p_ai_agents4core9containerNtB7_9Container7resolveNtNtB7_5tests11TestServiceE0s1_0Bb_
FNDA:0,_RNCNCINvMNtNtCs4ZEr9HMJnjR_13p2p_ai_agents4core9containerNtB7_9Container7resolveNtNtB7_5tests11TestServiceE0s2_0Bb_
FNDA:0,_RNCNCINvMNtNtCs4ZEr9HMJnjR_13p2p_ai_agents4core9containerNtB7_9Container7resolveNtNtB7_5tests11TestServiceE0s3_0Bb_
FNDA:0,_RNCNCINvMNtNtCs4ZEr9HMJnjR_13p2p_ai_agents4core9containerNtB7_9Container7resolveNtNtB7_5tests11TestServiceE0s_0Bb_
FNDA:1,_RNCNCINvMNtNtCs4ZEr9HMJnjR_13p2p_ai_agents4core9containerNtB7_9Container7resolveNtNtCsfmASsVe1tYz_5alloc6string6StringE00Bb_
FNDA:0,_RNCNCINvMNtNtCs4ZEr9HMJnjR_13p2p_ai_agents4core9containerNtB7_9Container7resolveNtNtCsfmASsVe1tYz_5alloc6string6StringE0s0_0Bb_
FNDA:0,_RNCNCINvMNtNtCs4ZEr9HMJnjR_13p2p_ai_agents4core9containerNtB7_9Container7resolveNtNtCsfmASsVe1tYz_5alloc6string6StringE0s1_0Bb_
FNDA:0,_RNCNCINvMNtNtCs4ZEr9HMJnjR_13p2p_ai_agents4core9containerNtB7_9Container7resolveNtNtCsfmASsVe1tYz_5alloc6string6StringE0s2_0Bb_
FNDA:0,_RNCNCINvMNtNtCs4ZEr9HMJnjR_13p2p_ai_agents4core9containerNtB7_9Container7resolveNtNtCsfmASsVe1tYz_5alloc6string6StringE0s3_0Bb_
FNDA:0,_RNCNCINvMNtNtCs4ZEr9HMJnjR_13p2p_ai_agents4core9containerNtB7_9Container7resolveNtNtCsfmASsVe1tYz_5alloc6string6StringE0s_0Bb_
FNDA:1,_RNvMNtNtNtCs4ZEr9HMJnjR_13p2p_ai_agents4core9container5testsNtB2_11TestService3new
FNDA:1,_RNvNtNtNtCs4ZEr9HMJnjR_13p2p_ai_agents4core9container5testss_32test_container_service_not_found
FNDA:1,_RNvNtNtNtCs4ZEr9HMJnjR_13p2p_ai_agents4core9container5testss_33test_container_already_registered
FNDA:1,_RNvNtNtNtCs4ZEr9HMJnjR_13p2p_ai_agents4core9container5testss_42test_container_registration_and_resolution
FNDA:0,_RNvXNCNvNtNtNtCs4ZEr9HMJnjR_13p2p_ai_agents4core9container5testss_33test_container_already_registered0NtB2_18ServiceFactoryImplNtB8_14ServiceFactory6create
FNDA:1,_RNvXNCNvNtNtNtCs4ZEr9HMJnjR_13p2p_ai_agents4core9container5testss_42test_container_registration_and_resolution0NtB2_18ServiceFactoryImplNtB8_14ServiceFactory6create
FNDA:0,_RNvXs_NCNvNtNtNtCs4ZEr9HMJnjR_13p2p_ai_agents4core9container5testss_33test_container_already_registered0NtB4_s_18ServiceFactoryImplNtBa_14ServiceFactory6create
FNDA:1,_RNvXNCNvNtNtNtCs4ZEr9HMJnjR_13p2p_ai_agents4core10load_tests20container_load_tests30test_container_operations_load0NtB2_18ServiceFactoryImplNtNtBa_9container14ServiceFactory6create
FNDA:1,_RNCNvNtNtNtCs4ZEr9HMJnjR_13p2p_ai_agents4core9container5testss_32test_container_service_not_found0B9_
FNDA:1,_RNCNvNtNtNtCs4ZEr9HMJnjR_13p2p_ai_agents4core9container5testss_33test_container_already_registered0B9_
FNDA:1,_RNCNvNtNtNtCs4ZEr9HMJnjR_13p2p_ai_agents4core9container5testss_42test_container_registration_and_resolution0B9_
FNDA:0,_RNCNvXNCNvNtNtNtCs4ZEr9HMJnjR_13p2p_ai_agents4core9container5testss_33test_container_already_registered0NtB4_18ServiceFactoryImplNtBa_14ServiceFactory6create0Be_
FNDA:1,_RNCNvXNCNvNtNtNtCs4ZEr9HMJnjR_13p2p_ai_agents4core9container5testss_42test_container_registration_and_resolution0NtB4_18ServiceFactoryImplNtBa_14ServiceFactory6create0Be_
FNDA:0,_RNCNvXs_NCNvNtNtNtCs4ZEr9HMJnjR_13p2p_ai_agents4core9container5testss_33test_container_already_registered0NtB6_s_18ServiceFactoryImplNtBc_14ServiceFactory6create0Bg_
FNF:36
FNH:17
DA:65,15
DA:66,15
DA:67,15
DA:68,15
DA:69,15
DA:70,15
DA:73,6
DA:74,6
DA:75,6
DA:76,6
DA:77,6
DA:78,6
DA:79,6
DA:80,6
DA:81,6
DA:82,6
DA:83,6
DA:85,6
DA:86,1
DA:87,1
DA:88,1
DA:89,5
DA:90,5
DA:91,5
DA:92,5
DA:93,5
DA:94,5
DA:95,5
DA:96,5
DA:97,5
DA:98,5
DA:99,6
DA:102,6
DA:103,6
DA:104,6
DA:105,6
DA:106,6
DA:107,6
DA:108,6
DA:109,6
DA:112,0
DA:113,0
DA:114,0
DA:115,0
DA:116,0
DA:117,0
DA:118,0
DA:119,0
DA:122,0
DA:123,0
DA:124,0
DA:125,0
DA:126,0
DA:127,0
DA:128,0
DA:129,0
DA:132,223597
DA:133,223597
DA:134,223597
DA:135,223597
DA:136,223597
DA:137,223597
DA:139,223597
DA:140,2
DA:141,223597
DA:143,223595
DA:145,223595
DA:147,223591
DA:148,0
DA:149,0
DA:150,0
DA:151,223591
DA:152,223591
DA:155,4
DA:156,4
DA:157,0
DA:158,0
DA:159,0
DA:160,4
DA:161,4
DA:162,4
DA:163,4
DA:167,0
DA:168,0
DA:169,0
DA:170,0
DA:171,0
DA:172,0
DA:173,0
DA:174,0
DA:176,0
DA:177,0
DA:178,0
DA:179,0
DA:180,0
DA:181,0
DA:182,0
DA:183,0
DA:184,0
DA:188,0
DA:189,0
DA:190,0
DA:191,0
DA:192,0
DA:193,0
DA:194,0
DA:197,223597
DA:200,0
DA:201,0
DA:202,0
DA:203,0
DA:206,0
DA:207,0
DA:208,0
DA:209,0
DA:210,0
DA:211,0
DA:212,0
DA:213,0
DA:216,0
DA:217,0
DA:218,0
DA:219,0
DA:220,0
DA:221,0
DA:222,0
DA:226,0
DA:227,0
DA:228,0
DA:237,4
DA:238,4
DA:239,4
DA:240,4
DA:241,4
DA:242,4
DA:243,4
DA:244,4
DA:260,1
DA:261,1
DA:262,1
DA:266,1
DA:267,1
DA:268,1
DA:269,1
DA:270,1
DA:271,1
DA:272,1
DA:273,1
DA:274,1
DA:275,1
DA:276,1
DA:277,1
DA:278,1
DA:279,1
DA:280,1
DA:281,1
DA:282,1
DA:283,1
DA:284,1
DA:287,1
DA:288,1
DA:289,1
DA:290,1
DA:291,1
DA:292,1
DA:295,1
DA:296,1
DA:297,1
DA:298,1
DA:299,1
DA:300,0
DA:301,0
DA:302,1
DA:303,1
DA:304,1
DA:305,1
DA:306,1
DA:307,0
DA:308,0
DA:309,1
DA:310,1
DA:311,1
DA:312,1
DA:313,1
DA:314,1
DA:315,1
BRF:0
BRH:0
LF:250
LH:157
end_of_record
SF:/Users/renegeers/Source/p2p-ai-agents/src/core/correlation.rs
FN:69,_RNvXs2_NtNtCsazECCRb7Zym_13p2p_ai_agents4core11correlationNtCsaDknj4DpOuz_4uuid4UuidINtNtCsaTRkahAGrLL_4core7convert4FromNtB5_13CorrelationIdE4from
FN:30,_RNvMNtNtCsazECCRb7Zym_13p2p_ai_agents4core11correlationNtB2_13CorrelationId3new
FN:45,_RNvMNtNtCsazECCRb7Zym_13p2p_ai_agents4core11correlationNtB2_13CorrelationId6as_str
FN:40,_RNvMNtNtCsazECCRb7Zym_13p2p_ai_agents4core11correlationNtB2_13CorrelationId7as_uuid
FN:35,_RNvMNtNtCsazECCRb7Zym_13p2p_ai_agents4core11correlationNtB2_13CorrelationId9from_uuid
FN:57,_RNvXs0_NtNtCsazECCRb7Zym_13p2p_ai_agents4core11correlationNtB5_13CorrelationIdNtNtCsaTRkahAGrLL_4core3fmt7Display3fmt
FN:63,_RNvXs1_NtNtCsazECCRb7Zym_13p2p_ai_agents4core11correlationNtB5_13CorrelationIdINtNtCsaTRkahAGrLL_4core7convert4FromNtCsaDknj4DpOuz_4uuid4UuidE4from
FN:51,_RNvXs_NtNtCsazECCRb7Zym_13p2p_ai_agents4core11correlationNtB4_13CorrelationIdNtNtCsaTRkahAGrLL_4core7default7Default7default
FN:69,_RNvXs2_NtNtCs4ZEr9HMJnjR_13p2p_ai_agents4core11correlationNtCsaDknj4DpOuz_4uuid4UuidINtNtCsaTRkahAGrLL_4core7convert4FromNtB5_13CorrelationIdE4from
FN:121,_RNvNtNtNtCs4ZEr9HMJnjR_13p2p_ai_agents4core11correlation5testss_11test_as_str
FN:99,_RNvNtNtNtCs4ZEr9HMJnjR_13p2p_ai_agents4core11correlation5testss_12test_default
FN:92,_RNvNtNtNtCs4ZEr9HMJnjR_13p2p_ai_agents4core11correlation5testss_12test_display
FN:113,_RNvNtNtNtCs4ZEr9HMJnjR_13p2p_ai_agents4core11correlation5testss_14test_from_into
FN:85,_RNvNtNtNtCs4ZEr9HMJnjR_13p2p_ai_agents4core11correlation5testss_14test_from_uuid
FN:105,_RNvNtNtNtCs4ZEr9HMJnjR_13p2p_ai_agents4core11correlation5testss_18test_serialization
FN:79,_RNvNtNtNtCs4ZEr9HMJnjR_13p2p_ai_agents4core11correlation5testss_27test_new_creates_valid_uuid
FN:30,_RNvMNtNtCs4ZEr9HMJnjR_13p2p_ai_agents4core11correlationNtB2_13CorrelationId3new
FN:45,_RNvMNtNtCs4ZEr9HMJnjR_13p2p_ai_agents4core11correlationNtB2_13CorrelationId6as_str
FN:40,_RNvMNtNtCs4ZEr9HMJnjR_13p2p_ai_agents4core11correlationNtB2_13CorrelationId7as_uuid
FN:35,_RNvMNtNtCs4ZEr9HMJnjR_13p2p_ai_agents4core11correlationNtB2_13CorrelationId9from_uuid
FN:57,_RNvXs0_NtNtCs4ZEr9HMJnjR_13p2p_ai_agents4core11correlationNtB5_13CorrelationIdNtNtCsaTRkahAGrLL_4core3fmt7Display3fmt
FN:63,_RNvXs1_NtNtCs4ZEr9HMJnjR_13p2p_ai_agents4core11correlationNtB5_13CorrelationIdINtNtCsaTRkahAGrLL_4core7convert4FromNtCsaDknj4DpOuz_4uuid4UuidE4from
FN:51,_RNvXs_NtNtCs4ZEr9HMJnjR_13p2p_ai_agents4core11correlationNtB4_13CorrelationIdNtNtCsaTRkahAGrLL_4core7default7Default7default
FNDA:1,_RNvXs2_NtNtCsazECCRb7Zym_13p2p_ai_agents4core11correlationNtCsaDknj4DpOuz_4uuid4UuidINtNtCsaTRkahAGrLL_4core7convert4FromNtB5_13CorrelationIdE4from
FNDA:17,_RNvMNtNtCsazECCRb7Zym_13p2p_ai_agents4core11correlationNtB2_13CorrelationId3new
FNDA:1,_RNvMNtNtCsazECCRb7Zym_13p2p_ai_agents4core11correlationNtB2_13CorrelationId6as_str
FNDA:3,_RNvMNtNtCsazECCRb7Zym_13p2p_ai_agents4core11correlationNtB2_13CorrelationId7as_uuid
FNDA:1,_RNvMNtNtCsazECCRb7Zym_13p2p_ai_agents4core11correlationNtB2_13CorrelationId9from_uuid
FNDA:1,_RNvXs0_NtNtCsazECCRb7Zym_13p2p_ai_agents4core11correlationNtB5_13CorrelationIdNtNtCsaTRkahAGrLL_4core3fmt7Display3fmt
FNDA:0,_RNvXs1_NtNtCsazECCRb7Zym_13p2p_ai_agents4core11correlationNtB5_13CorrelationIdINtNtCsaTRkahAGrLL_4core7convert4FromNtCsaDknj4DpOuz_4uuid4UuidE4from
FNDA:0,_RNvXs_NtNtCsazECCRb7Zym_13p2p_ai_agents4core11correlationNtB4_13CorrelationIdNtNtCsaTRkahAGrLL_4core7default7Default7default
FNDA:1,_RNvXs2_NtNtCs4ZEr9HMJnjR_13p2p_ai_agents4core11correlationNtCsaDknj4DpOuz_4uuid4UuidINtNtCsaTRkahAGrLL_4core7convert4FromNtB5_13CorrelationIdE4from
FNDA:1,_RNvNtNtNtCs4ZEr9HMJnjR_13p2p_ai_agents4core11correlation5testss_11test_as_str
FNDA:1,_RNvNtNtNtCs4ZEr9HMJnjR_13p2p_ai_agents4core11correlation5testss_12test_default
FNDA:1,_RNvNtNtNtCs4ZEr9HMJnjR_13p2p_ai_agents4core11correlation5testss_12test_display
FNDA:1,_RNvNtNtNtCs4ZEr9HMJnjR_13p2p_ai_agents4core11correlation5testss_14test_from_into
FNDA:1,_RNvNtNtNtCs4ZEr9HMJnjR_13p2p_ai_agents4core11correlation5testss_14test_from_uuid
FNDA:1,_RNvNtNtNtCs4ZEr9HMJnjR_13p2p_ai_agents4core11correlation5testss_18test_serialization
FNDA:1,_RNvNtNtNtCs4ZEr9HMJnjR_13p2p_ai_agents4core11correlation5testss_27test_new_creates_valid_uuid
FNDA:4,_RNvMNtNtCs4ZEr9HMJnjR_13p2p_ai_agents4core11correlationNtB2_13CorrelationId3new
FNDA:1,_RNvMNtNtCs4ZEr9HMJnjR_13p2p_ai_agents4core11correlationNtB2_13CorrelationId6as_str
FNDA:3,_RNvMNtNtCs4ZEr9HMJnjR_13p2p_ai_agents4core11correlationNtB2_13CorrelationId7as_uuid
FNDA:2,_RNvMNtNtCs4ZEr9HMJnjR_13p2p_ai_agents4core11correlationNtB2_13CorrelationId9from_uuid
FNDA:2,_RNvXs0_NtNtCs4ZEr9HMJnjR_13p2p_ai_agents4core11correlationNtB5_13CorrelationIdNtNtCsaTRkahAGrLL_4core3fmt7Display3fmt
FNDA:1,_RNvXs1_NtNtCs4ZEr9HMJnjR_13p2p_ai_agents4core11correlationNtB5_13CorrelationIdINtNtCsaTRkahAGrLL_4core7convert4FromNtCsaDknj4DpOuz_4uuid4UuidE4from
FNDA:1,_RNvXs_NtNtCs4ZEr9HMJnjR_13p2p_ai_agents4core11correlationNtB4_13CorrelationIdNtNtCsaTRkahAGrLL_4core7default7Default7default
FNF:15
FNH:15
DA:30,21
DA:31,21
DA:32,21
DA:35,3
DA:36,3
DA:37,3
DA:40,6
DA:41,6
DA:42,6
DA:45,2
DA:46,2
DA:47,2
DA:51,1
DA:52,1
DA:53,1
DA:57,3
DA:58,3
DA:59,3
DA:63,1
DA:64,1
DA:65,1
DA:69,2
DA:70,2
DA:71,2
DA:79,1
DA:80,1
DA:81,1
DA:82,1
DA:85,1
DA:86,1
DA:87,1
DA:88,1
DA:89,1
DA:92,1
DA:93,1
DA:94,1
DA:95,1
DA:96,1
DA:99,1
DA:100,1
DA:101,1
DA:102,1
DA:105,1
DA:106,1
DA:107,1
DA:108,1
DA:109,1
DA:110,1
DA:113,1
DA:114,1
DA:115,1
DA:116,1
DA:117,1
DA:118,1
DA:121,1
DA:122,1
DA:123,1
DA:124,1
DA:125,1
BRF:0
BRH:0
LF:59
LH:59
end_of_record
SF:/Users/renegeers/Source/p2p-ai-agents/src/core/events.rs
FN:213,_RINvMs0_NtNtCsazECCRb7Zym_13p2p_ai_agents4core6eventsNtB6_8EventBus13handler_countpEBa_
FN:223,_RINvMs0_NtNtCsazECCRb7Zym_13p2p_ai_agents4core6eventsNtB6_8EventBus14clear_handlerspEBa_
FN:184,_RINvMs0_NtNtCsazECCRb7Zym_13p2p_ai_agents4core6eventsNtB6_8EventBus7publishpEBa_
FN:165,_RINvMs0_NtNtCsazECCRb7Zym_13p2p_ai_agents4core6eventsNtB6_8EventBus9subscribeppEBa_
FN:216,_RNCINvMs0_NtNtCsazECCRb7Zym_13p2p_ai_agents4core6eventsNtB8_8EventBus13handler_countpE0Bc_
FN:226,_RNCINvMs0_NtNtCsazECCRb7Zym_13p2p_ai_agents4core6eventsNtB8_8EventBus14clear_handlerspE0Bc_
FN:187,_RNCINvMs0_NtNtCsazECCRb7Zym_13p2p_ai_agents4core6eventsNtB8_8EventBus7publishpE0Bc_
FN:169,_RNCINvMs0_NtNtCsazECCRb7Zym_13p2p_ai_agents4core6eventsNtB8_8EventBus9subscribeppE0Bc_
FN:219,_RNCNCINvMs0_NtNtCsazECCRb7Zym_13p2p_ai_agents4core6eventsNtBa_8EventBus13handler_countpE00Be_
FN:31,_RNCNvXININtNtCsazECCRb7Zym_13p2p_ai_agents4core6eventss2_0ppEINtB7_19EventHandlerWrapperppENtB7_18ErasedEventHandler13handle_erased0Bb_
FN:37,_RNvXININtNtCsazECCRb7Zym_13p2p_ai_agents4core6eventss2_0ppEINtB5_19EventHandlerWrapperppENtB5_18ErasedEventHandler13handle_erasedB9_
FN:39,_RNvXININtNtCsazECCRb7Zym_13p2p_ai_agents4core6eventss2_0ppEINtB5_19EventHandlerWrapperppENtB5_18ErasedEventHandler4nameB9_
FN:110,_RNvYpINtNtNtCsazECCRb7Zym_13p2p_ai_agents4core6events12EventHandlerpE10can_handleBa_
FN:83,_RNvYNtNtNtCsazECCRb7Zym_13p2p_ai_agents4core6events10TaskFailedNtB4_5Event8priorityB8_
FN:83,_RNvYNtNtNtCsazECCRb7Zym_13p2p_ai_agents4core6events12AgentStartedNtB4_5Event8priorityB8_
FN:83,_RNvYNtNtNtCsazECCRb7Zym_13p2p_ai_agents4core6events12AgentStoppedNtB4_5Event8priorityB8_
FN:83,_RNvYNtNtNtCsazECCRb7Zym_13p2p_ai_agents4core6events13PeerConnectedNtB4_5Event8priorityB8_
FN:83,_RNvYNtNtNtCsazECCRb7Zym_13p2p_ai_agents4core6events13TaskCompletedNtB4_5Event8priorityB8_
FN:83,_RNvYNtNtNtCsazECCRb7Zym_13p2p_ai_agents4core6events16PeerDisconnectedNtB4_5Event8priorityB8_
FN:83,_RNvYNtNtNtCsazECCRb7Zym_13p2p_ai_agents4core6events21ResourceLimitExceededNtB4_5Event8priorityB8_
FN:53,_RNvMNtNtCsazECCRb7Zym_13p2p_ai_agents4core6eventsNtB2_7EventId3new
FN:158,_RNvMs0_NtNtCsazECCRb7Zym_13p2p_ai_agents4core6eventsNtB5_8EventBus3new
FN:280,_RNvMsA_NtNtCsazECCRb7Zym_13p2p_ai_agents4core6eventsNtB5_10TaskFailed3new
FN:280,_RNvMsE_NtNtCsazECCRb7Zym_13p2p_ai_agents4core6eventsNtB5_13PeerConnected3new
FN:280,_RNvMsI_NtNtCsazECCRb7Zym_13p2p_ai_agents4core6eventsNtB5_16PeerDisconnected3new
FN:280,_RNvMsM_NtNtCsazECCRb7Zym_13p2p_ai_agents4core6eventsNtB5_21ResourceLimitExceeded3new
FN:280,_RNvMso_NtNtCsazECCRb7Zym_13p2p_ai_agents4core6eventsNtB5_12AgentStarted3new
FN:280,_RNvMss_NtNtCsazECCRb7Zym_13p2p_ai_agents4core6eventsNtB5_12AgentStopped3new
FN:280,_RNvMsw_NtNtCsazECCRb7Zym_13p2p_ai_agents4core6eventsNtB5_13TaskCompleted3new
FN:234,_RNvXs1_NtNtCsazECCRb7Zym_13p2p_ai_agents4core6eventsNtB5_8EventBusNtNtCsaTRkahAGrLL_4core7default7Default7default
FN:257,_RNvXsD_NtNtCsazECCRb7Zym_13p2p_ai_agents4core6eventsNtB5_13PeerConnectedNtB5_5Event10event_type
FN:273,_RNvXsD_NtNtCsazECCRb7Zym_13p2p_ai_agents4core6eventsNtB5_13PeerConnectedNtB5_5Event11clone_event
FN:261,_RNvXsD_NtNtCsazECCRb7Zym_13p2p_ai_agents4core6eventsNtB5_13PeerConnectedNtB5_5Event2id
FN:269,_RNvXsD_NtNtCsazECCRb7Zym_13p2p_ai_agents4core6eventsNtB5_13PeerConnectedNtB5_5Event6source
FN:265,_RNvXsD_NtNtCsazECCRb7Zym_13p2p_ai_agents4core6eventsNtB5_13PeerConnectedNtB5_5Event9timestamp
FN:257,_RNvXsH_NtNtCsazECCRb7Zym_13p2p_ai_agents4core6eventsNtB5_16PeerDisconnectedNtB5_5Event10event_type
FN:273,_RNvXsH_NtNtCsazECCRb7Zym_13p2p_ai_agents4core6eventsNtB5_16PeerDisconnectedNtB5_5Event11clone_event
FN:261,_RNvXsH_NtNtCsazECCRb7Zym_13p2p_ai_agents4core6eventsNtB5_16PeerDisconnectedNtB5_5Event2id
FN:269,_RNvXsH_NtNtCsazECCRb7Zym_13p2p_ai_agents4core6eventsNtB5_16PeerDisconnectedNtB5_5Event6source
FN:265,_RNvXsH_NtNtCsazECCRb7Zym_13p2p_ai_agents4core6eventsNtB5_16PeerDisconnectedNtB5_5Event9timestamp
FN:257,_RNvXsL_NtNtCsazECCRb7Zym_13p2p_ai_agents4core6eventsNtB5_21ResourceLimitExceededNtB5_5Event10event_type
FN:273,_RNvXsL_NtNtCsazECCRb7Zym_13p2p_ai_agents4core6eventsNtB5_21ResourceLimitExceededNtB5_5Event11clone_event
FN:261,_RNvXsL_NtNtCsazECCRb7Zym_13p2p_ai_agents4core6eventsNtB5_21ResourceLimitExceededNtB5_5Event2id
FN:269,_RNvXsL_NtNtCsazECCRb7Zym_13p2p_ai_agents4core6eventsNtB5_21ResourceLimitExceededNtB5_5Event6source
FN:265,_RNvXsL_NtNtCsazECCRb7Zym_13p2p_ai_agents4core6eventsNtB5_21ResourceLimitExceededNtB5_5Event9timestamp
FN:59,_RNvXs_NtNtCsazECCRb7Zym_13p2p_ai_agents4core6eventsNtB4_7EventIdNtNtCsaTRkahAGrLL_4core7default7Default7default
FN:257,_RNvXsn_NtNtCsazECCRb7Zym_13p2p_ai_agents4core6eventsNtB5_12AgentStartedNtB5_5Event10event_type
FN:273,_RNvXsn_NtNtCsazECCRb7Zym_13p2p_ai_agents4core6eventsNtB5_12AgentStartedNtB5_5Event11clone_event
FN:261,_RNvXsn_NtNtCsazECCRb7Zym_13p2p_ai_agents4core6eventsNtB5_12AgentStartedNtB5_5Event2id
FN:269,_RNvXsn_NtNtCsazECCRb7Zym_13p2p_ai_agents4core6eventsNtB5_12AgentStartedNtB5_5Event6source
FN:265,_RNvXsn_NtNtCsazECCRb7Zym_13p2p_ai_agents4core6eventsNtB5_12AgentStartedNtB5_5Event9timestamp
FN:257,_RNvXsr_NtNtCsazECCRb7Zym_13p2p_ai_agents4core6eventsNtB5_12AgentStoppedNtB5_5Event10event_type
FN:273,_RNvXsr_NtNtCsazECCRb7Zym_13p2p_ai_agents4core6eventsNtB5_12AgentStoppedNtB5_5Event11clone_event
FN:261,_RNvXsr_NtNtCsazECCRb7Zym_13p2p_ai_agents4core6eventsNtB5_12AgentStoppedNtB5_5Event2id
FN:269,_RNvXsr_NtNtCsazECCRb7Zym_13p2p_ai_agents4core6eventsNtB5_12AgentStoppedNtB5_5Event6source
FN:265,_RNvXsr_NtNtCsazECCRb7Zym_13p2p_ai_agents4core6eventsNtB5_12AgentStoppedNtB5_5Event9timestamp
FN:257,_RNvXsv_NtNtCsazECCRb7Zym_13p2p_ai_agents4core6eventsNtB5_13TaskCompletedNtB5_5Event10event_type
FN:273,_RNvXsv_NtNtCsazECCRb7Zym_13p2p_ai_agents4core6eventsNtB5_13TaskCompletedNtB5_5Event11clone_event
FN:261,_RNvXsv_NtNtCsazECCRb7Zym_13p2p_ai_agents4core6eventsNtB5_13TaskCompletedNtB5_5Event2id
FN:269,_RNvXsv_NtNtCsazECCRb7Zym_13p2p_ai_agents4core6eventsNtB5_13TaskCompletedNtB5_5Event6source
FN:265,_RNvXsv_NtNtCsazECCRb7Zym_13p2p_ai_agents4core6eventsNtB5_13TaskCompletedNtB5_5Event9timestamp
FN:257,_RNvXsz_NtNtCsazECCRb7Zym_13p2p_ai_agents4core6eventsNtB5_10TaskFailedNtB5_5Event10event_type
FN:273,_RNvXsz_NtNtCsazECCRb7Zym_13p2p_ai_agents4core6eventsNtB5_10TaskFailedNtB5_5Event11clone_event
FN:261,_RNvXsz_NtNtCsazECCRb7Zym_13p2p_ai_agents4core6eventsNtB5_10TaskFailedNtB5_5Event2id
FN:269,_RNvXsz_NtNtCsazECCRb7Zym_13p2p_ai_agents4core6eventsNtB5_10TaskFailedNtB5_5Event6source
FN:265,_RNvXsz_NtNtCsazECCRb7Zym_13p2p_ai_agents4core6eventsNtB5_10TaskFailedNtB5_5Event9timestamp
FN:223,_RINvMs0_NtNtCs4ZEr9HMJnjR_13p2p_ai_agents4core6eventsNtB6_8EventBus14clear_handlerspEBa_
FN:226,_RNCINvMs0_NtNtCs4ZEr9HMJnjR_13p2p_ai_agents4core6eventsNtB8_8EventBus14clear_handlerspE0Bc_
FN:280,_RNvMsA_NtNtCs4ZEr9HMJnjR_13p2p_ai_agents4core6eventsNtB5_10TaskFailed3new
FN:280,_RNvMsE_NtNtCs4ZEr9HMJnjR_13p2p_ai_agents4core6eventsNtB5_13PeerConnected3new
FN:280,_RNvMsI_NtNtCs4ZEr9HMJnjR_13p2p_ai_agents4core6eventsNtB5_16PeerDisconnected3new
FN:280,_RNvMsM_NtNtCs4ZEr9HMJnjR_13p2p_ai_agents4core6eventsNtB5_21ResourceLimitExceeded3new
FN:280,_RNvMss_NtNtCs4ZEr9HMJnjR_13p2p_ai_agents4core6eventsNtB5_12AgentStopped3new
FN:280,_RNvMsw_NtNtCs4ZEr9HMJnjR_13p2p_ai_agents4core6eventsNtB5_13TaskCompleted3new
FN:234,_RNvXs1_NtNtCs4ZEr9HMJnjR_13p2p_ai_agents4core6eventsNtB5_8EventBusNtNtCsaTRkahAGrLL_4core7default7Default7default
FN:257,_RNvXsD_NtNtCs4ZEr9HMJnjR_13p2p_ai_agents4core6eventsNtB5_13PeerConnectedNtB5_5Event10event_type
FN:273,_RNvXsD_NtNtCs4ZEr9HMJnjR_13p2p_ai_agents4core6eventsNtB5_13PeerConnectedNtB5_5Event11clone_event
FN:261,_RNvXsD_NtNtCs4ZEr9HMJnjR_13p2p_ai_agents4core6eventsNtB5_13PeerConnectedNtB5_5Event2id
FN:269,_RNvXsD_NtNtCs4ZEr9HMJnjR_13p2p_ai_agents4core6eventsNtB5_13PeerConnectedNtB5_5Event6source
FN:265,_RNvXsD_NtNtCs4ZEr9HMJnjR_13p2p_ai_agents4core6eventsNtB5_13PeerConnectedNtB5_5Event9timestamp
FN:257,_RNvXsH_NtNtCs4ZEr9HMJnjR_13p2p_ai_agents4core6eventsNtB5_16PeerDisconnectedNtB5_5Event10event_type
FN:273,_RNvXsH_NtNtCs4ZEr9HMJnjR_13p2p_ai_agents4core6eventsNtB5_16PeerDisconnectedNtB5_5Event11clone_event
FN:261,_RNvXsH_NtNtCs4ZEr9HMJnjR_13p2p_ai_agents4core6eventsNtB5_16PeerDisconnectedNtB5_5Event2id
FN:269,_RNvXsH_NtNtCs4ZEr9HMJnjR_13p2p_ai_agents4core6eventsNtB5_16PeerDisconnectedNtB5_5Event6source
FN:265,_RNvXsH_NtNtCs4ZEr9HMJnjR_13p2p_ai_agents4core6eventsNtB5_16PeerDisconnectedNtB5_5Event9timestamp
FN:257,_RNvXsL_NtNtCs4ZEr9HMJnjR_13p2p_ai_agents4core6eventsNtB5_21ResourceLimitExceededNtB5_5Event10event_type
FN:273,_RNvXsL_NtNtCs4ZEr9HMJnjR_13p2p_ai_agents4core6eventsNtB5_21ResourceLimitExceededNtB5_5Event11clone_event
FN:261,_RNvXsL_NtNtCs4ZEr9HMJnjR_13p2p_ai_agents4core6eventsNtB5_21ResourceLimitExceededNtB5_5Event2id
FN:269,_RNvXsL_NtNtCs4ZEr9HMJnjR_13p2p_ai_agents4core6eventsNtB5_21ResourceLimitExceededNtB5_5Event6source
FN:265,_RNvXsL_NtNtCs4ZEr9HMJnjR_13p2p_ai_agents4core6eventsNtB5_21ResourceLimitExceededNtB5_5Event9timestamp
FN:59,_RNvXs_NtNtCs4ZEr9HMJnjR_13p2p_ai_agents4core6eventsNtB4_7EventIdNtNtCsaTRkahAGrLL_4core7default7Default7default
FN:257,_RNvXsn_NtNtCs4ZEr9HMJnjR_13p2p_ai_agents4core6eventsNtB5_12AgentStartedNtB5_5Event10event_type
FN:273,_RNvXsn_NtNtCs4ZEr9HMJnjR_13p2p_ai_agents4core6eventsNtB5_12AgentStartedNtB5_5Event11clone_event
FN:269,_RNvXsn_NtNtCs4ZEr9HMJnjR_13p2p_ai_agents4core6eventsNtB5_12AgentStartedNtB5_5Event6source
FN:265,_RNvXsn_NtNtCs4ZEr9HMJnjR_13p2p_ai_agents4core6eventsNtB5_12AgentStartedNtB5_5Event9timestamp
FN:257,_RNvXsr_NtNtCs4ZEr9HMJnjR_13p2p_ai_agents4core6eventsNtB5_12AgentStoppedNtB5_5Event10event_type
FN:273,_RNvXsr_NtNtCs4ZEr9HMJnjR_13p2p_ai_agents4core6eventsNtB5_12AgentStoppedNtB5_5Event11clone_event
FN:261,_RNvXsr_NtNtCs4ZEr9HMJnjR_13p2p_ai_agents4core6eventsNtB5_12AgentStoppedNtB5_5Event2id
FN:269,_RNvXsr_NtNtCs4ZEr9HMJnjR_13p2p_ai_agents4core6eventsNtB5_12AgentStoppedNtB5_5Event6source
FN:265,_RNvXsr_NtNtCs4ZEr9HMJnjR_13p2p_ai_agents4core6eventsNtB5_12AgentStoppedNtB5_5Event9timestamp
FN:257,_RNvXsv_NtNtCs4ZEr9HMJnjR_13p2p_ai_agents4core6eventsNtB5_13TaskCompletedNtB5_5Event10event_type
FN:273,_RNvXsv_NtNtCs4ZEr9HMJnjR_13p2p_ai_agents4core6eventsNtB5_13TaskCompletedNtB5_5Event11clone_event
FN:261,_RNvXsv_NtNtCs4ZEr9HMJnjR_13p2p_ai_agents4core6eventsNtB5_13TaskCompletedNtB5_5Event2id
FN:269,_RNvXsv_NtNtCs4ZEr9HMJnjR_13p2p_ai_agents4core6eventsNtB5_13TaskCompletedNtB5_5Event6source
FN:265,_RNvXsv_NtNtCs4ZEr9HMJnjR_13p2p_ai_agents4core6eventsNtB5_13TaskCompletedNtB5_5Event9timestamp
FN:257,_RNvXsz_NtNtCs4ZEr9HMJnjR_13p2p_ai_agents4core6eventsNtB5_10TaskFailedNtB5_5Event10event_type
FN:273,_RNvXsz_NtNtCs4ZEr9HMJnjR_13p2p_ai_agents4core6eventsNtB5_10TaskFailedNtB5_5Event11clone_event
FN:261,_RNvXsz_NtNtCs4ZEr9HMJnjR_13p2p_ai_agents4core6eventsNtB5_10TaskFailedNtB5_5Event2id
FN:269,_RNvXsz_NtNtCs4ZEr9HMJnjR_13p2p_ai_agents4core6eventsNtB5_10TaskFailedNtB5_5Event6source
FN:265,_RNvXsz_NtNtCs4ZEr9HMJnjR_13p2p_ai_agents4core6eventsNtB5_10TaskFailedNtB5_5Event9timestamp
FN:110,_RNvYpINtNtNtCs4ZEr9HMJnjR_13p2p_ai_agents4core6events12EventHandlerpE10can_handleBa_
FN:83,_RNvYpNtNtNtCs4ZEr9HMJnjR_13p2p_ai_agents4core6events5Event8priorityB9_
FN:355,_RNCNvNtNtNtCs4ZEr9HMJnjR_13p2p_ai_agents4core6events5testss_28test_event_bus_handler_count0B9_
FN:326,_RNCNvNtNtNtCs4ZEr9HMJnjR_13p2p_ai_agents4core6events5testss_42test_event_bus_subscription_and_publishing0B9_
FN:314,_RNCNvXNtNtNtCs4ZEr9HMJnjR_13p2p_ai_agents4core6events5testsNtB4_16TestEventHandlerINtB6_12EventHandlerNtB6_12AgentStartedE6handle0Ba_
FN:355,_RNvNtNtNtCs4ZEr9HMJnjR_13p2p_ai_agents4core6events5testss_28test_event_bus_handler_count
FN:326,_RNvNtNtNtCs4ZEr9HMJnjR_13p2p_ai_agents4core6events5testss_42test_event_bus_subscription_and_publishing
FN:320,_RNvXNtNtNtCs4ZEr9HMJnjR_13p2p_ai_agents4core6events5testsNtB2_16TestEventHandlerINtB4_12EventHandlerNtB4_12AgentStartedE4name
FN:318,_RNvXNtNtNtCs4ZEr9HMJnjR_13p2p_ai_agents4core6events5testsNtB2_16TestEventHandlerINtB4_12EventHandlerNtB4_12AgentStartedE6handle
FN:53,_RNvMNtNtCs4ZEr9HMJnjR_13p2p_ai_agents4core6eventsNtB2_7EventId3new
FN:158,_RNvMs0_NtNtCs4ZEr9HMJnjR_13p2p_ai_agents4core6eventsNtB5_8EventBus3new
FN:280,_RNvMso_NtNtCs4ZEr9HMJnjR_13p2p_ai_agents4core6eventsNtB5_12AgentStarted3new
FN:261,_RNvXsn_NtNtCs4ZEr9HMJnjR_13p2p_ai_agents4core6eventsNtB5_12AgentStartedNtB5_5Event2id
FN:213,_RINvMs0_NtNtCs4ZEr9HMJnjR_13p2p_ai_agents4core6eventsNtB6_8EventBus13handler_countNtB6_12AgentStartedEBa_
FN:184,_RINvMs0_NtNtCs4ZEr9HMJnjR_13p2p_ai_agents4core6eventsNtB6_8EventBus7publishNtB6_12AgentStartedEBa_
FN:184,_RINvMs0_NtNtCs4ZEr9HMJnjR_13p2p_ai_agents4core6eventsNtB6_8EventBus7publishNtNtB8_12system_tests18TestLifecycleEventEBa_
FN:184,_RINvMs0_NtNtCs4ZEr9HMJnjR_13p2p_ai_agents4core6eventsNtB6_8EventBus7publishNtNtNtB8_10load_tests16event_load_tests9TestEventEBa_
FN:165,_RINvMs0_NtNtCs4ZEr9HMJnjR_13p2p_ai_agents4core6eventsNtB6_8EventBus9subscribeNtB6_10TaskFailedNtNtBa_11application23ApplicationEventHandlerEBa_
FN:165,_RINvMs0_NtNtCs4ZEr9HMJnjR_13p2p_ai_agents4core6eventsNtB6_8EventBus9subscribeNtB6_12AgentStartedNtNtB6_5tests16TestEventHandlerEBa_
FN:165,_RINvMs0_NtNtCs4ZEr9HMJnjR_13p2p_ai_agents4core6eventsNtB6_8EventBus9subscribeNtB6_12AgentStartedNtNtBa_11application23ApplicationEventHandlerEBa_
FN:165,_RINvMs0_NtNtCs4ZEr9HMJnjR_13p2p_ai_agents4core6eventsNtB6_8EventBus9subscribeNtB6_12AgentStoppedNtNtBa_11application23ApplicationEventHandlerEBa_
FN:165,_RINvMs0_NtNtCs4ZEr9HMJnjR_13p2p_ai_agents4core6eventsNtB6_8EventBus9subscribeNtB6_13TaskCompletedNtNtBa_11application23ApplicationEventHandlerEBa_
FN:165,_RINvMs0_NtNtCs4ZEr9HMJnjR_13p2p_ai_agents4core6eventsNtB6_8EventBus9subscribeNtNtNtB8_10load_tests16event_load_tests9TestEventNtB1f_16TestEventHandlerEBa_
FN:216,_RNCINvMs0_NtNtCs4ZEr9HMJnjR_13p2p_ai_agents4core6eventsNtB8_8EventBus13handler_countNtB8_12AgentStartedE0Bc_
FN:187,_RNCINvMs0_NtNtCs4ZEr9HMJnjR_13p2p_ai_agents4core6eventsNtB8_8EventBus7publishNtB8_12AgentStartedE0Bc_
FN:187,_RNCINvMs0_NtNtCs4ZEr9HMJnjR_13p2p_ai_agents4core6eventsNtB8_8EventBus7publishNtNtBa_12system_tests18TestLifecycleEventE0Bc_
FN:187,_RNCINvMs0_NtNtCs4ZEr9HMJnjR_13p2p_ai_agents4core6eventsNtB8_8EventBus7publishNtNtNtBa_10load_tests16event_load_tests9TestEventE0Bc_
FN:169,_RNCINvMs0_NtNtCs4ZEr9HMJnjR_13p2p_ai_agents4core6eventsNtB8_8EventBus9subscribeNtB8_10TaskFailedNtNtBc_11application23ApplicationEventHandlerE0Bc_
FN:169,_RNCINvMs0_NtNtCs4ZEr9HMJnjR_13p2p_ai_agents4core6eventsNtB8_8EventBus9subscribeNtB8_12AgentStartedNtNtB8_5tests16TestEventHandlerE0Bc_
FN:169,_RNCINvMs0_NtNtCs4ZEr9HMJnjR_13p2p_ai_agents4core6eventsNtB8_8EventBus9subscribeNtB8_12AgentStartedNtNtBc_11application23ApplicationEventHandlerE0Bc_
FN:169,_RNCINvMs0_NtNtCs4ZEr9HMJnjR_13p2p_ai_agents4core6eventsNtB8_8EventBus9subscribeNtB8_12AgentStoppedNtNtBc_11application23ApplicationEventHandlerE0Bc_
FN:169,_RNCINvMs0_NtNtCs4ZEr9HMJnjR_13p2p_ai_agents4core6eventsNtB8_8EventBus9subscribeNtB8_13TaskCompletedNtNtBc_11application23ApplicationEventHandlerE0Bc_
FN:169,_RNCINvMs0_NtNtCs4ZEr9HMJnjR_13p2p_ai_agents4core6eventsNtB8_8EventBus9subscribeNtNtNtBa_10load_tests16event_load_tests9TestEventNtB1h_16TestEventHandlerE0Bc_
FN:219,_RNCNCINvMs0_NtNtCs4ZEr9HMJnjR_13p2p_ai_agents4core6eventsNtBa_8EventBus13handler_countNtBa_12AgentStartedE00Be_
FN:31,_RNCNvXs2_NtNtCs4ZEr9HMJnjR_13p2p_ai_agents4core6eventsINtB7_19EventHandlerWrapperNtB7_10TaskFailedNtNtBb_11application23ApplicationEventHandlerENtB7_18ErasedEventHandler13handle_erased0Bb_
FN:31,_RNCNvXs2_NtNtCs4ZEr9HMJnjR_13p2p_ai_agents4core6eventsINtB7_19EventHandlerWrapperNtB7_12AgentStartedNtNtB7_5tests16TestEventHandlerENtB7_18ErasedEventHandler13handle_erased0Bb_
FN:31,_RNCNvXs2_NtNtCs4ZEr9HMJnjR_13p2p_ai_agents4core6eventsINtB7_19EventHandlerWrapperNtB7_12AgentStartedNtNtBb_11application23ApplicationEventHandlerENtB7_18ErasedEventHandler13handle_erased0Bb_
FN:31,_RNCNvXs2_NtNtCs4ZEr9HMJnjR_13p2p_ai_agents4core6eventsINtB7_19EventHandlerWrapperNtB7_12AgentStoppedNtNtBb_11application23ApplicationEventHandlerENtB7_18ErasedEventHandler13handle_erased0Bb_
FN:31,_RNCNvXs2_NtNtCs4ZEr9HMJnjR_13p2p_ai_agents4core6eventsINtB7_19EventHandlerWrapperNtB7_13TaskCompletedNtNtBb_11application23ApplicationEventHandlerENtB7_18ErasedEventHandler13handle_erased0Bb_
FN:31,_RNCNvXs2_NtNtCs4ZEr9HMJnjR_13p2p_ai_agents4core6eventsINtB7_19EventHandlerWrapperNtNtNtB9_10load_tests16event_load_tests9TestEventNtB1j_16TestEventHandlerENtB7_18ErasedEventHandler13handle_erased0Bb_
FN:37,_RNvXs2_NtNtCs4ZEr9HMJnjR_13p2p_ai_agents4core6eventsINtB5_19EventHandlerWrapperNtB5_10TaskFailedNtNtB9_11application23ApplicationEventHandlerENtB5_18ErasedEventHandler13handle_erasedB9_
FN:39,_RNvXs2_NtNtCs4ZEr9HMJnjR_13p2p_ai_agents4core6eventsINtB5_19EventHandlerWrapperNtB5_10TaskFailedNtNtB9_11application23ApplicationEventHandlerENtB5_18ErasedEventHandler4nameB9_
FN:37,_RNvXs2_NtNtCs4ZEr9HMJnjR_13p2p_ai_agents4core6eventsINtB5_19EventHandlerWrapperNtB5_12AgentStartedNtNtB5_5tests16TestEventHandlerENtB5_18ErasedEventHandler13handle_erasedB9_
FN:39,_RNvXs2_NtNtCs4ZEr9HMJnjR_13p2p_ai_agents4core6eventsINtB5_19EventHandlerWrapperNtB5_12AgentStartedNtNtB5_5tests16TestEventHandlerENtB5_18ErasedEventHandler4nameB9_
FN:37,_RNvXs2_NtNtCs4ZEr9HMJnjR_13p2p_ai_agents4core6eventsINtB5_19EventHandlerWrapperNtB5_12AgentStartedNtNtB9_11application23ApplicationEventHandlerENtB5_18ErasedEventHandler13handle_erasedB9_
FN:39,_RNvXs2_NtNtCs4ZEr9HMJnjR_13p2p_ai_agents4core6eventsINtB5_19EventHandlerWrapperNtB5_12AgentStartedNtNtB9_11application23ApplicationEventHandlerENtB5_18ErasedEventHandler4nameB9_
FN:37,_RNvXs2_NtNtCs4ZEr9HMJnjR_13p2p_ai_agents4core6eventsINtB5_19EventHandlerWrapperNtB5_12AgentStoppedNtNtB9_11application23ApplicationEventHandlerENtB5_18ErasedEventHandler13handle_erasedB9_
FN:39,_RNvXs2_NtNtCs4ZEr9HMJnjR_13p2p_ai_agents4core6eventsINtB5_19EventHandlerWrapperNtB5_12AgentStoppedNtNtB9_11application23ApplicationEventHandlerENtB5_18ErasedEventHandler4nameB9_
FN:37,_RNvXs2_NtNtCs4ZEr9HMJnjR_13p2p_ai_agents4core6eventsINtB5_19EventHandlerWrapperNtB5_13TaskCompletedNtNtB9_11application23ApplicationEventHandlerENtB5_18ErasedEventHandler13handle_erasedB9_
FN:39,_RNvXs2_NtNtCs4ZEr9HMJnjR_13p2p_ai_agents4core6eventsINtB5_19EventHandlerWrapperNtB5_13TaskCompletedNtNtB9_11application23ApplicationEventHandlerENtB5_18ErasedEventHandler4nameB9_
FN:37,_RNvXs2_NtNtCs4ZEr9HMJnjR_13p2p_ai_agents4core6eventsINtB5_19EventHandlerWrapperNtNtNtB7_10load_tests16event_load_tests9TestEventNtB1h_16TestEventHandlerENtB5_18ErasedEventHandler13handle_erasedB9_
FN:39,_RNvXs2_NtNtCs4ZEr9HMJnjR_13p2p_ai_agents4core6eventsINtB5_19EventHandlerWrapperNtNtNtB7_10load_tests16event_load_tests9TestEventNtB1h_16TestEventHandlerENtB5_18ErasedEventHandler4nameB9_
FNDA:0,_RINvMs0_NtNtCsazECCRb7Zym_13p2p_ai_agents4core6eventsNtB6_8EventBus13handler_countpEBa_
FNDA:0,_RINvMs0_NtNtCsazECCRb7Zym_13p2p_ai_agents4core6eventsNtB6_8EventBus14clear_handlerspEBa_
FNDA:0,_RINvMs0_NtNtCsazECCRb7Zym_13p2p_ai_agents4core6eventsNtB6_8EventBus7publishpEBa_
FNDA:0,_RINvMs0_NtNtCsazECCRb7Zym_13p2p_ai_agents4core6eventsNtB6_8EventBus9subscribeppEBa_
FNDA:0,_RNCINvMs0_NtNtCsazECCRb7Zym_13p2p_ai_agents4core6eventsNtB8_8EventBus13handler_countpE0Bc_
FNDA:0,_RNCINvMs0_NtNtCsazECCRb7Zym_13p2p_ai_agents4core6eventsNtB8_8EventBus14clear_handlerspE0Bc_
FNDA:0,_RNCINvMs0_NtNtCsazECCRb7Zym_13p2p_ai_agents4core6eventsNtB8_8EventBus7publishpE0Bc_
FNDA:0,_RNCINvMs0_NtNtCsazECCRb7Zym_13p2p_ai_agents4core6eventsNtB8_8EventBus9subscribeppE0Bc_
FNDA:0,_RNCNCINvMs0_NtNtCsazECCRb7Zym_13p2p_ai_agents4core6eventsNtBa_8EventBus13handler_countpE00Be_
FNDA:0,_RNCNvXININtNtCsazECCRb7Zym_13p2p_ai_agents4core6eventss2_0ppEINtB7_19EventHandlerWrapperppENtB7_18ErasedEventHandler13handle_erased0Bb_
FNDA:0,_RNvXININtNtCsazECCRb7Zym_13p2p_ai_agents4core6eventss2_0ppEINtB5_19EventHandlerWrapperppENtB5_18ErasedEventHandler13handle_erasedB9_
FNDA:0,_RNvXININtNtCsazECCRb7Zym_13p2p_ai_agents4core6eventss2_0ppEINtB5_19EventHandlerWrapperppENtB5_18ErasedEventHandler4nameB9_
FNDA:0,_RNvYpINtNtNtCsazECCRb7Zym_13p2p_ai_agents4core6events12EventHandlerpE10can_handleBa_
FNDA:0,_RNvYNtNtNtCsazECCRb7Zym_13p2p_ai_agents4core6events10TaskFailedNtB4_5Event8priorityB8_
FNDA:0,_RNvYNtNtNtCsazECCRb7Zym_13p2p_ai_agents4core6events12AgentStartedNtB4_5Event8priorityB8_
FNDA:0,_RNvYNtNtNtCsazECCRb7Zym_13p2p_ai_agents4core6events12AgentStoppedNtB4_5Event8priorityB8_
FNDA:0,_RNvYNtNtNtCsazECCRb7Zym_13p2p_ai_agents4core6events13PeerConnectedNtB4_5Event8priorityB8_
FNDA:0,_RNvYNtNtNtCsazECCRb7Zym_13p2p_ai_agents4core6events13TaskCompletedNtB4_5Event8priorityB8_
FNDA:0,_RNvYNtNtNtCsazECCRb7Zym_13p2p_ai_agents4core6events16PeerDisconnectedNtB4_5Event8priorityB8_
FNDA:0,_RNvYNtNtNtCsazECCRb7Zym_13p2p_ai_agents4core6events21ResourceLimitExceededNtB4_5Event8priorityB8_
FNDA:0,_RNvMNtNtCsazECCRb7Zym_13p2p_ai_agents4core6eventsNtB2_7EventId3new
FNDA:3,_RNvMs0_NtNtCsazECCRb7Zym_13p2p_ai_agents4core6eventsNtB5_8EventBus3new
FNDA:0,_RNvMsA_NtNtCsazECCRb7Zym_13p2p_ai_agents4core6eventsNtB5_10TaskFailed3new
FNDA:0,_RNvMsE_NtNtCsazECCRb7Zym_13p2p_ai_agents4core6eventsNtB5_13PeerConnected3new
FNDA:0,_RNvMsI_NtNtCsazECCRb7Zym_13p2p_ai_agents4core6eventsNtB5_16PeerDisconnected3new
FNDA:0,_RNvMsM_NtNtCsazECCRb7Zym_13p2p_ai_agents4core6eventsNtB5_21ResourceLimitExceeded3new
FNDA:0,_RNvMso_NtNtCsazECCRb7Zym_13p2p_ai_agents4core6eventsNtB5_12AgentStarted3new
FNDA:0,_RNvMss_NtNtCsazECCRb7Zym_13p2p_ai_agents4core6eventsNtB5_12AgentStopped3new
FNDA:0,_RNvMsw_NtNtCsazECCRb7Zym_13p2p_ai_agents4core6eventsNtB5_13TaskCompleted3new
FNDA:0,_RNvXs1_NtNtCsazECCRb7Zym_13p2p_ai_agents4core6eventsNtB5_8EventBusNtNtCsaTRkahAGrLL_4core7default7Default7default
FNDA:0,_RNvXsD_NtNtCsazECCRb7Zym_13p2p_ai_agents4core6eventsNtB5_13PeerConnectedNtB5_5Event10event_type
FNDA:0,_RNvXsD_NtNtCsazECCRb7Zym_13p2p_ai_agents4core6eventsNtB5_13PeerConnectedNtB5_5Event11clone_event
FNDA:0,_RNvXsD_NtNtCsazECCRb7Zym_13p2p_ai_agents4core6eventsNtB5_13PeerConnectedNtB5_5Event2id
FNDA:0,_RNvXsD_NtNtCsazECCRb7Zym_13p2p_ai_agents4core6eventsNtB5_13PeerConnectedNtB5_5Event6source
FNDA:0,_RNvXsD_NtNtCsazECCRb7Zym_13p2p_ai_agents4core6eventsNtB5_13PeerConnectedNtB5_5Event9timestamp
FNDA:0,_RNvXsH_NtNtCsazECCRb7Zym_13p2p_ai_agents4core6eventsNtB5_16PeerDisconnectedNtB5_5Event10event_type
FNDA:0,_RNvXsH_NtNtCsazECCRb7Zym_13p2p_ai_agents4core6eventsNtB5_16PeerDisconnectedNtB5_5Event11clone_event
FNDA:0,_RNvXsH_NtNtCsazECCRb7Zym_13p2p_ai_agents4core6eventsNtB5_16PeerDisconnectedNtB5_5Event2id
FNDA:0,_RNvXsH_NtNtCsazECCRb7Zym_13p2p_ai_agents4core6eventsNtB5_16PeerDisconnectedNtB5_5Event6source
FNDA:0,_RNvXsH_NtNtCsazECCRb7Zym_13p2p_ai_agents4core6eventsNtB5_16PeerDisconnectedNtB5_5Event9timestamp
FNDA:0,_RNvXsL_NtNtCsazECCRb7Zym_13p2p_ai_agents4core6eventsNtB5_21ResourceLimitExceededNtB5_5Event10event_type
FNDA:0,_RNvXsL_NtNtCsazECCRb7Zym_13p2p_ai_agents4core6eventsNtB5_21ResourceLimitExceededNtB5_5Event11clone_event
FNDA:0,_RNvXsL_NtNtCsazECCRb7Zym_13p2p_ai_agents4core6eventsNtB5_21ResourceLimitExceededNtB5_5Event2id
FNDA:0,_RNvXsL_NtNtCsazECCRb7Zym_13p2p_ai_agents4core6eventsNtB5_21ResourceLimitExceededNtB5_5Event6source
FNDA:0,_RNvXsL_NtNtCsazECCRb7Zym_13p2p_ai_agents4core6eventsNtB5_21ResourceLimitExceededNtB5_5Event9timestamp
FNDA:0,_RNvXs_NtNtCsazECCRb7Zym_13p2p_ai_agents4core6eventsNtB4_7EventIdNtNtCsaTRkahAGrLL_4core7default7Default7default
FNDA:0,_RNvXsn_NtNtCsazECCRb7Zym_13p2p_ai_agents4core6eventsNtB5_12AgentStartedNtB5_5Event10event_type
FNDA:0,_RNvXsn_NtNtCsazECCRb7Zym_13p2p_ai_agents4core6eventsNtB5_12AgentStartedNtB5_5Event11clone_event
FNDA:0,_RNvXsn_NtNtCsazECCRb7Zym_13p2p_ai_agents4core6eventsNtB5_12AgentStartedNtB5_5Event2id
FNDA:0,_RNvXsn_NtNtCsazECCRb7Zym_13p2p_ai_agents4core6eventsNtB5_12AgentStartedNtB5_5Event6source
FNDA:0,_RNvXsn_NtNtCsazECCRb7Zym_13p2p_ai_agents4core6eventsNtB5_12AgentStartedNtB5_5Event9timestamp
FNDA:0,_RNvXsr_NtNtCsazECCRb7Zym_13p2p_ai_agents4core6eventsNtB5_12AgentStoppedNtB5_5Event10event_type
FNDA:0,_RNvXsr_NtNtCsazECCRb7Zym_13p2p_ai_agents4core6eventsNtB5_12AgentStoppedNtB5_5Event11clone_event
FNDA:0,_RNvXsr_NtNtCsazECCRb7Zym_13p2p_ai_agents4core6eventsNtB5_12AgentStoppedNtB5_5Event2id
FNDA:0,_RNvXsr_NtNtCsazECCRb7Zym_13p2p_ai_agents4core6eventsNtB5_12AgentStoppedNtB5_5Event6source
FNDA:0,_RNvXsr_NtNtCsazECCRb7Zym_13p2p_ai_agents4core6eventsNtB5_12AgentStoppedNtB5_5Event9timestamp
FNDA:0,_RNvXsv_NtNtCsazECCRb7Zym_13p2p_ai_agents4core6eventsNtB5_13TaskCompletedNtB5_5Event10event_type
FNDA:0,_RNvXsv_NtNtCsazECCRb7Zym_13p2p_ai_agents4core6eventsNtB5_13TaskCompletedNtB5_5Event11clone_event
FNDA:0,_RNvXsv_NtNtCsazECCRb7Zym_13p2p_ai_agents4core6eventsNtB5_13TaskCompletedNtB5_5Event2id
FNDA:0,_RNvXsv_NtNtCsazECCRb7Zym_13p2p_ai_agents4core6eventsNtB5_13TaskCompletedNtB5_5Event6source
FNDA:0,_RNvXsv_NtNtCsazECCRb7Zym_13p2p_ai_agents4core6eventsNtB5_13TaskCompletedNtB5_5Event9timestamp
FNDA:0,_RNvXsz_NtNtCsazECCRb7Zym_13p2p_ai_agents4core6eventsNtB5_10TaskFailedNtB5_5Event10event_type
FNDA:0,_RNvXsz_NtNtCsazECCRb7Zym_13p2p_ai_agents4core6eventsNtB5_10TaskFailedNtB5_5Event11clone_event
FNDA:0,_RNvXsz_NtNtCsazECCRb7Zym_13p2p_ai_agents4core6eventsNtB5_10TaskFailedNtB5_5Event2id
FNDA:0,_RNvXsz_NtNtCsazECCRb7Zym_13p2p_ai_agents4core6eventsNtB5_10TaskFailedNtB5_5Event6source
FNDA:0,_RNvXsz_NtNtCsazECCRb7Zym_13p2p_ai_agents4core6eventsNtB5_10TaskFailedNtB5_5Event9timestamp
FNDA:0,_RINvMs0_NtNtCs4ZEr9HMJnjR_13p2p_ai_agents4core6eventsNtB6_8EventBus14clear_handlerspEBa_
FNDA:0,_RNCINvMs0_NtNtCs4ZEr9HMJnjR_13p2p_ai_agents4core6eventsNtB8_8EventBus14clear_handlerspE0Bc_
FNDA:0,_RNvMsA_NtNtCs4ZEr9HMJnjR_13p2p_ai_agents4core6eventsNtB5_10TaskFailed3new
FNDA:0,_RNvMsE_NtNtCs4ZEr9HMJnjR_13p2p_ai_agents4core6eventsNtB5_13PeerConnected3new
FNDA:0,_RNvMsI_NtNtCs4ZEr9HMJnjR_13p2p_ai_agents4core6eventsNtB5_16PeerDisconnected3new
FNDA:0,_RNvMsM_NtNtCs4ZEr9HMJnjR_13p2p_ai_agents4core6eventsNtB5_21ResourceLimitExceeded3new
FNDA:0,_RNvMss_NtNtCs4ZEr9HMJnjR_13p2p_ai_agents4core6eventsNtB5_12AgentStopped3new
FNDA:0,_RNvMsw_NtNtCs4ZEr9HMJnjR_13p2p_ai_agents4core6eventsNtB5_13TaskCompleted3new
FNDA:0,_RNvXs1_NtNtCs4ZEr9HMJnjR_13p2p_ai_agents4core6eventsNtB5_8EventBusNtNtCsaTRkahAGrLL_4core7default7Default7default
FNDA:0,_RNvXsD_NtNtCs4ZEr9HMJnjR_13p2p_ai_agents4core6eventsNtB5_13PeerConnectedNtB5_5Event10event_type
FNDA:0,_RNvXsD_NtNtCs4ZEr9HMJnjR_13p2p_ai_agents4core6eventsNtB5_13PeerConnectedNtB5_5Event11clone_event
FNDA:0,_RNvXsD_NtNtCs4ZEr9HMJnjR_13p2p_ai_agents4core6eventsNtB5_13PeerConnectedNtB5_5Event2id
FNDA:0,_RNvXsD_NtNtCs4ZEr9HMJnjR_13p2p_ai_agents4core6eventsNtB5_13PeerConnectedNtB5_5Event6source
FNDA:0,_RNvXsD_NtNtCs4ZEr9HMJnjR_13p2p_ai_agents4core6eventsNtB5_13PeerConnectedNtB5_5Event9timestamp
FNDA:0,_RNvXsH_NtNtCs4ZEr9HMJnjR_13p2p_ai_agents4core6eventsNtB5_16PeerDisconnectedNtB5_5Event10event_type
FNDA:0,_RNvXsH_NtNtCs4ZEr9HMJnjR_13p2p_ai_agents4core6eventsNtB5_16PeerDisconnectedNtB5_5Event11clone_event
FNDA:0,_RNvXsH_NtNtCs4ZEr9HMJnjR_13p2p_ai_agents4core6eventsNtB5_16PeerDisconnectedNtB5_5Event2id
FNDA:0,_RNvXsH_NtNtCs4ZEr9HMJnjR_13p2p_ai_agents4core6eventsNtB5_16PeerDisconnectedNtB5_5Event6source
FNDA:0,_RNvXsH_NtNtCs4ZEr9HMJnjR_13p2p_ai_agents4core6eventsNtB5_16PeerDisconnectedNtB5_5Event9timestamp
FNDA:0,_RNvXsL_NtNtCs4ZEr9HMJnjR_13p2p_ai_agents4core6eventsNtB5_21ResourceLimitExceededNtB5_5Event10event_type
FNDA:0,_RNvXsL_NtNtCs4ZEr9HMJnjR_13p2p_ai_agents4core6eventsNtB5_21ResourceLimitExceededNtB5_5Event11clone_event
FNDA:0,_RNvXsL_NtNtCs4ZEr9HMJnjR_13p2p_ai_agents4core6eventsNtB5_21ResourceLimitExceededNtB5_5Event2id
FNDA:0,_RNvXsL_NtNtCs4ZEr9HMJnjR_13p2p_ai_agents4core6eventsNtB5_21ResourceLimitExceededNtB5_5Event6source
FNDA:0,_RNvXsL_NtNtCs4ZEr9HMJnjR_13p2p_ai_agents4core6eventsNtB5_21ResourceLimitExceededNtB5_5Event9timestamp
FNDA:0,_RNvXs_NtNtCs4ZEr9HMJnjR_13p2p_ai_agents4core6eventsNtB4_7EventIdNtNtCsaTRkahAGrLL_4core7default7Default7default
FNDA:0,_RNvXsn_NtNtCs4ZEr9HMJnjR_13p2p_ai_agents4core6eventsNtB5_12AgentStartedNtB5_5Event10event_type
FNDA:0,_RNvXsn_NtNtCs4ZEr9HMJnjR_13p2p_ai_agents4core6eventsNtB5_12AgentStartedNtB5_5Event11clone_event
FNDA:0,_RNvXsn_NtNtCs4ZEr9HMJnjR_13p2p_ai_agents4core6eventsNtB5_12AgentStartedNtB5_5Event6source
FNDA:0,_RNvXsn_NtNtCs4ZEr9HMJnjR_13p2p_ai_agents4core6eventsNtB5_12AgentStartedNtB5_5Event9timestamp
FNDA:0,_RNvXsr_NtNtCs4ZEr9HMJnjR_13p2p_ai_agents4core6eventsNtB5_12AgentStoppedNtB5_5Event10event_type
FNDA:0,_RNvXsr_NtNtCs4ZEr9HMJnjR_13p2p_ai_agents4core6eventsNtB5_12AgentStoppedNtB5_5Event11clone_event
FNDA:0,_RNvXsr_NtNtCs4ZEr9HMJnjR_13p2p_ai_agents4core6eventsNtB5_12AgentStoppedNtB5_5Event2id
FNDA:0,_RNvXsr_NtNtCs4ZEr9HMJnjR_13p2p_ai_agents4core6eventsNtB5_12AgentStoppedNtB5_5Event6source
FNDA:0,_RNvXsr_NtNtCs4ZEr9HMJnjR_13p2p_ai_agents4core6eventsNtB5_12AgentStoppedNtB5_5Event9timestamp
FNDA:0,_RNvXsv_NtNtCs4ZEr9HMJnjR_13p2p_ai_agents4core6eventsNtB5_13TaskCompletedNtB5_5Event10event_type
FNDA:0,_RNvXsv_NtNtCs4ZEr9HMJnjR_13p2p_ai_agents4core6eventsNtB5_13TaskCompletedNtB5_5Event11clone_event
FNDA:0,_RNvXsv_NtNtCs4ZEr9HMJnjR_13p2p_ai_agents4core6eventsNtB5_13TaskCompletedNtB5_5Event2id
FNDA:0,_RNvXsv_NtNtCs4ZEr9HMJnjR_13p2p_ai_agents4core6eventsNtB5_13TaskCompletedNtB5_5Event6source
FNDA:0,_RNvXsv_NtNtCs4ZEr9HMJnjR_13p2p_ai_agents4core6eventsNtB5_13TaskCompletedNtB5_5Event9timestamp
FNDA:0,_RNvXsz_NtNtCs4ZEr9HMJnjR_13p2p_ai_agents4core6eventsNtB5_10TaskFailedNtB5_5Event10event_type
FNDA:0,_RNvXsz_NtNtCs4ZEr9HMJnjR_13p2p_ai_agents4core6eventsNtB5_10TaskFailedNtB5_5Event11clone_event
FNDA:0,_RNvXsz_NtNtCs4ZEr9HMJnjR_13p2p_ai_agents4core6eventsNtB5_10TaskFailedNtB5_5Event2id
FNDA:0,_RNvXsz_NtNtCs4ZEr9HMJnjR_13p2p_ai_agents4core6eventsNtB5_10TaskFailedNtB5_5Event6source
FNDA:0,_RNvXsz_NtNtCs4ZEr9HMJnjR_13p2p_ai_agents4core6eventsNtB5_10TaskFailedNtB5_5Event9timestamp
FNDA:0,_RNvYpINtNtNtCs4ZEr9HMJnjR_13p2p_ai_agents4core6events12EventHandlerpE10can_handleBa_
FNDA:0,_RNvYpNtNtNtCs4ZEr9HMJnjR_13p2p_ai_agents4core6events5Event8priorityB9_
FNDA:1,_RNCNvNtNtNtCs4ZEr9HMJnjR_13p2p_ai_agents4core6events5testss_28test_event_bus_handler_count0B9_
FNDA:1,_RNCNvNtNtNtCs4ZEr9HMJnjR_13p2p_ai_agents4core6events5testss_42test_event_bus_subscription_and_publishing0B9_
FNDA:1,_RNCNvXNtNtNtCs4ZEr9HMJnjR_13p2p_ai_agents4core6events5testsNtB4_16TestEventHandlerINtB6_12EventHandlerNtB6_12AgentStartedE6handle0Ba_
FNDA:1,_RNvNtNtNtCs4ZEr9HMJnjR_13p2p_ai_agents4core6events5testss_28test_event_bus_handler_count
FNDA:1,_RNvNtNtNtCs4ZEr9HMJnjR_13p2p_ai_agents4core6events5testss_42test_event_bus_subscription_and_publishing
FNDA:0,_RNvXNtNtNtCs4ZEr9HMJnjR_13p2p_ai_agents4core6events5testsNtB2_16TestEventHandlerINtB4_12EventHandlerNtB4_12AgentStartedE4name
FNDA:1,_RNvXNtNtNtCs4ZEr9HMJnjR_13p2p_ai_agents4core6events5testsNtB2_16TestEventHandlerINtB4_12EventHandlerNtB4_12AgentStartedE6handle
FNDA:117792,_RNvMNtNtCs4ZEr9HMJnjR_13p2p_ai_agents4core6eventsNtB2_7EventId3new
FNDA:10,_RNvMs0_NtNtCs4ZEr9HMJnjR_13p2p_ai_agents4core6eventsNtB5_8EventBus3new
FNDA:1,_RNvMso_NtNtCs4ZEr9HMJnjR_13p2p_ai_agents4core6eventsNtB5_12AgentStarted3new
FNDA:2,_RNvXsn_NtNtCs4ZEr9HMJnjR_13p2p_ai_agents4core6eventsNtB5_12AgentStartedNtB5_5Event2id
FNDA:1,_RINvMs0_NtNtCs4ZEr9HMJnjR_13p2p_ai_agents4core6eventsNtB6_8EventBus13handler_countNtB6_12AgentStartedEBa_
FNDA:1,_RINvMs0_NtNtCs4ZEr9HMJnjR_13p2p_ai_agents4core6eventsNtB6_8EventBus7publishNtB6_12AgentStartedEBa_
FNDA:52,_RINvMs0_NtNtCs4ZEr9HMJnjR_13p2p_ai_agents4core6eventsNtB6_8EventBus7publishNtNtB8_12system_tests18TestLifecycleEventEBa_
FNDA:117739,_RINvMs0_NtNtCs4ZEr9HMJnjR_13p2p_ai_agents4core6eventsNtB6_8EventBus7publishNtNtNtB8_10load_tests16event_load_tests9TestEventEBa_
FNDA:1,_RINvMs0_NtNtCs4ZEr9HMJnjR_13p2p_ai_agents4core6eventsNtB6_8EventBus9subscribeNtB6_10TaskFailedNtNtBa_11application23ApplicationEventHandlerEBa_
FNDA:3,_RINvMs0_NtNtCs4ZEr9HMJnjR_13p2p_ai_agents4core6eventsNtB6_8EventBus9subscribeNtB6_12AgentStartedNtNtB6_5tests16TestEventHandlerEBa_
FNDA:1,_RINvMs0_NtNtCs4ZEr9HMJnjR_13p2p_ai_agents4core6eventsNtB6_8EventBus9subscribeNtB6_12AgentStartedNtNtBa_11application23ApplicationEventHandlerEBa_
FNDA:1,_RINvMs0_NtNtCs4ZEr9HMJnjR_13p2p_ai_agents4core6eventsNtB6_8EventBus9subscribeNtB6_12AgentStoppedNtNtBa_11application23ApplicationEventHandlerEBa_
FNDA:1,_RINvMs0_NtNtCs4ZEr9HMJnjR_13p2p_ai_agents4core6eventsNtB6_8EventBus9subscribeNtB6_13TaskCompletedNtNtBa_11application23ApplicationEventHandlerEBa_
FNDA:5,_RINvMs0_NtNtCs4ZEr9HMJnjR_13p2p_ai_agents4core6eventsNtB6_8EventBus9subscribeNtNtNtB8_10load_tests16event_load_tests9TestEventNtB1f_16TestEventHandlerEBa_
FNDA:1,_RNCINvMs0_NtNtCs4ZEr9HMJnjR_13p2p_ai_agents4core6eventsNtB8_8EventBus13handler_countNtB8_12AgentStartedE0Bc_
FNDA:1,_RNCINvMs0_NtNtCs4ZEr9HMJnjR_13p2p_ai_agents4core6eventsNtB8_8EventBus7publishNtB8_12AgentStartedE0Bc_
FNDA:52,_RNCINvMs0_NtNtCs4ZEr9HMJnjR_13p2p_ai_agents4core6eventsNtB8_8EventBus7publishNtNtBa_12system_tests18TestLifecycleEventE0Bc_
FNDA:117739,_RNCINvMs0_NtNtCs4ZEr9HMJnjR_13p2p_ai_agents4core6eventsNtB8_8EventBus7publishNtNtNtBa_10load_tests16event_load_tests9TestEventE0Bc_
FNDA:1,_RNCINvMs0_NtNtCs4ZEr9HMJnjR_13p2p_ai_agents4core6eventsNtB8_8EventBus9subscribeNtB8_10TaskFailedNtNtBc_11application23ApplicationEventHandlerE0Bc_
FNDA:3,_RNCINvMs0_NtNtCs4ZEr9HMJnjR_13p2p_ai_agents4core6eventsNtB8_8EventBus9subscribeNtB8_12AgentStartedNtNtB8_5tests16TestEventHandlerE0Bc_
FNDA:1,_RNCINvMs0_NtNtCs4ZEr9HMJnjR_13p2p_ai_agents4core6eventsNtB8_8EventBus9subscribeNtB8_12AgentStartedNtNtBc_11application23ApplicationEventHandlerE0Bc_
FNDA:1,_RNCINvMs0_NtNtCs4ZEr9HMJnjR_13p2p_ai_agents4core6eventsNtB8_8EventBus9subscribeNtB8_12AgentStoppedNtNtBc_11application23ApplicationEventHandlerE0Bc_
FNDA:1,_RNCINvMs0_NtNtCs4ZEr9HMJnjR_13p2p_ai_agents4core6eventsNtB8_8EventBus9subscribeNtB8_13TaskCompletedNtNtBc_11application23ApplicationEventHandlerE0Bc_
FNDA:5,_RNCINvMs0_NtNtCs4ZEr9HMJnjR_13p2p_ai_agents4core6eventsNtB8_8EventBus9subscribeNtNtNtBa_10load_tests16event_load_tests9TestEventNtB1h_16TestEventHandlerE0Bc_
FNDA:1,_RNCNCINvMs0_NtNtCs4ZEr9HMJnjR_13p2p_ai_agents4core6eventsNtBa_8EventBus13handler_countNtBa_12AgentStartedE00Be_
FNDA:0,_RNCNvXs2_NtNtCs4ZEr9HMJnjR_13p2p_ai_agents4core6eventsINtB7_19EventHandlerWrapperNtB7_10TaskFailedNtNtBb_11application23ApplicationEventHandlerENtB7_18ErasedEventHandler13handle_erased0Bb_
FNDA:1,_RNCNvXs2_NtNtCs4ZEr9HMJnjR_13p2p_ai_agents4core6eventsINtB7_19EventHandlerWrapperNtB7_12AgentStartedNtNtB7_5tests16TestEventHandlerENtB7_18ErasedEventHandler13handle_erased0Bb_
FNDA:0,_RNCNvXs2_NtNtCs4ZEr9HMJnjR_13p2p_ai_agents4core6eventsINtB7_19EventHandlerWrapperNtB7_12AgentStartedNtNtBb_11application23ApplicationEventHandlerENtB7_18ErasedEventHandler13handle_erased0Bb_
FNDA:0,_RNCNvXs2_NtNtCs4ZEr9HMJnjR_13p2p_ai_agents4core6eventsINtB7_19EventHandlerWrapperNtB7_12AgentStoppedNtNtBb_11application23ApplicationEventHandlerENtB7_18ErasedEventHandler13handle_erased0Bb_
FNDA:0,_RNCNvXs2_NtNtCs4ZEr9HMJnjR_13p2p_ai_agents4core6eventsINtB7_19EventHandlerWrapperNtB7_13TaskCompletedNtNtBb_11application23ApplicationEventHandlerENtB7_18ErasedEventHandler13handle_erased0Bb_
FNDA:588695,_RNCNvXs2_NtNtCs4ZEr9HMJnjR_13p2p_ai_agents4core6eventsINtB7_19EventHandlerWrapperNtNtNtB9_10load_tests16event_load_tests9TestEventNtB1j_16TestEventHandlerENtB7_18ErasedEventHandler13handle_erased0Bb_
FNDA:0,_RNvXs2_NtNtCs4ZEr9HMJnjR_13p2p_ai_agents4core6eventsINtB5_19EventHandlerWrapperNtB5_10TaskFailedNtNtB9_11application23ApplicationEventHandlerENtB5_18ErasedEventHandler13handle_erasedB9_
FNDA:0,_RNvXs2_NtNtCs4ZEr9HMJnjR_13p2p_ai_agents4core6eventsINtB5_19EventHandlerWrapperNtB5_10TaskFailedNtNtB9_11application23ApplicationEventHandlerENtB5_18ErasedEventHandler4nameB9_
FNDA:1,_RNvXs2_NtNtCs4ZEr9HMJnjR_13p2p_ai_agents4core6eventsINtB5_19EventHandlerWrapperNtB5_12AgentStartedNtNtB5_5tests16TestEventHandlerENtB5_18ErasedEventHandler13handle_erasedB9_
FNDA:0,_RNvXs2_NtNtCs4ZEr9HMJnjR_13p2p_ai_agents4core6eventsINtB5_19EventHandlerWrapperNtB5_12AgentStartedNtNtB5_5tests16TestEventHandlerENtB5_18ErasedEventHandler4nameB9_
FNDA:0,_RNvXs2_NtNtCs4ZEr9HMJnjR_13p2p_ai_agents4core6eventsINtB5_19EventHandlerWrapperNtB5_12AgentStartedNtNtB9_11application23ApplicationEventHandlerENtB5_18ErasedEventHandler13handle_erasedB9_
FNDA:0,_RNvXs2_NtNtCs4ZEr9HMJnjR_13p2p_ai_agents4core6eventsINtB5_19EventHandlerWrapperNtB5_12AgentStartedNtNtB9_11application23ApplicationEventHandlerENtB5_18ErasedEventHandler4nameB9_
FNDA:0,_RNvXs2_NtNtCs4ZEr9HMJnjR_13p2p_ai_agents4core6eventsINtB5_19EventHandlerWrapperNtB5_12AgentStoppedNtNtB9_11application23ApplicationEventHandlerENtB5_18ErasedEventHandler13handle_erasedB9_
FNDA:0,_RNvXs2_NtNtCs4ZEr9HMJnjR_13p2p_ai_agents4core6eventsINtB5_19EventHandlerWrapperNtB5_12AgentStoppedNtNtB9_11application23ApplicationEventHandlerENtB5_18ErasedEventHandler4nameB9_
FNDA:0,_RNvXs2_NtNtCs4ZEr9HMJnjR_13p2p_ai_agents4core6eventsINtB5_19EventHandlerWrapperNtB5_13TaskCompletedNtNtB9_11application23ApplicationEventHandlerENtB5_18ErasedEventHandler13handle_erasedB9_
FNDA:0,_RNvXs2_NtNtCs4ZEr9HMJnjR_13p2p_ai_agents4core6eventsINtB5_19EventHandlerWrapperNtB5_13TaskCompletedNtNtB9_11application23ApplicationEventHandlerENtB5_18ErasedEventHandler4nameB9_
FNDA:588695,_RNvXs2_NtNtCs4ZEr9HMJnjR_13p2p_ai_agents4core6eventsINtB5_19EventHandlerWrapperNtNtNtB7_10load_tests16event_load_tests9TestEventNtB1h_16TestEventHandlerENtB5_18ErasedEventHandler13handle_erasedB9_
FNDA:0,_RNvXs2_NtNtCs4ZEr9HMJnjR_13p2p_ai_agents4core6eventsINtB5_19EventHandlerWrapperNtNtNtB7_10load_tests16event_load_tests9TestEventNtB1h_16TestEventHandlerENtB5_18ErasedEventHandler4nameB9_
FNF:31
FNH:19
DA:31,588696
DA:32,588696
DA:33,588696
DA:35,0
DA:37,1177392
DA:39,0
DA:40,0
DA:41,0
DA:53,117792
DA:54,117792
DA:55,117792
DA:59,0
DA:60,0
DA:61,0
DA:83,0
DA:84,0
DA:85,0
DA:110,0
DA:111,0
DA:112,0
DA:158,13
DA:159,13
DA:160,13
DA:161,13
DA:162,13
DA:165,12
DA:166,12
DA:167,12
DA:168,12
DA:169,12
DA:170,12
DA:171,12
DA:173,12
DA:174,12
DA:175,12
DA:176,12
DA:177,12
DA:178,12
DA:179,12
DA:180,12
DA:181,12
DA:184,117792
DA:185,117792
DA:186,117792
DA:187,117792
DA:188,117792
DA:189,117792
DA:190,117792
DA:192,117792
DA:193,706436
DA:194,588696
DA:195,588696
DA:196,588696
DA:197,588696
DA:198,0
DA:199,0
DA:201,0
DA:202,0
DA:204,588696
DA:207,52
DA:209,117792
DA:210,117792
DA:213,1
DA:214,1
DA:215,1
DA:216,1
DA:217,1
DA:218,1
DA:219,1
DA:220,1
DA:223,0
DA:224,0
DA:225,0
DA:226,0
DA:227,0
DA:228,0
DA:229,0
DA:230,0
DA:234,0
DA:235,0
DA:236,0
DA:257,0
DA:258,0
DA:259,0
DA:261,2
DA:262,2
DA:263,2
DA:265,0
DA:266,0
DA:267,0
DA:269,0
DA:270,0
DA:271,0
DA:273,0
DA:274,0
DA:275,0
DA:280,1
DA:281,1
DA:282,1
DA:283,1
DA:284,1
DA:285,1
DA:286,1
DA:287,1
DA:314,1
DA:315,1
DA:316,1
DA:317,1
DA:318,2
DA:320,0
DA:321,0
DA:322,0
DA:326,1
DA:327,1
DA:328,1
DA:329,1
DA:330,1
DA:331,1
DA:332,1
DA:333,1
DA:334,1
DA:335,1
DA:336,1
DA:337,1
DA:338,1
DA:339,1
DA:340,1
DA:341,1
DA:342,1
DA:343,1
DA:344,1
DA:345,1
DA:346,1
DA:347,1
DA:348,1
DA:349,1
DA:350,1
DA:351,1
DA:352,1
DA:355,1
DA:356,1
DA:357,1
DA:358,1
DA:359,1
DA:360,1
DA:361,1
DA:362,1
DA:363,1
DA:364,1
DA:365,1
DA:366,1
DA:367,1
DA:368,1
DA:369,1
DA:370,1
DA:371,1
DA:372,1
DA:373,1
DA:374,1
DA:375,1
DA:376,1
DA:377,1
DA:378,1
DA:379,1
DA:380,1
BRF:0
BRH:0
LF:219
LH:174
end_of_record
SF:/Users/renegeers/Source/p2p-ai-agents/src/core/logging.rs
FN:103,_RNCNvNtNtCsazECCRb7Zym_13p2p_ai_agents4core7logging12init_logging0B7_
FN:129,_RNCNvNtNtCsazECCRb7Zym_13p2p_ai_agents4core7logging12init_loggings0_0B7_
FN:142,_RNCNvNtNtCsazECCRb7Zym_13p2p_ai_agents4core7logging12init_loggings1_0B7_
FN:155,_RNCNvNtNtCsazECCRb7Zym_13p2p_ai_agents4core7logging12init_loggings2_0B7_
FN:107,_RNCNvNtNtCsazECCRb7Zym_13p2p_ai_agents4core7logging12init_loggings_0B7_
FN:100,_RNvNtNtCsazECCRb7Zym_13p2p_ai_agents4core7logging12init_logging
FN:41,_RNvNtNtCsazECCRb7Zym_13p2p_ai_agents4core7logging13default_level
FN:37,_RNvNtNtCsazECCRb7Zym_13p2p_ai_agents4core7logging14default_format
FN:45,_RNvNtNtCsazECCRb7Zym_13p2p_ai_agents4core7logging14default_output
FN:172,_RNvNtNtCsazECCRb7Zym_13p2p_ai_agents4core7logging20init_default_logging
FN:50,_RNvXNtNtCsazECCRb7Zym_13p2p_ai_agents4core7loggingNtB2_13LoggingConfigNtNtCsaTRkahAGrLL_4core7default7Default7default
FN:103,_RNCNvNtNtCs4ZEr9HMJnjR_13p2p_ai_agents4core7logging12init_logging0B7_
FN:129,_RNCNvNtNtCs4ZEr9HMJnjR_13p2p_ai_agents4core7logging12init_loggings0_0B7_
FN:142,_RNCNvNtNtCs4ZEr9HMJnjR_13p2p_ai_agents4core7logging12init_loggings1_0B7_
FN:155,_RNCNvNtNtCs4ZEr9HMJnjR_13p2p_ai_agents4core7logging12init_loggings2_0B7_
FN:107,_RNCNvNtNtCs4ZEr9HMJnjR_13p2p_ai_agents4core7logging12init_loggings_0B7_
FN:100,_RNvNtNtCs4ZEr9HMJnjR_13p2p_ai_agents4core7logging12init_logging
FN:172,_RNvNtNtCs4ZEr9HMJnjR_13p2p_ai_agents4core7logging20init_default_logging
FN:181,_RNvNtNtNtCs4ZEr9HMJnjR_13p2p_ai_agents4core7logging5testss_19test_default_config
FN:205,_RNvNtNtNtCs4ZEr9HMJnjR_13p2p_ai_agents4core7logging5testss_24test_log_format_variants
FN:190,_RNvNtNtNtCs4ZEr9HMJnjR_13p2p_ai_agents4core7logging5testss_25test_config_serialization
FN:41,_RNvNtNtCs4ZEr9HMJnjR_13p2p_ai_agents4core7logging13default_level
FN:37,_RNvNtNtCs4ZEr9HMJnjR_13p2p_ai_agents4core7logging14default_format
FN:45,_RNvNtNtCs4ZEr9HMJnjR_13p2p_ai_agents4core7logging14default_output
FN:50,_RNvXNtNtCs4ZEr9HMJnjR_13p2p_ai_agents4core7loggingNtB2_13LoggingConfigNtNtCsaTRkahAGrLL_4core7default7Default7default
FNDA:0,_RNCNvNtNtCsazECCRb7Zym_13p2p_ai_agents4core7logging12init_logging0B7_
FNDA:0,_RNCNvNtNtCsazECCRb7Zym_13p2p_ai_agents4core7logging12init_loggings0_0B7_
FNDA:0,_RNCNvNtNtCsazECCRb7Zym_13p2p_ai_agents4core7logging12init_loggings1_0B7_
FNDA:0,_RNCNvNtNtCsazECCRb7Zym_13p2p_ai_agents4core7logging12init_loggings2_0B7_
FNDA:0,_RNCNvNtNtCsazECCRb7Zym_13p2p_ai_agents4core7logging12init_loggings_0B7_
FNDA:0,_RNvNtNtCsazECCRb7Zym_13p2p_ai_agents4core7logging12init_logging
FNDA:0,_RNvNtNtCsazECCRb7Zym_13p2p_ai_agents4core7logging13default_level
FNDA:0,_RNvNtNtCsazECCRb7Zym_13p2p_ai_agents4core7logging14default_format
FNDA:0,_RNvNtNtCsazECCRb7Zym_13p2p_ai_agents4core7logging14default_output
FNDA:0,_RNvNtNtCsazECCRb7Zym_13p2p_ai_agents4core7logging20init_default_logging
FNDA:1,_RNvXNtNtCsazECCRb7Zym_13p2p_ai_agents4core7loggingNtB2_13LoggingConfigNtNtCsaTRkahAGrLL_4core7default7Default7default
FNDA:0,_RNCNvNtNtCs4ZEr9HMJnjR_13p2p_ai_agents4core7logging12init_logging0B7_
FNDA:0,_RNCNvNtNtCs4ZEr9HMJnjR_13p2p_ai_agents4core7logging12init_loggings0_0B7_
FNDA:0,_RNCNvNtNtCs4ZEr9HMJnjR_13p2p_ai_agents4core7logging12init_loggings1_0B7_
FNDA:0,_RNCNvNtNtCs4ZEr9HMJnjR_13p2p_ai_agents4core7logging12init_loggings2_0B7_
FNDA:0,_RNCNvNtNtCs4ZEr9HMJnjR_13p2p_ai_agents4core7logging12init_loggings_0B7_
FNDA:0,_RNvNtNtCs4ZEr9HMJnjR_13p2p_ai_agents4core7logging12init_logging
FNDA:0,_RNvNtNtCs4ZEr9HMJnjR_13p2p_ai_agents4core7logging20init_default_logging
FNDA:1,_RNvNtNtNtCs4ZEr9HMJnjR_13p2p_ai_agents4core7logging5testss_19test_default_config
FNDA:1,_RNvNtNtNtCs4ZEr9HMJnjR_13p2p_ai_agents4core7logging5testss_24test_log_format_variants
FNDA:1,_RNvNtNtNtCs4ZEr9HMJnjR_13p2p_ai_agents4core7logging5testss_25test_config_serialization
FNDA:0,_RNvNtNtCs4ZEr9HMJnjR_13p2p_ai_agents4core7logging13default_level
FNDA:0,_RNvNtNtCs4ZEr9HMJnjR_13p2p_ai_agents4core7logging14default_format
FNDA:0,_RNvNtNtCs4ZEr9HMJnjR_13p2p_ai_agents4core7logging14default_output
FNDA:1,_RNvXNtNtCs4ZEr9HMJnjR_13p2p_ai_agents4core7loggingNtB2_13LoggingConfigNtNtCsaTRkahAGrLL_4core7default7Default7default
FNF:14
FNH:4
DA:37,0
DA:38,0
DA:39,0
DA:41,0
DA:42,0
DA:43,0
DA:45,0
DA:46,0
DA:47,0
DA:50,2
DA:51,2
DA:52,2
DA:53,2
DA:54,2
DA:55,2
DA:56,2
DA:57,2
DA:100,0
DA:101,0
DA:102,0
DA:103,0
DA:106,0
DA:107,0
DA:108,0
DA:109,0
DA:113,0
DA:115,0
DA:116,0
DA:117,0
DA:118,0
DA:119,0
DA:120,0
DA:121,0
DA:122,0
DA:123,0
DA:124,0
DA:125,0
DA:126,0
DA:127,0
DA:128,0
DA:129,0
DA:132,0
DA:133,0
DA:134,0
DA:135,0
DA:136,0
DA:137,0
DA:138,0
DA:139,0
DA:140,0
DA:141,0
DA:142,0
DA:145,0
DA:146,0
DA:147,0
DA:148,0
DA:149,0
DA:150,0
DA:151,0
DA:152,0
DA:153,0
DA:154,0
DA:155,0
DA:159,0
DA:160,0
DA:172,0
DA:173,0
DA:174,0
DA:181,1
DA:182,1
DA:183,1
DA:184,1
DA:185,1
DA:186,1
DA:187,1
DA:190,1
DA:191,1
DA:192,1
DA:193,1
DA:194,1
DA:195,1
DA:196,1
DA:197,1
DA:198,1
DA:199,1
DA:200,1
DA:201,1
DA:202,1
DA:205,1
DA:206,1
DA:207,1
DA:208,1
DA:209,1
DA:210,1
DA:211,1
DA:212,1
DA:213,1
DA:214,1
DA:215,1
DA:216,1
DA:217,1
DA:218,1
BRF:0
BRH:0
LF:108
LH:42
end_of_record
SF:/Users/renegeers/Source/p2p-ai-agents/src/core/services.rs
FN:227,_RNCNCNvMs0_NtNtCsazECCRb7Zym_13p2p_ai_agents4core8servicesNtB9_15ServiceRegistry19get_service_by_name00Bd_
FN:297,_RNCNvMs0_NtNtCsazECCRb7Zym_13p2p_ai_agents4core8servicesNtB7_15ServiceRegistry10get_config0Bb_
FN:202,_RNCNvMs0_NtNtCsazECCRb7Zym_13p2p_ai_agents4core8servicesNtB7_15ServiceRegistry10unregister0Bb_
FN:278,_RNCNvMs0_NtNtCsazECCRb7Zym_13p2p_ai_agents4core8servicesNtB7_15ServiceRegistry12health_check0Bb_
FN:232,_RNCNvMs0_NtNtCsazECCRb7Zym_13p2p_ai_agents4core8servicesNtB7_15ServiceRegistry13list_services0Bb_
FN:291,_RNCNvMs0_NtNtCsazECCRb7Zym_13p2p_ai_agents4core8servicesNtB7_15ServiceRegistry15register_config0Bb_
FN:223,_RNCNvMs0_NtNtCsazECCRb7Zym_13p2p_ai_agents4core8servicesNtB7_15ServiceRegistry19get_service_by_name0Bb_
FN:258,_RNCNvMs0_NtNtCsazECCRb7Zym_13p2p_ai_agents4core8servicesNtB7_15ServiceRegistry8stop_all0Bb_
FN:238,_RNCNvMs0_NtNtCsazECCRb7Zym_13p2p_ai_agents4core8servicesNtB7_15ServiceRegistry9start_all0Bb_
FN:217,_RNCNvMs0_NtNtCsazECCRb7Zym_13p2p_ai_agents4core8servicesNtB7_15ServiceRegistry11get_service0Bb_
FN:187,_RNCNvMs0_NtNtCsazECCRb7Zym_13p2p_ai_agents4core8servicesNtB7_15ServiceRegistry8register0Bb_
FN:345,_RNCNvMs2_NtNtCsazECCRb7Zym_13p2p_ai_agents4core8servicesNtB7_11BaseService10get_uptime0Bb_
FN:333,_RNCNvMs2_NtNtCsazECCRb7Zym_13p2p_ai_agents4core8servicesNtB7_11BaseService10set_status0Bb_
FN:339,_RNCNvMs2_NtNtCsazECCRb7Zym_13p2p_ai_agents4core8servicesNtB7_11BaseService13record_metric0Bb_
FN:372,_RNCNvXsq_NtNtCsazECCRb7Zym_13p2p_ai_agents4core8servicesNtB7_11BaseServiceNtB7_7Service10initialize0Bb_
FN:414,_RNCNvXsq_NtNtCsazECCRb7Zym_13p2p_ai_agents4core8servicesNtB7_11BaseServiceNtB7_7Service14handle_request0Bb_
FN:387,_RNCNvXsq_NtNtCsazECCRb7Zym_13p2p_ai_agents4core8servicesNtB7_11BaseServiceNtB7_7Service4stop0Bb_
FN:377,_RNCNvXsq_NtNtCsazECCRb7Zym_13p2p_ai_agents4core8servicesNtB7_11BaseServiceNtB7_7Service5start0Bb_
FN:398,_RNCNvXsq_NtNtCsazECCRb7Zym_13p2p_ai_agents4core8servicesNtB7_11BaseServiceNtB7_7Service6health0Bb_
FN:393,_RNCNvXsq_NtNtCsazECCRb7Zym_13p2p_ai_agents4core8servicesNtB7_11BaseServiceNtB7_7Service6status0Bb_
FN:20,_RNvMNtNtCsazECCRb7Zym_13p2p_ai_agents4core8servicesNtB2_9ServiceId3new
FN:297,_RNvMs0_NtNtCsazECCRb7Zym_13p2p_ai_agents4core8servicesNtB5_15ServiceRegistry10get_config
FN:202,_RNvMs0_NtNtCsazECCRb7Zym_13p2p_ai_agents4core8servicesNtB5_15ServiceRegistry10unregister
FN:217,_RNvMs0_NtNtCsazECCRb7Zym_13p2p_ai_agents4core8servicesNtB5_15ServiceRegistry11get_service
FN:278,_RNvMs0_NtNtCsazECCRb7Zym_13p2p_ai_agents4core8servicesNtB5_15ServiceRegistry12health_check
FN:232,_RNvMs0_NtNtCsazECCRb7Zym_13p2p_ai_agents4core8servicesNtB5_15ServiceRegistry13list_services
FN:291,_RNvMs0_NtNtCsazECCRb7Zym_13p2p_ai_agents4core8servicesNtB5_15ServiceRegistry15register_config
FN:223,_RNvMs0_NtNtCsazECCRb7Zym_13p2p_ai_agents4core8servicesNtB5_15ServiceRegistry19get_service_by_name
FN:179,_RNvMs0_NtNtCsazECCRb7Zym_13p2p_ai_agents4core8servicesNtB5_15ServiceRegistry3new
FN:187,_RNvMs0_NtNtCsazECCRb7Zym_13p2p_ai_agents4core8servicesNtB5_15ServiceRegistry8register
FN:258,_RNvMs0_NtNtCsazECCRb7Zym_13p2p_ai_agents4core8servicesNtB5_15ServiceRegistry8stop_all
FN:238,_RNvMs0_NtNtCsazECCRb7Zym_13p2p_ai_agents4core8servicesNtB5_15ServiceRegistry9start_all
FN:345,_RNvMs2_NtNtCsazECCRb7Zym_13p2p_ai_agents4core8servicesNtB5_11BaseService10get_uptime
FN:333,_RNvMs2_NtNtCsazECCRb7Zym_13p2p_ai_agents4core8servicesNtB5_11BaseService10set_status
FN:339,_RNvMs2_NtNtCsazECCRb7Zym_13p2p_ai_agents4core8servicesNtB5_11BaseService13record_metric
FN:321,_RNvMs2_NtNtCsazECCRb7Zym_13p2p_ai_agents4core8servicesNtB5_11BaseService3new
FN:304,_RNvXs1_NtNtCsazECCRb7Zym_13p2p_ai_agents4core8servicesNtB5_15ServiceRegistryNtNtCsaTRkahAGrLL_4core7default7Default7default
FN:26,_RNvXs_NtNtCsazECCRb7Zym_13p2p_ai_agents4core8servicesNtB4_9ServiceIdNtNtCsaTRkahAGrLL_4core7default7Default7default
FN:375,_RNvXsq_NtNtCsazECCRb7Zym_13p2p_ai_agents4core8servicesNtB5_11BaseServiceNtB5_7Service10initialize
FN:427,_RNvXsq_NtNtCsazECCRb7Zym_13p2p_ai_agents4core8servicesNtB5_11BaseServiceNtB5_7Service14handle_request
FN:360,_RNvXsq_NtNtCsazECCRb7Zym_13p2p_ai_agents4core8servicesNtB5_11BaseServiceNtB5_7Service2id
FN:364,_RNvXsq_NtNtCsazECCRb7Zym_13p2p_ai_agents4core8servicesNtB5_11BaseServiceNtB5_7Service4name
FN:391,_RNvXsq_NtNtCsazECCRb7Zym_13p2p_ai_agents4core8servicesNtB5_11BaseServiceNtB5_7Service4stop
FN:385,_RNvXsq_NtNtCsazECCRb7Zym_13p2p_ai_agents4core8servicesNtB5_11BaseServiceNtB5_7Service5start
FN:409,_RNvXsq_NtNtCsazECCRb7Zym_13p2p_ai_agents4core8servicesNtB5_11BaseServiceNtB5_7Service6health
FN:396,_RNvXsq_NtNtCsazECCRb7Zym_13p2p_ai_agents4core8servicesNtB5_11BaseServiceNtB5_7Service6status
FN:368,_RNvXsq_NtNtCsazECCRb7Zym_13p2p_ai_agents4core8servicesNtB5_11BaseServiceNtB5_7Service7version
FN:227,_RNCNCNvMs0_NtNtCs4ZEr9HMJnjR_13p2p_ai_agents4core8servicesNtB9_15ServiceRegistry19get_service_by_name00Bd_
FN:297,_RNCNvMs0_NtNtCs4ZEr9HMJnjR_13p2p_ai_agents4core8servicesNtB7_15ServiceRegistry10get_config0Bb_
FN:291,_RNCNvMs0_NtNtCs4ZEr9HMJnjR_13p2p_ai_agents4core8servicesNtB7_15ServiceRegistry15register_config0Bb_
FN:223,_RNCNvMs0_NtNtCs4ZEr9HMJnjR_13p2p_ai_agents4core8servicesNtB7_15ServiceRegistry19get_service_by_name0Bb_
FN:297,_RNvMs0_NtNtCs4ZEr9HMJnjR_13p2p_ai_agents4core8servicesNtB5_15ServiceRegistry10get_config
FN:291,_RNvMs0_NtNtCs4ZEr9HMJnjR_13p2p_ai_agents4core8servicesNtB5_15ServiceRegistry15register_config
FN:223,_RNvMs0_NtNtCs4ZEr9HMJnjR_13p2p_ai_agents4core8servicesNtB5_15ServiceRegistry19get_service_by_name
FN:304,_RNvXs1_NtNtCs4ZEr9HMJnjR_13p2p_ai_agents4core8servicesNtB5_15ServiceRegistryNtNtCsaTRkahAGrLL_4core7default7Default7default
FN:26,_RNvXs_NtNtCs4ZEr9HMJnjR_13p2p_ai_agents4core8servicesNtB4_9ServiceIdNtNtCsaTRkahAGrLL_4core7default7Default7default
FN:440,_RNvMNtNtNtCs4ZEr9HMJnjR_13p2p_ai_agents4core8services5testsNtB2_11TestService3new
FN:490,_RNvNtNtNtCs4ZEr9HMJnjR_13p2p_ai_agents4core8services5testss_21test_service_registry
FN:510,_RNvNtNtNtCs4ZEr9HMJnjR_13p2p_ai_agents4core8services5testss_22test_service_lifecycle
FN:463,_RNvXs_NtNtNtCs4ZEr9HMJnjR_13p2p_ai_agents4core8services5testsNtB4_11TestServiceNtB6_7Service10initialize
FN:486,_RNvXs_NtNtNtCs4ZEr9HMJnjR_13p2p_ai_agents4core8services5testsNtB4_11TestServiceNtB6_7Service14handle_request
FN:449,_RNvXs_NtNtNtCs4ZEr9HMJnjR_13p2p_ai_agents4core8services5testsNtB4_11TestServiceNtB6_7Service2id
FN:453,_RNvXs_NtNtNtCs4ZEr9HMJnjR_13p2p_ai_agents4core8services5testsNtB4_11TestServiceNtB6_7Service4name
FN:471,_RNvXs_NtNtNtCs4ZEr9HMJnjR_13p2p_ai_agents4core8services5testsNtB4_11TestServiceNtB6_7Service4stop
FN:467,_RNvXs_NtNtNtCs4ZEr9HMJnjR_13p2p_ai_agents4core8services5testsNtB4_11TestServiceNtB6_7Service5start
FN:479,_RNvXs_NtNtNtCs4ZEr9HMJnjR_13p2p_ai_agents4core8services5testsNtB4_11TestServiceNtB6_7Service6health
FN:475,_RNvXs_NtNtNtCs4ZEr9HMJnjR_13p2p_ai_agents4core8services5testsNtB4_11TestServiceNtB6_7Service6status
FN:457,_RNvXs_NtNtNtCs4ZEr9HMJnjR_13p2p_ai_agents4core8services5testsNtB4_11TestServiceNtB6_7Service7version
FN:202,_RNCNvMs0_NtNtCs4ZEr9HMJnjR_13p2p_ai_agents4core8servicesNtB7_15ServiceRegistry10unregister0Bb_
FN:217,_RNCNvMs0_NtNtCs4ZEr9HMJnjR_13p2p_ai_agents4core8servicesNtB7_15ServiceRegistry11get_service0Bb_
FN:278,_RNCNvMs0_NtNtCs4ZEr9HMJnjR_13p2p_ai_agents4core8servicesNtB7_15ServiceRegistry12health_check0Bb_
FN:232,_RNCNvMs0_NtNtCs4ZEr9HMJnjR_13p2p_ai_agents4core8servicesNtB7_15ServiceRegistry13list_services0Bb_
FN:187,_RNCNvMs0_NtNtCs4ZEr9HMJnjR_13p2p_ai_agents4core8servicesNtB7_15ServiceRegistry8register0Bb_
FN:258,_RNCNvMs0_NtNtCs4ZEr9HMJnjR_13p2p_ai_agents4core8servicesNtB7_15ServiceRegistry8stop_all0Bb_
FN:238,_RNCNvMs0_NtNtCs4ZEr9HMJnjR_13p2p_ai_agents4core8servicesNtB7_15ServiceRegistry9start_all0Bb_
FN:345,_RNCNvMs2_NtNtCs4ZEr9HMJnjR_13p2p_ai_agents4core8servicesNtB7_11BaseService10get_uptime0Bb_
FN:333,_RNCNvMs2_NtNtCs4ZEr9HMJnjR_13p2p_ai_agents4core8servicesNtB7_11BaseService10set_status0Bb_
FN:339,_RNCNvMs2_NtNtCs4ZEr9HMJnjR_13p2p_ai_agents4core8servicesNtB7_11BaseService13record_metric0Bb_
FN:372,_RNCNvXsq_NtNtCs4ZEr9HMJnjR_13p2p_ai_agents4core8servicesNtB7_11BaseServiceNtB7_7Service10initialize0Bb_
FN:414,_RNCNvXsq_NtNtCs4ZEr9HMJnjR_13p2p_ai_agents4core8servicesNtB7_11BaseServiceNtB7_7Service14handle_request0Bb_
FN:387,_RNCNvXsq_NtNtCs4ZEr9HMJnjR_13p2p_ai_agents4core8servicesNtB7_11BaseServiceNtB7_7Service4stop0Bb_
FN:377,_RNCNvXsq_NtNtCs4ZEr9HMJnjR_13p2p_ai_agents4core8servicesNtB7_11BaseServiceNtB7_7Service5start0Bb_
FN:398,_RNCNvXsq_NtNtCs4ZEr9HMJnjR_13p2p_ai_agents4core8servicesNtB7_11BaseServiceNtB7_7Service6health0Bb_
FN:393,_RNCNvXsq_NtNtCs4ZEr9HMJnjR_13p2p_ai_agents4core8servicesNtB7_11BaseServiceNtB7_7Service6status0Bb_
FN:20,_RNvMNtNtCs4ZEr9HMJnjR_13p2p_ai_agents4core8servicesNtB2_9ServiceId3new
FN:202,_RNvMs0_NtNtCs4ZEr9HMJnjR_13p2p_ai_agents4core8servicesNtB5_15ServiceRegistry10unregister
FN:217,_RNvMs0_NtNtCs4ZEr9HMJnjR_13p2p_ai_agents4core8servicesNtB5_15ServiceRegistry11get_service
FN:278,_RNvMs0_NtNtCs4ZEr9HMJnjR_13p2p_ai_agents4core8servicesNtB5_15ServiceRegistry12health_check
FN:232,_RNvMs0_NtNtCs4ZEr9HMJnjR_13p2p_ai_agents4core8servicesNtB5_15ServiceRegistry13list_services
FN:179,_RNvMs0_NtNtCs4ZEr9HMJnjR_13p2p_ai_agents4core8servicesNtB5_15ServiceRegistry3new
FN:187,_RNvMs0_NtNtCs4ZEr9HMJnjR_13p2p_ai_agents4core8servicesNtB5_15ServiceRegistry8register
FN:258,_RNvMs0_NtNtCs4ZEr9HMJnjR_13p2p_ai_agents4core8servicesNtB5_15ServiceRegistry8stop_all
FN:238,_RNvMs0_NtNtCs4ZEr9HMJnjR_13p2p_ai_agents4core8servicesNtB5_15ServiceRegistry9start_all
FN:345,_RNvMs2_NtNtCs4ZEr9HMJnjR_13p2p_ai_agents4core8servicesNtB5_11BaseService10get_uptime
FN:333,_RNvMs2_NtNtCs4ZEr9HMJnjR_13p2p_ai_agents4core8servicesNtB5_11BaseService10set_status
FN:339,_RNvMs2_NtNtCs4ZEr9HMJnjR_13p2p_ai_agents4core8servicesNtB5_11BaseService13record_metric
FN:321,_RNvMs2_NtNtCs4ZEr9HMJnjR_13p2p_ai_agents4core8servicesNtB5_11BaseService3new
FN:375,_RNvXsq_NtNtCs4ZEr9HMJnjR_13p2p_ai_agents4core8servicesNtB5_11BaseServiceNtB5_7Service10initialize
FN:427,_RNvXsq_NtNtCs4ZEr9HMJnjR_13p2p_ai_agents4core8servicesNtB5_11BaseServiceNtB5_7Service14handle_request
FN:360,_RNvXsq_NtNtCs4ZEr9HMJnjR_13p2p_ai_agents4core8servicesNtB5_11BaseServiceNtB5_7Service2id
FN:364,_RNvXsq_NtNtCs4ZEr9HMJnjR_13p2p_ai_agents4core8servicesNtB5_11BaseServiceNtB5_7Service4name
FN:391,_RNvXsq_NtNtCs4ZEr9HMJnjR_13p2p_ai_agents4core8servicesNtB5_11BaseServiceNtB5_7Service4stop
FN:385,_RNvXsq_NtNtCs4ZEr9HMJnjR_13p2p_ai_agents4core8servicesNtB5_11BaseServiceNtB5_7Service5start
FN:409,_RNvXsq_NtNtCs4ZEr9HMJnjR_13p2p_ai_agents4core8servicesNtB5_11BaseServiceNtB5_7Service6health
FN:396,_RNvXsq_NtNtCs4ZEr9HMJnjR_13p2p_ai_agents4core8servicesNtB5_11BaseServiceNtB5_7Service6status
FN:368,_RNvXsq_NtNtCs4ZEr9HMJnjR_13p2p_ai_agents4core8servicesNtB5_11BaseServiceNtB5_7Service7version
FN:490,_RNCNvNtNtNtCs4ZEr9HMJnjR_13p2p_ai_agents4core8services5testss_21test_service_registry0B9_
FN:510,_RNCNvNtNtNtCs4ZEr9HMJnjR_13p2p_ai_agents4core8services5testss_22test_service_lifecycle0B9_
FN:461,_RNCNvXs_NtNtNtCs4ZEr9HMJnjR_13p2p_ai_agents4core8services5testsNtB6_11TestServiceNtB8_7Service10initialize0Bc_
FN:484,_RNCNvXs_NtNtNtCs4ZEr9HMJnjR_13p2p_ai_agents4core8services5testsNtB6_11TestServiceNtB8_7Service14handle_request0Bc_
FN:469,_RNCNvXs_NtNtNtCs4ZEr9HMJnjR_13p2p_ai_agents4core8services5testsNtB6_11TestServiceNtB8_7Service4stop0Bc_
FN:465,_RNCNvXs_NtNtNtCs4ZEr9HMJnjR_13p2p_ai_agents4core8services5testsNtB6_11TestServiceNtB8_7Service5start0Bc_
FN:477,_RNCNvXs_NtNtNtCs4ZEr9HMJnjR_13p2p_ai_agents4core8services5testsNtB6_11TestServiceNtB8_7Service6health0Bc_
FN:473,_RNCNvXs_NtNtNtCs4ZEr9HMJnjR_13p2p_ai_agents4core8services5testsNtB6_11TestServiceNtB8_7Service6status0Bc_
FNDA:0,_RNCNCNvMs0_NtNtCsazECCRb7Zym_13p2p_ai_agents4core8servicesNtB9_15ServiceRegistry19get_service_by_name00Bd_
FNDA:0,_RNCNvMs0_NtNtCsazECCRb7Zym_13p2p_ai_agents4core8servicesNtB7_15ServiceRegistry10get_config0Bb_
FNDA:0,_RNCNvMs0_NtNtCsazECCRb7Zym_13p2p_ai_agents4core8servicesNtB7_15ServiceRegistry10unregister0Bb_
FNDA:0,_RNCNvMs0_NtNtCsazECCRb7Zym_13p2p_ai_agents4core8servicesNtB7_15ServiceRegistry12health_check0Bb_
FNDA:0,_RNCNvMs0_NtNtCsazECCRb7Zym_13p2p_ai_agents4core8servicesNtB7_15ServiceRegistry13list_services0Bb_
FNDA:0,_RNCNvMs0_NtNtCsazECCRb7Zym_13p2p_ai_agents4core8servicesNtB7_15ServiceRegistry15register_config0Bb_
FNDA:0,_RNCNvMs0_NtNtCsazECCRb7Zym_13p2p_ai_agents4core8servicesNtB7_15ServiceRegistry19get_service_by_name0Bb_
FNDA:0,_RNCNvMs0_NtNtCsazECCRb7Zym_13p2p_ai_agents4core8servicesNtB7_15ServiceRegistry8stop_all0Bb_
FNDA:0,_RNCNvMs0_NtNtCsazECCRb7Zym_13p2p_ai_agents4core8servicesNtB7_15ServiceRegistry9start_all0Bb_
FNDA:0,_RNCNvMs0_NtNtCsazECCRb7Zym_13p2p_ai_agents4core8servicesNtB7_15ServiceRegistry11get_service0Bb_
FNDA:0,_RNCNvMs0_NtNtCsazECCRb7Zym_13p2p_ai_agents4core8servicesNtB7_15ServiceRegistry8register0Bb_
FNDA:0,_RNCNvMs2_NtNtCsazECCRb7Zym_13p2p_ai_agents4core8servicesNtB7_11BaseService10get_uptime0Bb_
FNDA:0,_RNCNvMs2_NtNtCsazECCRb7Zym_13p2p_ai_agents4core8servicesNtB7_11BaseService10set_status0Bb_
FNDA:0,_RNCNvMs2_NtNtCsazECCRb7Zym_13p2p_ai_agents4core8servicesNtB7_11BaseService13record_metric0Bb_
FNDA:0,_RNCNvXsq_NtNtCsazECCRb7Zym_13p2p_ai_agents4core8servicesNtB7_11BaseServiceNtB7_7Service10initialize0Bb_
FNDA:0,_RNCNvXsq_NtNtCsazECCRb7Zym_13p2p_ai_agents4core8servicesNtB7_11BaseServiceNtB7_7Service14handle_request0Bb_
FNDA:0,_RNCNvXsq_NtNtCsazECCRb7Zym_13p2p_ai_agents4core8servicesNtB7_11BaseServiceNtB7_7Service4stop0Bb_
FNDA:0,_RNCNvXsq_NtNtCsazECCRb7Zym_13p2p_ai_agents4core8servicesNtB7_11BaseServiceNtB7_7Service5start0Bb_
FNDA:0,_RNCNvXsq_NtNtCsazECCRb7Zym_13p2p_ai_agents4core8servicesNtB7_11BaseServiceNtB7_7Service6health0Bb_
FNDA:0,_RNCNvXsq_NtNtCsazECCRb7Zym_13p2p_ai_agents4core8servicesNtB7_11BaseServiceNtB7_7Service6status0Bb_
FNDA:0,_RNvMNtNtCsazECCRb7Zym_13p2p_ai_agents4core8servicesNtB2_9ServiceId3new
FNDA:0,_RNvMs0_NtNtCsazECCRb7Zym_13p2p_ai_agents4core8servicesNtB5_15ServiceRegistry10get_config
FNDA:0,_RNvMs0_NtNtCsazECCRb7Zym_13p2p_ai_agents4core8servicesNtB5_15ServiceRegistry10unregister
FNDA:0,_RNvMs0_NtNtCsazECCRb7Zym_13p2p_ai_agents4core8servicesNtB5_15ServiceRegistry11get_service
FNDA:0,_RNvMs0_NtNtCsazECCRb7Zym_13p2p_ai_agents4core8servicesNtB5_15ServiceRegistry12health_check
FNDA:0,_RNvMs0_NtNtCsazECCRb7Zym_13p2p_ai_agents4core8servicesNtB5_15ServiceRegistry13list_services
FNDA:0,_RNvMs0_NtNtCsazECCRb7Zym_13p2p_ai_agents4core8servicesNtB5_15ServiceRegistry15register_config
FNDA:0,_RNvMs0_NtNtCsazECCRb7Zym_13p2p_ai_agents4core8servicesNtB5_15ServiceRegistry19get_service_by_name
FNDA:10,_RNvMs0_NtNtCsazECCRb7Zym_13p2p_ai_agents4core8servicesNtB5_15ServiceRegistry3new
FNDA:0,_RNvMs0_NtNtCsazECCRb7Zym_13p2p_ai_agents4core8servicesNtB5_15ServiceRegistry8register
FNDA:0,_RNvMs0_NtNtCsazECCRb7Zym_13p2p_ai_agents4core8servicesNtB5_15ServiceRegistry8stop_all
FNDA:0,_RNvMs0_NtNtCsazECCRb7Zym_13p2p_ai_agents4core8servicesNtB5_15ServiceRegistry9start_all
FNDA:0,_RNvMs2_NtNtCsazECCRb7Zym_13p2p_ai_agents4core8servicesNtB5_11BaseService10get_uptime
FNDA:0,_RNvMs2_NtNtCsazECCRb7Zym_13p2p_ai_agents4core8servicesNtB5_11BaseService10set_status
FNDA:0,_RNvMs2_NtNtCsazECCRb7Zym_13p2p_ai_agents4core8servicesNtB5_11BaseService13record_metric
FNDA:0,_RNvMs2_NtNtCsazECCRb7Zym_13p2p_ai_agents4core8servicesNtB5_11BaseService3new
FNDA:0,_RNvXs1_NtNtCsazECCRb7Zym_13p2p_ai_agents4core8servicesNtB5_15ServiceRegistryNtNtCsaTRkahAGrLL_4core7default7Default7default
FNDA:0,_RNvXs_NtNtCsazECCRb7Zym_13p2p_ai_agents4core8servicesNtB4_9ServiceIdNtNtCsaTRkahAGrLL_4core7default7Default7default
FNDA:0,_RNvXsq_NtNtCsazECCRb7Zym_13p2p_ai_agents4core8servicesNtB5_11BaseServiceNtB5_7Service10initialize
FNDA:0,_RNvXsq_NtNtCsazECCRb7Zym_13p2p_ai_agents4core8servicesNtB5_11BaseServiceNtB5_7Service14handle_request
FNDA:0,_RNvXsq_NtNtCsazECCRb7Zym_13p2p_ai_agents4core8servicesNtB5_11BaseServiceNtB5_7Service2id
FNDA:0,_RNvXsq_NtNtCsazECCRb7Zym_13p2p_ai_agents4core8servicesNtB5_11BaseServiceNtB5_7Service4name
FNDA:0,_RNvXsq_NtNtCsazECCRb7Zym_13p2p_ai_agents4core8servicesNtB5_11BaseServiceNtB5_7Service4stop
FNDA:0,_RNvXsq_NtNtCsazECCRb7Zym_13p2p_ai_agents4core8servicesNtB5_11BaseServiceNtB5_7Service5start
FNDA:0,_RNvXsq_NtNtCsazECCRb7Zym_13p2p_ai_agents4core8servicesNtB5_11BaseServiceNtB5_7Service6health
FNDA:0,_RNvXsq_NtNtCsazECCRb7Zym_13p2p_ai_agents4core8servicesNtB5_11BaseServiceNtB5_7Service6status
FNDA:0,_RNvXsq_NtNtCsazECCRb7Zym_13p2p_ai_agents4core8servicesNtB5_11BaseServiceNtB5_7Service7version
FNDA:0,_RNCNCNvMs0_NtNtCs4ZEr9HMJnjR_13p2p_ai_agents4core8servicesNtB9_15ServiceRegistry19get_service_by_name00Bd_
FNDA:0,_RNCNvMs0_NtNtCs4ZEr9HMJnjR_13p2p_ai_agents4core8servicesNtB7_15ServiceRegistry10get_config0Bb_
FNDA:0,_RNCNvMs0_NtNtCs4ZEr9HMJnjR_13p2p_ai_agents4core8servicesNtB7_15ServiceRegistry15register_config0Bb_
FNDA:0,_RNCNvMs0_NtNtCs4ZEr9HMJnjR_13p2p_ai_agents4core8servicesNtB7_15ServiceRegistry19get_service_by_name0Bb_
FNDA:0,_RNvMs0_NtNtCs4ZEr9HMJnjR_13p2p_ai_agents4core8servicesNtB5_15ServiceRegistry10get_config
FNDA:0,_RNvMs0_NtNtCs4ZEr9HMJnjR_13p2p_ai_agents4core8servicesNtB5_15ServiceRegistry15register_config
FNDA:0,_RNvMs0_NtNtCs4ZEr9HMJnjR_13p2p_ai_agents4core8servicesNtB5_15ServiceRegistry19get_service_by_name
FNDA:0,_RNvXs1_NtNtCs4ZEr9HMJnjR_13p2p_ai_agents4core8servicesNtB5_15ServiceRegistryNtNtCsaTRkahAGrLL_4core7default7Default7default
FNDA:0,_RNvXs_NtNtCs4ZEr9HMJnjR_13p2p_ai_agents4core8servicesNtB4_9ServiceIdNtNtCsaTRkahAGrLL_4core7default7Default7default
FNDA:2,_RNvMNtNtNtCs4ZEr9HMJnjR_13p2p_ai_agents4core8services5testsNtB2_11TestService3new
FNDA:1,_RNvNtNtNtCs4ZEr9HMJnjR_13p2p_ai_agents4core8services5testss_21test_service_registry
FNDA:1,_RNvNtNtNtCs4ZEr9HMJnjR_13p2p_ai_agents4core8services5testss_22test_service_lifecycle
FNDA:1,_RNvXs_NtNtNtCs4ZEr9HMJnjR_13p2p_ai_agents4core8services5testsNtB4_11TestServiceNtB6_7Service10initialize
FNDA:0,_RNvXs_NtNtNtCs4ZEr9HMJnjR_13p2p_ai_agents4core8services5testsNtB4_11TestServiceNtB6_7Service14handle_request
FNDA:2,_RNvXs_NtNtNtCs4ZEr9HMJnjR_13p2p_ai_agents4core8services5testsNtB4_11TestServiceNtB6_7Service2id
FNDA:2,_RNvXs_NtNtNtCs4ZEr9HMJnjR_13p2p_ai_agents4core8services5testsNtB4_11TestServiceNtB6_7Service4name
FNDA:1,_RNvXs_NtNtNtCs4ZEr9HMJnjR_13p2p_ai_agents4core8services5testsNtB4_11TestServiceNtB6_7Service4stop
FNDA:1,_RNvXs_NtNtNtCs4ZEr9HMJnjR_13p2p_ai_agents4core8services5testsNtB4_11TestServiceNtB6_7Service5start
FNDA:0,_RNvXs_NtNtNtCs4ZEr9HMJnjR_13p2p_ai_agents4core8services5testsNtB4_11TestServiceNtB6_7Service6health
FNDA:3,_RNvXs_NtNtNtCs4ZEr9HMJnjR_13p2p_ai_agents4core8services5testsNtB4_11TestServiceNtB6_7Service6status
FNDA:0,_RNvXs_NtNtNtCs4ZEr9HMJnjR_13p2p_ai_agents4core8services5testsNtB4_11TestServiceNtB6_7Service7version
FNDA:4,_RNCNvMs0_NtNtCs4ZEr9HMJnjR_13p2p_ai_agents4core8servicesNtB7_15ServiceRegistry10unregister0Bb_
FNDA:148337,_RNCNvMs0_NtNtCs4ZEr9HMJnjR_13p2p_ai_agents4core8servicesNtB7_15ServiceRegistry11get_service0Bb_
FNDA:1,_RNCNvMs0_NtNtCs4ZEr9HMJnjR_13p2p_ai_agents4core8servicesNtB7_15ServiceRegistry12health_check0Bb_
FNDA:14838,_RNCNvMs0_NtNtCs4ZEr9HMJnjR_13p2p_ai_agents4core8servicesNtB7_15ServiceRegistry13list_services0Bb_
FNDA:28,_RNCNvMs0_NtNtCs4ZEr9HMJnjR_13p2p_ai_agents4core8servicesNtB7_15ServiceRegistry8register0Bb_
FNDA:1,_RNCNvMs0_NtNtCs4ZEr9HMJnjR_13p2p_ai_agents4core8servicesNtB7_15ServiceRegistry8stop_all0Bb_
FNDA:1,_RNCNvMs0_NtNtCs4ZEr9HMJnjR_13p2p_ai_agents4core8servicesNtB7_15ServiceRegistry9start_all0Bb_
FNDA:1,_RNCNvMs2_NtNtCs4ZEr9HMJnjR_13p2p_ai_agents4core8servicesNtB7_11BaseService10get_uptime0Bb_
FNDA:26,_RNCNvMs2_NtNtCs4ZEr9HMJnjR_13p2p_ai_agents4core8servicesNtB7_11BaseService10set_status0Bb_
FNDA:16,_RNCNvMs2_NtNtCs4ZEr9HMJnjR_13p2p_ai_agents4core8servicesNtB7_11BaseService13record_metric0Bb_
FNDA:6,_RNCNvXsq_NtNtCs4ZEr9HMJnjR_13p2p_ai_agents4core8servicesNtB7_11BaseServiceNtB7_7Service10initialize0Bb_
FNDA:0,_RNCNvXsq_NtNtCs4ZEr9HMJnjR_13p2p_ai_agents4core8servicesNtB7_11BaseServiceNtB7_7Service14handle_request0Bb_
FNDA:5,_RNCNvXsq_NtNtCs4ZEr9HMJnjR_13p2p_ai_agents4core8servicesNtB7_11BaseServiceNtB7_7Service4stop0Bb_
FNDA:5,_RNCNvXsq_NtNtCs4ZEr9HMJnjR_13p2p_ai_agents4core8servicesNtB7_11BaseServiceNtB7_7Service5start0Bb_
FNDA:1,_RNCNvXsq_NtNtCs4ZEr9HMJnjR_13p2p_ai_agents4core8servicesNtB7_11BaseServiceNtB7_7Service6health0Bb_
FNDA:6,_RNCNvXsq_NtNtCs4ZEr9HMJnjR_13p2p_ai_agents4core8servicesNtB7_11BaseServiceNtB7_7Service6status0Bb_
FNDA:35,_RNvMNtNtCs4ZEr9HMJnjR_13p2p_ai_agents4core8servicesNtB2_9ServiceId3new
FNDA:4,_RNvMs0_NtNtCs4ZEr9HMJnjR_13p2p_ai_agents4core8servicesNtB5_15ServiceRegistry10unregister
FNDA:148337,_RNvMs0_NtNtCs4ZEr9HMJnjR_13p2p_ai_agents4core8servicesNtB5_15ServiceRegistry11get_service
FNDA:1,_RNvMs0_NtNtCs4ZEr9HMJnjR_13p2p_ai_agents4core8servicesNtB5_15ServiceRegistry12health_check
FNDA:14838,_RNvMs0_NtNtCs4ZEr9HMJnjR_13p2p_ai_agents4core8servicesNtB5_15ServiceRegistry13list_services
FNDA:13,_RNvMs0_NtNtCs4ZEr9HMJnjR_13p2p_ai_agents4core8servicesNtB5_15ServiceRegistry3new
FNDA:28,_RNvMs0_NtNtCs4ZEr9HMJnjR_13p2p_ai_agents4core8servicesNtB5_15ServiceRegistry8register
FNDA:1,_RNvMs0_NtNtCs4ZEr9HMJnjR_13p2p_ai_agents4core8servicesNtB5_15ServiceRegistry8stop_all
FNDA:1,_RNvMs0_NtNtCs4ZEr9HMJnjR_13p2p_ai_agents4core8servicesNtB5_15ServiceRegistry9start_all
FNDA:1,_RNvMs2_NtNtCs4ZEr9HMJnjR_13p2p_ai_agents4core8servicesNtB5_11BaseService10get_uptime
FNDA:26,_RNvMs2_NtNtCs4ZEr9HMJnjR_13p2p_ai_agents4core8servicesNtB5_11BaseService10set_status
FNDA:16,_RNvMs2_NtNtCs4ZEr9HMJnjR_13p2p_ai_agents4core8servicesNtB5_11BaseService13record_metric
FNDA:9,_RNvMs2_NtNtCs4ZEr9HMJnjR_13p2p_ai_agents4core8servicesNtB5_11BaseService3new
FNDA:6,_RNvXsq_NtNtCs4ZEr9HMJnjR_13p2p_ai_agents4core8servicesNtB5_11BaseServiceNtB5_7Service10initialize
FNDA:0,_RNvXsq_NtNtCs4ZEr9HMJnjR_13p2p_ai_agents4core8servicesNtB5_11BaseServiceNtB5_7Service14handle_request
FNDA:5,_RNvXsq_NtNtCs4ZEr9HMJnjR_13p2p_ai_agents4core8servicesNtB5_11BaseServiceNtB5_7Service2id
FNDA:6,_RNvXsq_NtNtCs4ZEr9HMJnjR_13p2p_ai_agents4core8servicesNtB5_11BaseServiceNtB5_7Service4name
FNDA:5,_RNvXsq_NtNtCs4ZEr9HMJnjR_13p2p_ai_agents4core8servicesNtB5_11BaseServiceNtB5_7Service4stop
FNDA:5,_RNvXsq_NtNtCs4ZEr9HMJnjR_13p2p_ai_agents4core8servicesNtB5_11BaseServiceNtB5_7Service5start
FNDA:1,_RNvXsq_NtNtCs4ZEr9HMJnjR_13p2p_ai_agents4core8servicesNtB5_11BaseServiceNtB5_7Service6health
FNDA:6,_RNvXsq_NtNtCs4ZEr9HMJnjR_13p2p_ai_agents4core8servicesNtB5_11BaseServiceNtB5_7Service6status
FNDA:1,_RNvXsq_NtNtCs4ZEr9HMJnjR_13p2p_ai_agents4core8servicesNtB5_11BaseServiceNtB5_7Service7version
FNDA:1,_RNCNvNtNtNtCs4ZEr9HMJnjR_13p2p_ai_agents4core8services5testss_21test_service_registry0B9_
FNDA:1,_RNCNvNtNtNtCs4ZEr9HMJnjR_13p2p_ai_agents4core8services5testss_22test_service_lifecycle0B9_
FNDA:1,_RNCNvXs_NtNtNtCs4ZEr9HMJnjR_13p2p_ai_agents4core8services5testsNtB6_11TestServiceNtB8_7Service10initialize0Bc_
FNDA:0,_RNCNvXs_NtNtNtCs4ZEr9HMJnjR_13p2p_ai_agents4core8services5testsNtB6_11TestServiceNtB8_7Service14handle_request0Bc_
FNDA:1,_RNCNvXs_NtNtNtCs4ZEr9HMJnjR_13p2p_ai_agents4core8services5testsNtB6_11TestServiceNtB8_7Service4stop0Bc_
FNDA:1,_RNCNvXs_NtNtNtCs4ZEr9HMJnjR_13p2p_ai_agents4core8services5testsNtB6_11TestServiceNtB8_7Service5start0Bc_
FNDA:0,_RNCNvXs_NtNtNtCs4ZEr9HMJnjR_13p2p_ai_agents4core8services5testsNtB6_11TestServiceNtB8_7Service6health0Bc_
FNDA:3,_RNCNvXs_NtNtNtCs4ZEr9HMJnjR_13p2p_ai_agents4core8services5testsNtB6_11TestServiceNtB8_7Service6status0Bc_
FNF:67
FNH:51
DA:20,35
DA:21,35
DA:22,35
DA:26,0
DA:27,0
DA:28,0
DA:179,23
DA:180,23
DA:181,23
DA:182,23
DA:183,23
DA:184,23
DA:187,28
DA:188,28
DA:189,28
DA:191,28
DA:193,28
DA:194,0
DA:195,28
DA:196,28
DA:197,28
DA:198,28
DA:199,28
DA:202,4
DA:203,4
DA:205,4
DA:207,4
DA:208,1
DA:209,3
DA:210,4
DA:212,0
DA:214,4
DA:217,148337
DA:218,148337
DA:219,148337
DA:220,148337
DA:223,0
DA:224,0
DA:225,0
DA:226,0
DA:227,0
DA:228,0
DA:229,0
DA:232,14838
DA:233,14838
DA:234,14838
DA:235,14838
DA:238,1
DA:239,1
DA:240,1
DA:242,1
DA:243,1
DA:244,1
DA:248,2
DA:249,1
DA:250,0
DA:251,1
DA:254,1
DA:255,1
DA:258,1
DA:259,1
DA:260,1
DA:262,1
DA:263,1
DA:264,1
DA:268,2
DA:269,1
DA:270,0
DA:271,1
DA:274,1
DA:275,1
DA:278,1
DA:279,1
DA:280,1
DA:282,1
DA:283,1
DA:284,1
DA:287,1
DA:288,1
DA:291,0
DA:292,0
DA:293,0
DA:294,0
DA:297,0
DA:298,0
DA:299,0
DA:300,0
DA:304,0
DA:305,0
DA:306,0
DA:321,9
DA:322,9
DA:323,9
DA:324,9
DA:325,9
DA:326,9
DA:327,9
DA:328,9
DA:329,9
DA:330,9
DA:333,26
DA:334,26
DA:335,26
DA:336,26
DA:339,16
DA:340,16
DA:341,16
DA:342,16
DA:345,1
DA:346,1
DA:347,1
DA:348,1
DA:349,1
DA:350,1
DA:351,1
DA:353,0
DA:355,1
DA:360,5
DA:361,5
DA:362,5
DA:364,6
DA:365,6
DA:366,6
DA:368,1
DA:369,1
DA:370,1
DA:372,6
DA:373,6
DA:374,6
DA:375,12
DA:377,5
DA:378,5
DA:380,5
DA:381,5
DA:382,5
DA:383,5
DA:384,5
DA:385,10
DA:387,5
DA:388,5
DA:389,5
DA:390,5
DA:391,10
DA:393,6
DA:394,6
DA:395,6
DA:396,12
DA:398,1
DA:399,1
DA:400,1
DA:401,1
DA:403,1
DA:404,1
DA:405,1
DA:406,1
DA:407,1
DA:408,1
DA:409,2
DA:414,0
DA:415,0
DA:416,0
DA:417,0
DA:418,0
DA:419,0
DA:420,0
DA:421,0
DA:422,0
DA:423,0
DA:424,0
DA:425,0
DA:426,0
DA:427,0
DA:440,2
DA:441,2
DA:442,2
DA:443,2
DA:444,2
DA:449,2
DA:450,2
DA:451,2
DA:453,2
DA:454,2
DA:455,2
DA:457,0
DA:458,0
DA:459,0
DA:461,1
DA:462,1
DA:463,2
DA:465,1
DA:466,1
DA:467,2
DA:469,1
DA:470,1
DA:471,2
DA:473,3
DA:474,3
DA:475,6
DA:477,0
DA:478,0
DA:479,0
DA:484,0
DA:485,0
DA:486,0
DA:490,1
DA:491,1
DA:492,1
DA:493,1
DA:494,1
DA:495,1
DA:496,1
DA:497,1
DA:498,1
DA:499,1
DA:500,1
DA:501,1
DA:502,1
DA:503,1
DA:504,1
DA:505,1
DA:506,1
DA:507,1
DA:510,1
DA:511,1
DA:512,1
DA:513,1
DA:514,1
DA:515,1
DA:516,1
DA:517,1
DA:518,1
DA:519,1
DA:520,1
DA:521,1
DA:522,1
DA:523,1
DA:524,1
BRF:0
BRH:0
LF:286
LH:230
end_of_record
SF:/Users/renegeers/Source/p2p-ai-agents/src/lib.rs
FN:76,_RNvNtCs4ZEr9HMJnjR_13p2p_ai_agents5testss_8it_works
FNDA:1,_RNvNtCs4ZEr9HMJnjR_13p2p_ai_agents5testss_8it_works
FNF:1
FNH:1
DA:76,1
DA:77,1
DA:78,1
DA:79,1
BRF:0
BRH:0
LF:4
LH:4
end_of_record
SF:/Users/renegeers/Source/p2p-ai-agents/src/metrics/prometheus_exporter.rs
FN:163,_RNCNCNCNCNCNvMs0_NtNtCsazECCRb7Zym_13p2p_ai_agents7metrics19prometheus_exporterNtBf_13MetricsServer5start00000Bj_
FN:161,_RNCNCNCNCNvMs0_NtNtCsazECCRb7Zym_13p2p_ai_agents7metrics19prometheus_exporterNtBd_13MetricsServer5start0000Bh_
FN:160,_RNCNCNCNvMs0_NtNtCsazECCRb7Zym_13p2p_ai_agents7metrics19prometheus_exporterNtBb_13MetricsServer5start000Bf_
FN:158,_RNCNCNvMs0_NtNtCsazECCRb7Zym_13p2p_ai_agents7metrics19prometheus_exporterNtB9_13MetricsServer5start00Bd_
FN:170,_RNCNCNvMs0_NtNtCsazECCRb7Zym_13p2p_ai_agents7metrics19prometheus_exporterNtB9_13MetricsServer5start0s_0Bd_
FN:148,_RNCNvMs0_NtNtCsazECCRb7Zym_13p2p_ai_agents7metrics19prometheus_exporterNtB7_13MetricsServer5start0Bb_
FN:182,_RNCNvNtNtCsazECCRb7Zym_13p2p_ai_agents7metrics19prometheus_exporter14handle_request0B7_
FN:145,_RNvMs0_NtNtCsazECCRb7Zym_13p2p_ai_agents7metrics19prometheus_exporterNtB5_13MetricsServer5start
FN:130,_RNvMs_NtNtCsazECCRb7Zym_13p2p_ai_agents7metrics19prometheus_exporterNtB4_16MetricsCollector16update_cpu_usage
FN:135,_RNvMs_NtNtCsazECCRb7Zym_13p2p_ai_agents7metrics19prometheus_exporterNtB4_16MetricsCollector19update_memory_usage
FN:124,_RNvMs_NtNtCsazECCRb7Zym_13p2p_ai_agents7metrics19prometheus_exporterNtB4_16MetricsCollector22update_peers_connected
FN:115,_RNvMs_NtNtCsazECCRb7Zym_13p2p_ai_agents7metrics19prometheus_exporterNtB4_16MetricsCollector23record_message_duration
FN:109,_RNvMs_NtNtCsazECCRb7Zym_13p2p_ai_agents7metrics19prometheus_exporterNtB4_16MetricsCollector23record_message_received
FN:92,_RNvMs_NtNtCsazECCRb7Zym_13p2p_ai_agents7metrics19prometheus_exporterNtB4_16MetricsCollector24record_storage_operation
FN:86,_RNvMs_NtNtCsazECCRb7Zym_13p2p_ai_agents7metrics19prometheus_exporterNtB4_16MetricsCollector3new
FN:179,_RNvNtNtCsazECCRb7Zym_13p2p_ai_agents7metrics19prometheus_exporter14handle_request
FN:68,_RNvXNtNtCsazECCRb7Zym_13p2p_ai_agents7metrics19prometheus_exporterNtB2_13MetricsConfigNtNtCsaTRkahAGrLL_4core7default7Default7default
FN:163,_RNCNCNCNCNCNvMs0_NtNtCsazECCRb7Zym_13p2p_ai_agents7metrics19prometheus_exporterNtBf_13MetricsServer5start00000CshJSWJcNPkNy_19metrics_integration
FN:161,_RNCNCNCNCNvMs0_NtNtCsazECCRb7Zym_13p2p_ai_agents7metrics19prometheus_exporterNtBd_13MetricsServer5start0000CshJSWJcNPkNy_19metrics_integration
FN:160,_RNCNCNCNvMs0_NtNtCsazECCRb7Zym_13p2p_ai_agents7metrics19prometheus_exporterNtBb_13MetricsServer5start000CshJSWJcNPkNy_19metrics_integration
FN:158,_RNCNCNvMs0_NtNtCsazECCRb7Zym_13p2p_ai_agents7metrics19prometheus_exporterNtB9_13MetricsServer5start00CshJSWJcNPkNy_19metrics_integration
FN:170,_RNCNCNvMs0_NtNtCsazECCRb7Zym_13p2p_ai_agents7metrics19prometheus_exporterNtB9_13MetricsServer5start0s_0CshJSWJcNPkNy_19metrics_integration
FN:148,_RNCNvMs0_NtNtCsazECCRb7Zym_13p2p_ai_agents7metrics19prometheus_exporterNtB7_13MetricsServer5start0CshJSWJcNPkNy_19metrics_integration
FN:182,_RNCNvNtNtCsazECCRb7Zym_13p2p_ai_agents7metrics19prometheus_exporter14handle_request0CshJSWJcNPkNy_19metrics_integration
FN:330,_RNvNtNtNtCs4ZEr9HMJnjR_13p2p_ai_agents7metrics19prometheus_exporter5testss_18test_update_gauges
FN:215,_RNvNtNtNtCs4ZEr9HMJnjR_13p2p_ai_agents7metrics19prometheus_exporter5testss_27test_metrics_config_default
FN:280,_RNvNtNtNtCs4ZEr9HMJnjR_13p2p_ai_agents7metrics19prometheus_exporter5testss_27test_record_message_metrics
FN:229,_RNvNtNtNtCs4ZEr9HMJnjR_13p2p_ai_agents7metrics19prometheus_exporter5testss_29test_record_storage_operation
FN:368,_RNvNtNtNtCs4ZEr9HMJnjR_13p2p_ai_agents7metrics19prometheus_exporter5testss_30test_metrics_endpoint_disabled
FN:223,_RNvNtNtNtCs4ZEr9HMJnjR_13p2p_ai_agents7metrics19prometheus_exporter5testss_31test_metrics_collector_creation
FN:145,_RNvMs0_NtNtCs4ZEr9HMJnjR_13p2p_ai_agents7metrics19prometheus_exporterNtB5_13MetricsServer5start
FN:130,_RNvMs_NtNtCs4ZEr9HMJnjR_13p2p_ai_agents7metrics19prometheus_exporterNtB4_16MetricsCollector16update_cpu_usage
FN:135,_RNvMs_NtNtCs4ZEr9HMJnjR_13p2p_ai_agents7metrics19prometheus_exporterNtB4_16MetricsCollector19update_memory_usage
FN:124,_RNvMs_NtNtCs4ZEr9HMJnjR_13p2p_ai_agents7metrics19prometheus_exporterNtB4_16MetricsCollector22update_peers_connected
FN:115,_RNvMs_NtNtCs4ZEr9HMJnjR_13p2p_ai_agents7metrics19prometheus_exporterNtB4_16MetricsCollector23record_message_duration
FN:109,_RNvMs_NtNtCs4ZEr9HMJnjR_13p2p_ai_agents7metrics19prometheus_exporterNtB4_16MetricsCollector23record_message_received
FN:92,_RNvMs_NtNtCs4ZEr9HMJnjR_13p2p_ai_agents7metrics19prometheus_exporterNtB4_16MetricsCollector24record_storage_operation
FN:86,_RNvMs_NtNtCs4ZEr9HMJnjR_13p2p_ai_agents7metrics19prometheus_exporterNtB4_16MetricsCollector3new
FN:179,_RNvNtNtCs4ZEr9HMJnjR_13p2p_ai_agents7metrics19prometheus_exporter14handle_request
FN:68,_RNvXNtNtCs4ZEr9HMJnjR_13p2p_ai_agents7metrics19prometheus_exporterNtB2_13MetricsConfigNtNtCsaTRkahAGrLL_4core7default7Default7default
FN:308,_RNCNCNvNtNtNtCs4ZEr9HMJnjR_13p2p_ai_agents7metrics19prometheus_exporter5testss_27test_record_message_metricss1_00Bb_
FN:292,_RNCNCNvNtNtNtCs4ZEr9HMJnjR_13p2p_ai_agents7metrics19prometheus_exporter5testss_27test_record_message_metricss_00Bb_
FN:257,_RNCNCNvNtNtNtCs4ZEr9HMJnjR_13p2p_ai_agents7metrics19prometheus_exporter5testss_29test_record_storage_operations1_00Bb_
FN:241,_RNCNCNvNtNtNtCs4ZEr9HMJnjR_13p2p_ai_agents7metrics19prometheus_exporter5testss_29test_record_storage_operations_00Bb_
FN:343,_RNCNvNtNtNtCs4ZEr9HMJnjR_13p2p_ai_agents7metrics19prometheus_exporter5testss_18test_update_gauges0B9_
FN:345,_RNCNvNtNtNtCs4ZEr9HMJnjR_13p2p_ai_agents7metrics19prometheus_exporter5testss_18test_update_gaugess0_0B9_
FN:350,_RNCNvNtNtNtCs4ZEr9HMJnjR_13p2p_ai_agents7metrics19prometheus_exporter5testss_18test_update_gaugess1_0B9_
FN:351,_RNCNvNtNtNtCs4ZEr9HMJnjR_13p2p_ai_agents7metrics19prometheus_exporter5testss_18test_update_gaugess2_0B9_
FN:352,_RNCNvNtNtNtCs4ZEr9HMJnjR_13p2p_ai_agents7metrics19prometheus_exporter5testss_18test_update_gaugess3_0B9_
FN:357,_RNCNvNtNtNtCs4ZEr9HMJnjR_13p2p_ai_agents7metrics19prometheus_exporter5testss_18test_update_gaugess4_0B9_
FN:358,_RNCNvNtNtNtCs4ZEr9HMJnjR_13p2p_ai_agents7metrics19prometheus_exporter5testss_18test_update_gaugess5_0B9_
FN:359,_RNCNvNtNtNtCs4ZEr9HMJnjR_13p2p_ai_agents7metrics19prometheus_exporter5testss_18test_update_gaugess6_0B9_
FN:344,_RNCNvNtNtNtCs4ZEr9HMJnjR_13p2p_ai_agents7metrics19prometheus_exporter5testss_18test_update_gaugess_0B9_
FN:288,_RNCNvNtNtNtCs4ZEr9HMJnjR_13p2p_ai_agents7metrics19prometheus_exporter5testss_27test_record_message_metrics0B9_
FN:304,_RNCNvNtNtNtCs4ZEr9HMJnjR_13p2p_ai_agents7metrics19prometheus_exporter5testss_27test_record_message_metricss0_0B9_
FN:305,_RNCNvNtNtNtCs4ZEr9HMJnjR_13p2p_ai_agents7metrics19prometheus_exporter5testss_27test_record_message_metricss1_0B9_
FN:322,_RNCNvNtNtNtCs4ZEr9HMJnjR_13p2p_ai_agents7metrics19prometheus_exporter5testss_27test_record_message_metricss2_0B9_
FN:289,_RNCNvNtNtNtCs4ZEr9HMJnjR_13p2p_ai_agents7metrics19prometheus_exporter5testss_27test_record_message_metricss_0B9_
FN:237,_RNCNvNtNtNtCs4ZEr9HMJnjR_13p2p_ai_agents7metrics19prometheus_exporter5testss_29test_record_storage_operation0B9_
FN:253,_RNCNvNtNtNtCs4ZEr9HMJnjR_13p2p_ai_agents7metrics19prometheus_exporter5testss_29test_record_storage_operations0_0B9_
FN:254,_RNCNvNtNtNtCs4ZEr9HMJnjR_13p2p_ai_agents7metrics19prometheus_exporter5testss_29test_record_storage_operations1_0B9_
FN:272,_RNCNvNtNtNtCs4ZEr9HMJnjR_13p2p_ai_agents7metrics19prometheus_exporter5testss_29test_record_storage_operations2_0B9_
FN:238,_RNCNvNtNtNtCs4ZEr9HMJnjR_13p2p_ai_agents7metrics19prometheus_exporter5testss_29test_record_storage_operations_0B9_
FN:368,_RNCNvNtNtNtCs4ZEr9HMJnjR_13p2p_ai_agents7metrics19prometheus_exporter5testss_30test_metrics_endpoint_disabled0B9_
FN:163,_RNCNCNCNCNCNvMs0_NtNtCs4ZEr9HMJnjR_13p2p_ai_agents7metrics19prometheus_exporterNtBf_13MetricsServer5start00000Bj_
FN:161,_RNCNCNCNCNvMs0_NtNtCs4ZEr9HMJnjR_13p2p_ai_agents7metrics19prometheus_exporterNtBd_13MetricsServer5start0000Bh_
FN:160,_RNCNCNCNvMs0_NtNtCs4ZEr9HMJnjR_13p2p_ai_agents7metrics19prometheus_exporterNtBb_13MetricsServer5start000Bf_
FN:158,_RNCNCNvMs0_NtNtCs4ZEr9HMJnjR_13p2p_ai_agents7metrics19prometheus_exporterNtB9_13MetricsServer5start00Bd_
FN:170,_RNCNCNvMs0_NtNtCs4ZEr9HMJnjR_13p2p_ai_agents7metrics19prometheus_exporterNtB9_13MetricsServer5start0s_0Bd_
FN:148,_RNCNvMs0_NtNtCs4ZEr9HMJnjR_13p2p_ai_agents7metrics19prometheus_exporterNtB7_13MetricsServer5start0Bb_
FN:182,_RNCNvNtNtCs4ZEr9HMJnjR_13p2p_ai_agents7metrics19prometheus_exporter14handle_request0B7_
FNDA:0,_RNCNCNCNCNCNvMs0_NtNtCsazECCRb7Zym_13p2p_ai_agents7metrics19prometheus_exporterNtBf_13MetricsServer5start00000Bj_
FNDA:0,_RNCNCNCNCNvMs0_NtNtCsazECCRb7Zym_13p2p_ai_agents7metrics19prometheus_exporterNtBd_13MetricsServer5start0000Bh_
FNDA:0,_RNCNCNCNvMs0_NtNtCsazECCRb7Zym_13p2p_ai_agents7metrics19prometheus_exporterNtBb_13MetricsServer5start000Bf_
FNDA:0,_RNCNCNvMs0_NtNtCsazECCRb7Zym_13p2p_ai_agents7metrics19prometheus_exporterNtB9_13MetricsServer5start00Bd_
FNDA:0,_RNCNCNvMs0_NtNtCsazECCRb7Zym_13p2p_ai_agents7metrics19prometheus_exporterNtB9_13MetricsServer5start0s_0Bd_
FNDA:0,_RNCNvMs0_NtNtCsazECCRb7Zym_13p2p_ai_agents7metrics19prometheus_exporterNtB7_13MetricsServer5start0Bb_
FNDA:0,_RNCNvNtNtCsazECCRb7Zym_13p2p_ai_agents7metrics19prometheus_exporter14handle_request0B7_
FNDA:1,_RNvMs0_NtNtCsazECCRb7Zym_13p2p_ai_agents7metrics19prometheus_exporterNtB5_13MetricsServer5start
FNDA:1,_RNvMs_NtNtCsazECCRb7Zym_13p2p_ai_agents7metrics19prometheus_exporterNtB4_16MetricsCollector16update_cpu_usage
FNDA:1,_RNvMs_NtNtCsazECCRb7Zym_13p2p_ai_agents7metrics19prometheus_exporterNtB4_16MetricsCollector19update_memory_usage
FNDA:1,_RNvMs_NtNtCsazECCRb7Zym_13p2p_ai_agents7metrics19prometheus_exporterNtB4_16MetricsCollector22update_peers_connected
FNDA:2,_RNvMs_NtNtCsazECCRb7Zym_13p2p_ai_agents7metrics19prometheus_exporterNtB4_16MetricsCollector23record_message_duration
FNDA:2,_RNvMs_NtNtCsazECCRb7Zym_13p2p_ai_agents7metrics19prometheus_exporterNtB4_16MetricsCollector23record_message_received
FNDA:3,_RNvMs_NtNtCsazECCRb7Zym_13p2p_ai_agents7metrics19prometheus_exporterNtB4_16MetricsCollector24record_storage_operation
FNDA:3,_RNvMs_NtNtCsazECCRb7Zym_13p2p_ai_agents7metrics19prometheus_exporterNtB4_16MetricsCollector3new
FNDA:1,_RNvNtNtCsazECCRb7Zym_13p2p_ai_agents7metrics19prometheus_exporter14handle_request
FNDA:2,_RNvXNtNtCsazECCRb7Zym_13p2p_ai_agents7metrics19prometheus_exporterNtB2_13MetricsConfigNtNtCsaTRkahAGrLL_4core7default7Default7default
FNDA:1,_RNCNCNCNCNCNvMs0_NtNtCsazECCRb7Zym_13p2p_ai_agents7metrics19prometheus_exporterNtBf_13MetricsServer5start00000CshJSWJcNPkNy_19metrics_integration
FNDA:1,_RNCNCNCNCNvMs0_NtNtCsazECCRb7Zym_13p2p_ai_agents7metrics19prometheus_exporterNtBd_13MetricsServer5start0000CshJSWJcNPkNy_19metrics_integration
FNDA:1,_RNCNCNCNvMs0_NtNtCsazECCRb7Zym_13p2p_ai_agents7metrics19prometheus_exporterNtBb_13MetricsServer5start000CshJSWJcNPkNy_19metrics_integration
FNDA:1,_RNCNCNvMs0_NtNtCsazECCRb7Zym_13p2p_ai_agents7metrics19prometheus_exporterNtB9_13MetricsServer5start00CshJSWJcNPkNy_19metrics_integration
FNDA:0,_RNCNCNvMs0_NtNtCsazECCRb7Zym_13p2p_ai_agents7metrics19prometheus_exporterNtB9_13MetricsServer5start0s_0CshJSWJcNPkNy_19metrics_integration
FNDA:1,_RNCNvMs0_NtNtCsazECCRb7Zym_13p2p_ai_agents7metrics19prometheus_exporterNtB7_13MetricsServer5start0CshJSWJcNPkNy_19metrics_integration
FNDA:1,_RNCNvNtNtCsazECCRb7Zym_13p2p_ai_agents7metrics19prometheus_exporter14handle_request0CshJSWJcNPkNy_19metrics_integration
FNDA:1,_RNvNtNtNtCs4ZEr9HMJnjR_13p2p_ai_agents7metrics19prometheus_exporter5testss_18test_update_gauges
FNDA:1,_RNvNtNtNtCs4ZEr9HMJnjR_13p2p_ai_agents7metrics19prometheus_exporter5testss_27test_metrics_config_default
FNDA:1,_RNvNtNtNtCs4ZEr9HMJnjR_13p2p_ai_agents7metrics19prometheus_exporter5testss_27test_record_message_metrics
FNDA:1,_RNvNtNtNtCs4ZEr9HMJnjR_13p2p_ai_agents7metrics19prometheus_exporter5testss_29test_record_storage_operation
FNDA:1,_RNvNtNtNtCs4ZEr9HMJnjR_13p2p_ai_agents7metrics19prometheus_exporter5testss_30test_metrics_endpoint_disabled
FNDA:1,_RNvNtNtNtCs4ZEr9HMJnjR_13p2p_ai_agents7metrics19prometheus_exporter5testss_31test_metrics_collector_creation
FNDA:1,_RNvMs0_NtNtCs4ZEr9HMJnjR_13p2p_ai_agents7metrics19prometheus_exporterNtB5_13MetricsServer5start
FNDA:1,_RNvMs_NtNtCs4ZEr9HMJnjR_13p2p_ai_agents7metrics19prometheus_exporterNtB4_16MetricsCollector16update_cpu_usage
FNDA:1,_RNvMs_NtNtCs4ZEr9HMJnjR_13p2p_ai_agents7metrics19prometheus_exporterNtB4_16MetricsCollector19update_memory_usage
FNDA:1,_RNvMs_NtNtCs4ZEr9HMJnjR_13p2p_ai_agents7metrics19prometheus_exporterNtB4_16MetricsCollector22update_peers_connected
FNDA:1,_RNvMs_NtNtCs4ZEr9HMJnjR_13p2p_ai_agents7metrics19prometheus_exporterNtB4_16MetricsCollector23record_message_duration
FNDA:1,_RNvMs_NtNtCs4ZEr9HMJnjR_13p2p_ai_agents7metrics19prometheus_exporterNtB4_16MetricsCollector23record_message_received
FNDA:2,_RNvMs_NtNtCs4ZEr9HMJnjR_13p2p_ai_agents7metrics19prometheus_exporterNtB4_16MetricsCollector24record_storage_operation
FNDA:5,_RNvMs_NtNtCs4ZEr9HMJnjR_13p2p_ai_agents7metrics19prometheus_exporterNtB4_16MetricsCollector3new
FNDA:0,_RNvNtNtCs4ZEr9HMJnjR_13p2p_ai_agents7metrics19prometheus_exporter14handle_request
FNDA:6,_RNvXNtNtCs4ZEr9HMJnjR_13p2p_ai_agents7metrics19prometheus_exporterNtB2_13MetricsConfigNtNtCsaTRkahAGrLL_4core7default7Default7default
FNDA:1,_RNCNCNvNtNtNtCs4ZEr9HMJnjR_13p2p_ai_agents7metrics19prometheus_exporter5testss_27test_record_message_metricss1_00Bb_
FNDA:0,_RNCNCNvNtNtNtCs4ZEr9HMJnjR_13p2p_ai_agents7metrics19prometheus_exporter5testss_27test_record_message_metricss_00Bb_
FNDA:2,_RNCNCNvNtNtNtCs4ZEr9HMJnjR_13p2p_ai_agents7metrics19prometheus_exporter5testss_29test_record_storage_operations1_00Bb_
FNDA:0,_RNCNCNvNtNtNtCs4ZEr9HMJnjR_13p2p_ai_agents7metrics19prometheus_exporter5testss_29test_record_storage_operations_00Bb_
FNDA:1,_RNCNvNtNtNtCs4ZEr9HMJnjR_13p2p_ai_agents7metrics19prometheus_exporter5testss_18test_update_gauges0B9_
FNDA:1,_RNCNvNtNtNtCs4ZEr9HMJnjR_13p2p_ai_agents7metrics19prometheus_exporter5testss_18test_update_gaugess0_0B9_
FNDA:4,_RNCNvNtNtNtCs4ZEr9HMJnjR_13p2p_ai_agents7metrics19prometheus_exporter5testss_18test_update_gaugess1_0B9_
FNDA:1,_RNCNvNtNtNtCs4ZEr9HMJnjR_13p2p_ai_agents7metrics19prometheus_exporter5testss_18test_update_gaugess2_0B9_
FNDA:1,_RNCNvNtNtNtCs4ZEr9HMJnjR_13p2p_ai_agents7metrics19prometheus_exporter5testss_18test_update_gaugess3_0B9_
FNDA:5,_RNCNvNtNtNtCs4ZEr9HMJnjR_13p2p_ai_agents7metrics19prometheus_exporter5testss_18test_update_gaugess4_0B9_
FNDA:1,_RNCNvNtNtNtCs4ZEr9HMJnjR_13p2p_ai_agents7metrics19prometheus_exporter5testss_18test_update_gaugess5_0B9_
FNDA:1,_RNCNvNtNtNtCs4ZEr9HMJnjR_13p2p_ai_agents7metrics19prometheus_exporter5testss_18test_update_gaugess6_0B9_
FNDA:1,_RNCNvNtNtNtCs4ZEr9HMJnjR_13p2p_ai_agents7metrics19prometheus_exporter5testss_18test_update_gaugess_0B9_
FNDA:0,_RNCNvNtNtNtCs4ZEr9HMJnjR_13p2p_ai_agents7metrics19prometheus_exporter5testss_27test_record_message_metrics0B9_
FNDA:2,_RNCNvNtNtNtCs4ZEr9HMJnjR_13p2p_ai_agents7metrics19prometheus_exporter5testss_27test_record_message_metricss0_0B9_
FNDA:1,_RNCNvNtNtNtCs4ZEr9HMJnjR_13p2p_ai_agents7metrics19prometheus_exporter5testss_27test_record_message_metricss1_0B9_
FNDA:1,_RNCNvNtNtNtCs4ZEr9HMJnjR_13p2p_ai_agents7metrics19prometheus_exporter5testss_27test_record_message_metricss2_0B9_
FNDA:0,_RNCNvNtNtNtCs4ZEr9HMJnjR_13p2p_ai_agents7metrics19prometheus_exporter5testss_27test_record_message_metricss_0B9_
FNDA:2,_RNCNvNtNtNtCs4ZEr9HMJnjR_13p2p_ai_agents7metrics19prometheus_exporter5testss_29test_record_storage_operation0B9_
FNDA:4,_RNCNvNtNtNtCs4ZEr9HMJnjR_13p2p_ai_agents7metrics19prometheus_exporter5testss_29test_record_storage_operations0_0B9_
FNDA:1,_RNCNvNtNtNtCs4ZEr9HMJnjR_13p2p_ai_agents7metrics19prometheus_exporter5testss_29test_record_storage_operations1_0B9_
FNDA:3,_RNCNvNtNtNtCs4ZEr9HMJnjR_13p2p_ai_agents7metrics19prometheus_exporter5testss_29test_record_storage_operations2_0B9_
FNDA:0,_RNCNvNtNtNtCs4ZEr9HMJnjR_13p2p_ai_agents7metrics19prometheus_exporter5testss_29test_record_storage_operations_0B9_
FNDA:1,_RNCNvNtNtNtCs4ZEr9HMJnjR_13p2p_ai_agents7metrics19prometheus_exporter5testss_30test_metrics_endpoint_disabled0B9_
FNDA:0,_RNCNCNCNCNCNvMs0_NtNtCs4ZEr9HMJnjR_13p2p_ai_agents7metrics19prometheus_exporterNtBf_13MetricsServer5start00000Bj_
FNDA:0,_RNCNCNCNCNvMs0_NtNtCs4ZEr9HMJnjR_13p2p_ai_agents7metrics19prometheus_exporterNtBd_13MetricsServer5start0000Bh_
FNDA:0,_RNCNCNCNvMs0_NtNtCs4ZEr9HMJnjR_13p2p_ai_agents7metrics19prometheus_exporterNtBb_13MetricsServer5start000Bf_
FNDA:0,_RNCNCNvMs0_NtNtCs4ZEr9HMJnjR_13p2p_ai_agents7metrics19prometheus_exporterNtB9_13MetricsServer5start00Bd_
FNDA:0,_RNCNCNvMs0_NtNtCs4ZEr9HMJnjR_13p2p_ai_agents7metrics19prometheus_exporterNtB9_13MetricsServer5start0s_0Bd_
FNDA:1,_RNCNvMs0_NtNtCs4ZEr9HMJnjR_13p2p_ai_agents7metrics19prometheus_exporterNtB7_13MetricsServer5start0Bb_
FNDA:0,_RNCNvNtNtCs4ZEr9HMJnjR_13p2p_ai_agents7metrics19prometheus_exporter14handle_request0B7_
FNF:47
FNH:41
DA:68,8
DA:69,8
DA:70,8
DA:71,8
DA:72,8
DA:73,8
DA:74,8
DA:86,8
DA:87,8
DA:88,8
DA:89,8
DA:92,5
DA:93,5
DA:94,5
DA:95,5
DA:96,5
DA:97,5
DA:98,5
DA:99,5
DA:100,5
DA:101,5
DA:102,5
DA:103,0
DA:106,5
DA:109,3
DA:110,3
DA:111,3
DA:112,3
DA:115,3
DA:116,3
DA:117,3
DA:118,3
DA:119,3
DA:120,3
DA:121,3
DA:124,2
DA:125,2
DA:126,2
DA:127,2
DA:130,2
DA:131,2
DA:132,2
DA:135,2
DA:136,2
DA:137,2
DA:145,2
DA:146,2
DA:147,2
DA:148,2
DA:149,2
DA:150,1
DA:151,1
DA:152,1
DA:153,1
DA:154,1
DA:155,1
DA:156,1
DA:157,1
DA:158,1
DA:159,1
DA:160,1
DA:161,1
DA:162,1
DA:163,1
DA:164,1
DA:165,1
DA:166,1
DA:167,1
DA:168,1
DA:170,1
DA:171,0
DA:172,0
DA:173,0
DA:175,0
DA:176,1
DA:179,1
DA:180,1
DA:181,1
DA:182,1
DA:183,1
DA:184,1
DA:185,1
DA:186,1
DA:187,1
DA:189,1
DA:190,0
DA:191,0
DA:192,0
DA:193,0
DA:194,0
DA:195,1
DA:196,1
DA:197,1
DA:198,1
DA:199,1
DA:200,1
DA:201,1
DA:203,0
DA:204,0
DA:205,0
DA:206,0
DA:208,1
DA:215,1
DA:216,1
DA:217,1
DA:218,1
DA:219,1
DA:220,1
DA:223,1
DA:224,1
DA:225,1
DA:226,1
DA:229,1
DA:230,1
DA:231,1
DA:232,1
DA:233,1
DA:234,1
DA:235,1
DA:236,1
DA:237,2
DA:238,1
DA:239,0
DA:240,0
DA:241,0
DA:242,0
DA:243,1
DA:244,1
DA:245,1
DA:246,1
DA:247,1
DA:248,1
DA:249,1
DA:250,1
DA:251,1
DA:252,1
DA:253,4
DA:254,1
DA:255,1
DA:256,1
DA:257,2
DA:258,1
DA:259,1
DA:260,1
DA:261,1
DA:262,1
DA:263,1
DA:264,1
DA:266,0
DA:270,1
DA:271,1
DA:272,3
DA:273,1
DA:274,1
DA:275,0
DA:277,1
DA:280,1
DA:281,1
DA:282,1
DA:283,1
DA:284,1
DA:285,1
DA:286,1
DA:287,1
DA:288,1
DA:289,1
DA:290,0
DA:291,0
DA:292,0
DA:293,0
DA:294,1
DA:295,1
DA:296,1
DA:297,1
DA:298,1
DA:299,1
DA:300,1
DA:301,1
DA:302,1
DA:303,1
DA:304,2
DA:305,1
DA:306,1
DA:307,1
DA:308,1
DA:309,1
DA:310,1
DA:311,1
DA:312,1
DA:313,1
DA:314,1
DA:315,1
DA:316,0
DA:320,1
DA:321,1
DA:322,1
DA:323,1
DA:324,1
DA:325,0
DA:327,1
DA:330,1
DA:331,1
DA:332,1
DA:333,1
DA:334,1
DA:335,1
DA:336,1
DA:337,1
DA:338,1
DA:339,1
DA:340,1
DA:341,1
DA:342,1
DA:343,1
DA:344,1
DA:345,1
DA:346,1
DA:348,1
DA:349,1
DA:350,4
DA:351,1
DA:352,1
DA:353,1
DA:355,1
DA:356,1
DA:357,5
DA:358,1
DA:359,1
DA:360,1
DA:363,0
DA:365,1
DA:368,1
DA:369,1
DA:370,1
DA:371,1
DA:372,1
DA:373,1
DA:374,1
DA:375,1
DA:376,1
DA:377,1
BRF:0
BRH:0
LF:284
LH:245
end_of_record
SF:/Users/renegeers/Source/p2p-ai-agents/src/network/discovery.rs
FN:81,_RNCNCNvMNtNtCsazECCRb7Zym_13p2p_ai_agents7network9discoveryNtB6_16DiscoveryManager11remove_peer00Ba_
FN:79,_RNCNvMNtNtCsazECCRb7Zym_13p2p_ai_agents7network9discoveryNtB4_16DiscoveryManager11remove_peer0B8_
FN:94,_RNCNvMNtNtCsazECCRb7Zym_13p2p_ai_agents7network9discoveryNtB4_16DiscoveryManager14discover_peers0B8_
FN:132,_RNCNvMNtNtCsazECCRb7Zym_13p2p_ai_agents7network9discoveryNtB4_16DiscoveryManager14stop_discovery0B8_
FN:86,_RNCNvMNtNtCsazECCRb7Zym_13p2p_ai_agents7network9discoveryNtB4_16DiscoveryManager15get_known_peers0B8_
FN:119,_RNCNvMNtNtCsazECCRb7Zym_13p2p_ai_agents7network9discoveryNtB4_16DiscoveryManager15start_discovery0B8_
FN:53,_RNCNvMNtNtCsazECCRb7Zym_13p2p_ai_agents7network9discoveryNtB4_16DiscoveryManager18add_bootstrap_node0B8_
FN:67,_RNCNvMNtNtCsazECCRb7Zym_13p2p_ai_agents7network9discoveryNtB4_16DiscoveryManager19get_bootstrap_nodes0B8_
FN:60,_RNCNvMNtNtCsazECCRb7Zym_13p2p_ai_agents7network9discoveryNtB4_16DiscoveryManager21remove_bootstrap_node0B8_
FN:72,_RNCNvMNtNtCsazECCRb7Zym_13p2p_ai_agents7network9discoveryNtB4_16DiscoveryManager8add_peer0B8_
FN:81,_RNCNCNvMNtNtCs4ZEr9HMJnjR_13p2p_ai_agents7network9discoveryNtB6_16DiscoveryManager11remove_peer00Ba_
FN:79,_RNCNvMNtNtCs4ZEr9HMJnjR_13p2p_ai_agents7network9discoveryNtB4_16DiscoveryManager11remove_peer0B8_
FN:94,_RNCNvMNtNtCs4ZEr9HMJnjR_13p2p_ai_agents7network9discoveryNtB4_16DiscoveryManager14discover_peers0B8_
FN:132,_RNCNvMNtNtCs4ZEr9HMJnjR_13p2p_ai_agents7network9discoveryNtB4_16DiscoveryManager14stop_discovery0B8_
FN:86,_RNCNvMNtNtCs4ZEr9HMJnjR_13p2p_ai_agents7network9discoveryNtB4_16DiscoveryManager15get_known_peers0B8_
FN:119,_RNCNvMNtNtCs4ZEr9HMJnjR_13p2p_ai_agents7network9discoveryNtB4_16DiscoveryManager15start_discovery0B8_
FN:53,_RNCNvMNtNtCs4ZEr9HMJnjR_13p2p_ai_agents7network9discoveryNtB4_16DiscoveryManager18add_bootstrap_node0B8_
FN:67,_RNCNvMNtNtCs4ZEr9HMJnjR_13p2p_ai_agents7network9discoveryNtB4_16DiscoveryManager19get_bootstrap_nodes0B8_
FN:60,_RNCNvMNtNtCs4ZEr9HMJnjR_13p2p_ai_agents7network9discoveryNtB4_16DiscoveryManager21remove_bootstrap_node0B8_
FN:72,_RNCNvMNtNtCs4ZEr9HMJnjR_13p2p_ai_agents7network9discoveryNtB4_16DiscoveryManager8add_peer0B8_
FN:79,_RNvMNtNtCs4ZEr9HMJnjR_13p2p_ai_agents7network9discoveryNtB2_16DiscoveryManager11remove_peer
FN:94,_RNvMNtNtCs4ZEr9HMJnjR_13p2p_ai_agents7network9discoveryNtB2_16DiscoveryManager14discover_peers
FN:132,_RNvMNtNtCs4ZEr9HMJnjR_13p2p_ai_agents7network9discoveryNtB2_16DiscoveryManager14stop_discovery
FN:86,_RNvMNtNtCs4ZEr9HMJnjR_13p2p_ai_agents7network9discoveryNtB2_16DiscoveryManager15get_known_peers
FN:119,_RNvMNtNtCs4ZEr9HMJnjR_13p2p_ai_agents7network9discoveryNtB2_16DiscoveryManager15start_discovery
FN:53,_RNvMNtNtCs4ZEr9HMJnjR_13p2p_ai_agents7network9discoveryNtB2_16DiscoveryManager18add_bootstrap_node
FN:67,_RNvMNtNtCs4ZEr9HMJnjR_13p2p_ai_agents7network9discoveryNtB2_16DiscoveryManager19get_bootstrap_nodes
FN:60,_RNvMNtNtCs4ZEr9HMJnjR_13p2p_ai_agents7network9discoveryNtB2_16DiscoveryManager21remove_bootstrap_node
FN:44,_RNvMNtNtCs4ZEr9HMJnjR_13p2p_ai_agents7network9discoveryNtB2_16DiscoveryManager3new
FN:72,_RNvMNtNtCs4ZEr9HMJnjR_13p2p_ai_agents7network9discoveryNtB2_16DiscoveryManager8add_peer
FNDA:0,_RNCNCNvMNtNtCsazECCRb7Zym_13p2p_ai_agents7network9discoveryNtB6_16DiscoveryManager11remove_peer00Ba_
FNDA:0,_RNCNvMNtNtCsazECCRb7Zym_13p2p_ai_agents7network9discoveryNtB4_16DiscoveryManager11remove_peer0B8_
FNDA:0,_RNCNvMNtNtCsazECCRb7Zym_13p2p_ai_agents7network9discoveryNtB4_16DiscoveryManager14discover_peers0B8_
FNDA:0,_RNCNvMNtNtCsazECCRb7Zym_13p2p_ai_agents7network9discoveryNtB4_16DiscoveryManager14stop_discovery0B8_
FNDA:0,_RNCNvMNtNtCsazECCRb7Zym_13p2p_ai_agents7network9discoveryNtB4_16DiscoveryManager15get_known_peers0B8_
FNDA:0,_RNCNvMNtNtCsazECCRb7Zym_13p2p_ai_agents7network9discoveryNtB4_16DiscoveryManager15start_discovery0B8_
FNDA:0,_RNCNvMNtNtCsazECCRb7Zym_13p2p_ai_agents7network9discoveryNtB4_16DiscoveryManager18add_bootstrap_node0B8_
FNDA:0,_RNCNvMNtNtCsazECCRb7Zym_13p2p_ai_agents7network9discoveryNtB4_16DiscoveryManager19get_bootstrap_nodes0B8_
FNDA:0,_RNCNvMNtNtCsazECCRb7Zym_13p2p_ai_agents7network9discoveryNtB4_16DiscoveryManager21remove_bootstrap_node0B8_
FNDA:0,_RNCNvMNtNtCsazECCRb7Zym_13p2p_ai_agents7network9discoveryNtB4_16DiscoveryManager8add_peer0B8_
FNDA:0,_RNCNCNvMNtNtCs4ZEr9HMJnjR_13p2p_ai_agents7network9discoveryNtB6_16DiscoveryManager11remove_peer00Ba_
FNDA:0,_RNCNvMNtNtCs4ZEr9HMJnjR_13p2p_ai_agents7network9discoveryNtB4_16DiscoveryManager11remove_peer0B8_
FNDA:0,_RNCNvMNtNtCs4ZEr9HMJnjR_13p2p_ai_agents7network9discoveryNtB4_16DiscoveryManager14discover_peers0B8_
FNDA:0,_RNCNvMNtNtCs4ZEr9HMJnjR_13p2p_ai_agents7network9discoveryNtB4_16DiscoveryManager14stop_discovery0B8_
FNDA:0,_RNCNvMNtNtCs4ZEr9HMJnjR_13p2p_ai_agents7network9discoveryNtB4_16DiscoveryManager15get_known_peers0B8_
FNDA:0,_RNCNvMNtNtCs4ZEr9HMJnjR_13p2p_ai_agents7network9discoveryNtB4_16DiscoveryManager15start_discovery0B8_
FNDA:0,_RNCNvMNtNtCs4ZEr9HMJnjR_13p2p_ai_agents7network9discoveryNtB4_16DiscoveryManager18add_bootstrap_node0B8_
FNDA:0,_RNCNvMNtNtCs4ZEr9HMJnjR_13p2p_ai_agents7network9discoveryNtB4_16DiscoveryManager19get_bootstrap_nodes0B8_
FNDA:0,_RNCNvMNtNtCs4ZEr9HMJnjR_13p2p_ai_agents7network9discoveryNtB4_16DiscoveryManager21remove_bootstrap_node0B8_
FNDA:0,_RNCNvMNtNtCs4ZEr9HMJnjR_13p2p_ai_agents7network9discoveryNtB4_16DiscoveryManager8add_peer0B8_
FNDA:0,_RNvMNtNtCs4ZEr9HMJnjR_13p2p_ai_agents7network9discoveryNtB2_16DiscoveryManager11remove_peer
FNDA:0,_RNvMNtNtCs4ZEr9HMJnjR_13p2p_ai_agents7network9discoveryNtB2_16DiscoveryManager14discover_peers
FNDA:0,_RNvMNtNtCs4ZEr9HMJnjR_13p2p_ai_agents7network9discoveryNtB2_16DiscoveryManager14stop_discovery
FNDA:0,_RNvMNtNtCs4ZEr9HMJnjR_13p2p_ai_agents7network9discoveryNtB2_16DiscoveryManager15get_known_peers
FNDA:0,_RNvMNtNtCs4ZEr9HMJnjR_13p2p_ai_agents7network9discoveryNtB2_16DiscoveryManager15start_discovery
FNDA:0,_RNvMNtNtCs4ZEr9HMJnjR_13p2p_ai_agents7network9discoveryNtB2_16DiscoveryManager18add_bootstrap_node
FNDA:0,_RNvMNtNtCs4ZEr9HMJnjR_13p2p_ai_agents7network9discoveryNtB2_16DiscoveryManager19get_bootstrap_nodes
FNDA:0,_RNvMNtNtCs4ZEr9HMJnjR_13p2p_ai_agents7network9discoveryNtB2_16DiscoveryManager21remove_bootstrap_node
FNDA:0,_RNvMNtNtCs4ZEr9HMJnjR_13p2p_ai_agents7network9discoveryNtB2_16DiscoveryManager3new
FNDA:0,_RNvMNtNtCs4ZEr9HMJnjR_13p2p_ai_agents7network9discoveryNtB2_16DiscoveryManager8add_peer
FNF:20
FNH:0
DA:44,0
DA:45,0
DA:46,0
DA:47,0
DA:48,0
DA:49,0
DA:50,0
DA:53,0
DA:54,0
DA:55,0
DA:56,0
DA:57,0
DA:60,0
DA:61,0
DA:62,0
DA:63,0
DA:64,0
DA:67,0
DA:68,0
DA:69,0
DA:72,0
DA:73,0
DA:74,0
DA:75,0
DA:76,0
DA:79,0
DA:80,0
DA:81,0
DA:82,0
DA:83,0
DA:86,0
DA:87,0
DA:88,0
DA:94,0
DA:95,0
DA:97,0
DA:98,0
DA:100,0
DA:101,0
DA:102,0
DA:103,0
DA:104,0
DA:105,0
DA:106,0
DA:107,0
DA:108,0
DA:109,0
DA:110,0
DA:111,0
DA:112,0
DA:113,0
DA:119,0
DA:120,0
DA:122,0
DA:125,0
DA:127,0
DA:132,0
DA:133,0
DA:134,0
DA:135,0
BRF:0
BRH:0
LF:70
LH:0
end_of_record
SF:/Users/renegeers/Source/p2p-ai-agents/src/network/mod.rs
FN:264,_RNCNvMNtCsazECCRb7Zym_13p2p_ai_agents7networkNtB4_14NetworkManager12send_message0B6_
FN:259,_RNCNvMNtCsazECCRb7Zym_13p2p_ai_agents7networkNtB4_14NetworkManager18add_connected_peer0B6_
FN:294,_RNCNvMNtCsazECCRb7Zym_13p2p_ai_agents7networkNtB4_14NetworkManager19get_connected_peers0B6_
FN:217,_RNCNvMNtCsazECCRb7Zym_13p2p_ai_agents7networkNtB4_14NetworkManager5start0B6_
FN:229,_RNCNvMNtCsazECCRb7Zym_13p2p_ai_agents7networkNtB4_14NetworkManager8shutdown0B6_
FN:288,_RNCNvMNtCsazECCRb7Zym_13p2p_ai_agents7networkNtB4_14NetworkManager12get_messages0B6_
FN:269,_RNCNvMNtCsazECCRb7Zym_13p2p_ai_agents7networkNtB4_14NetworkManager15receive_message0B6_
FN:248,_RNCNvMNtCsazECCRb7Zym_13p2p_ai_agents7networkNtB4_14NetworkManager26simulate_transport_failure0B6_
FN:212,_RNvMNtCsazECCRb7Zym_13p2p_ai_agents7networkNtB2_14NetworkManager10is_running
FN:288,_RNvMNtCsazECCRb7Zym_13p2p_ai_agents7networkNtB2_14NetworkManager12get_messages
FN:264,_RNvMNtCsazECCRb7Zym_13p2p_ai_agents7networkNtB2_14NetworkManager12send_message
FN:191,_RNvMNtCsazECCRb7Zym_13p2p_ai_agents7networkNtB2_14NetworkManager12with_metrics
FN:243,_RNvMNtCsazECCRb7Zym_13p2p_ai_agents7networkNtB2_14NetworkManager13get_transport
FN:238,_RNvMNtCsazECCRb7Zym_13p2p_ai_agents7networkNtB2_14NetworkManager13set_transport
FN:207,_RNvMNtCsazECCRb7Zym_13p2p_ai_agents7networkNtB2_14NetworkManager14is_initialized
FN:269,_RNvMNtCsazECCRb7Zym_13p2p_ai_agents7networkNtB2_14NetworkManager15receive_message
FN:259,_RNvMNtCsazECCRb7Zym_13p2p_ai_agents7networkNtB2_14NetworkManager18add_connected_peer
FN:294,_RNvMNtCsazECCRb7Zym_13p2p_ai_agents7networkNtB2_14NetworkManager19get_connected_peers
FN:248,_RNvMNtCsazECCRb7Zym_13p2p_ai_agents7networkNtB2_14NetworkManager26simulate_transport_failure
FN:176,_RNvMNtCsazECCRb7Zym_13p2p_ai_agents7networkNtB2_14NetworkManager3new
FN:217,_RNvMNtCsazECCRb7Zym_13p2p_ai_agents7networkNtB2_14NetworkManager5start
FN:300,_RNvMNtCsazECCRb7Zym_13p2p_ai_agents7networkNtB2_14NetworkManager6config
FN:229,_RNvMNtCsazECCRb7Zym_13p2p_ai_agents7networkNtB2_14NetworkManager8shutdown
FN:335,_RNvMs1_NtCsazECCRb7Zym_13p2p_ai_agents7networkNtB5_21NetworkManagerBuilder11with_config
FN:330,_RNvMs1_NtCsazECCRb7Zym_13p2p_ai_agents7networkNtB5_21NetworkManagerBuilder3new
FN:363,_RNvMs3_NtCsazECCRb7Zym_13p2p_ai_agents7networkNtB5_16MetricsCollector3get
FN:353,_RNvMs3_NtCsazECCRb7Zym_13p2p_ai_agents7networkNtB5_16MetricsCollector3new
FN:359,_RNvMs3_NtCsazECCRb7Zym_13p2p_ai_agents7networkNtB5_16MetricsCollector9increment
FN:378,_RNvMs5_NtCsazECCRb7Zym_13p2p_ai_agents7networkNtB5_15ResourceManager3new
FN:393,_RNvMs7_NtCsazECCRb7Zym_13p2p_ai_agents7networkNtB5_13HealthMonitor3new
FN:408,_RNvMs9_NtCsazECCRb7Zym_13p2p_ai_agents7networkNtB5_15SecurityManager3new
FN:312,_RNvMs_NtCsazECCRb7Zym_13p2p_ai_agents7networkNtB4_13EventChannels3new
FN:318,_RNvXs0_NtCsazECCRb7Zym_13p2p_ai_agents7networkNtB5_13EventChannelsNtNtCsaTRkahAGrLL_4core7default7Default7default
FN:342,_RNvXs2_NtCsazECCRb7Zym_13p2p_ai_agents7networkNtB5_21NetworkManagerBuilderNtNtCsaTRkahAGrLL_4core7default7Default7default
FN:369,_RNvXs4_NtCsazECCRb7Zym_13p2p_ai_agents7networkNtB5_16MetricsCollectorNtNtCsaTRkahAGrLL_4core7default7Default7default
FN:384,_RNvXs6_NtCsazECCRb7Zym_13p2p_ai_agents7networkNtB5_15ResourceManagerNtNtCsaTRkahAGrLL_4core7default7Default7default
FN:399,_RNvXs8_NtCsazECCRb7Zym_13p2p_ai_agents7networkNtB5_13HealthMonitorNtNtCsaTRkahAGrLL_4core7default7Default7default
FN:414,_RNvXsa_NtCsazECCRb7Zym_13p2p_ai_agents7networkNtB5_15SecurityManagerNtNtCsaTRkahAGrLL_4core7default7Default7default
FN:269,_RNCNvMNtCsazECCRb7Zym_13p2p_ai_agents7networkNtB4_14NetworkManager15receive_message0CsdK3UQoAyM4U_20examples_basic_usage
FN:269,_RNCNvMNtCsazECCRb7Zym_13p2p_ai_agents7networkNtB4_14NetworkManager15receive_message0CshJSWJcNPkNy_19metrics_integration
FN:288,_RNCNvMNtCs4ZEr9HMJnjR_13p2p_ai_agents7networkNtB4_14NetworkManager12get_messages0B6_
FN:269,_RNCNvMNtCs4ZEr9HMJnjR_13p2p_ai_agents7networkNtB4_14NetworkManager15receive_message0B6_
FN:248,_RNCNvMNtCs4ZEr9HMJnjR_13p2p_ai_agents7networkNtB4_14NetworkManager26simulate_transport_failure0B6_
FN:288,_RNvMNtCs4ZEr9HMJnjR_13p2p_ai_agents7networkNtB2_14NetworkManager12get_messages
FN:191,_RNvMNtCs4ZEr9HMJnjR_13p2p_ai_agents7networkNtB2_14NetworkManager12with_metrics
FN:243,_RNvMNtCs4ZEr9HMJnjR_13p2p_ai_agents7networkNtB2_14NetworkManager13get_transport
FN:238,_RNvMNtCs4ZEr9HMJnjR_13p2p_ai_agents7networkNtB2_14NetworkManager13set_transport
FN:207,_RNvMNtCs4ZEr9HMJnjR_13p2p_ai_agents7networkNtB2_14NetworkManager14is_initialized
FN:269,_RNvMNtCs4ZEr9HMJnjR_13p2p_ai_agents7networkNtB2_14NetworkManager15receive_message
FN:248,_RNvMNtCs4ZEr9HMJnjR_13p2p_ai_agents7networkNtB2_14NetworkManager26simulate_transport_failure
FN:300,_RNvMNtCs4ZEr9HMJnjR_13p2p_ai_agents7networkNtB2_14NetworkManager6config
FN:363,_RNvMs3_NtCs4ZEr9HMJnjR_13p2p_ai_agents7networkNtB5_16MetricsCollector3get
FN:359,_RNvMs3_NtCs4ZEr9HMJnjR_13p2p_ai_agents7networkNtB5_16MetricsCollector9increment
FN:318,_RNvXs0_NtCs4ZEr9HMJnjR_13p2p_ai_agents7networkNtB5_13EventChannelsNtNtCsaTRkahAGrLL_4core7default7Default7default
FN:342,_RNvXs2_NtCs4ZEr9HMJnjR_13p2p_ai_agents7networkNtB5_21NetworkManagerBuilderNtNtCsaTRkahAGrLL_4core7default7Default7default
FN:369,_RNvXs4_NtCs4ZEr9HMJnjR_13p2p_ai_agents7networkNtB5_16MetricsCollectorNtNtCsaTRkahAGrLL_4core7default7Default7default
FN:384,_RNvXs6_NtCs4ZEr9HMJnjR_13p2p_ai_agents7networkNtB5_15ResourceManagerNtNtCsaTRkahAGrLL_4core7default7Default7default
FN:399,_RNvXs8_NtCs4ZEr9HMJnjR_13p2p_ai_agents7networkNtB5_13HealthMonitorNtNtCsaTRkahAGrLL_4core7default7Default7default
FN:414,_RNvXsa_NtCs4ZEr9HMJnjR_13p2p_ai_agents7networkNtB5_15SecurityManagerNtNtCsaTRkahAGrLL_4core7default7Default7default
FN:264,_RNCNvMNtCs4ZEr9HMJnjR_13p2p_ai_agents7networkNtB4_14NetworkManager12send_message0B6_
FN:259,_RNCNvMNtCs4ZEr9HMJnjR_13p2p_ai_agents7networkNtB4_14NetworkManager18add_connected_peer0B6_
FN:294,_RNCNvMNtCs4ZEr9HMJnjR_13p2p_ai_agents7networkNtB4_14NetworkManager19get_connected_peers0B6_
FN:217,_RNCNvMNtCs4ZEr9HMJnjR_13p2p_ai_agents7networkNtB4_14NetworkManager5start0B6_
FN:229,_RNCNvMNtCs4ZEr9HMJnjR_13p2p_ai_agents7networkNtB4_14NetworkManager8shutdown0B6_
FN:467,_RNvNtNtCs4ZEr9HMJnjR_13p2p_ai_agents7network5testss_21test_peer_id_creation
FN:475,_RNvNtNtCs4ZEr9HMJnjR_13p2p_ai_agents7network5testss_21test_peer_id_equality
FN:424,_RNvNtNtCs4ZEr9HMJnjR_13p2p_ai_agents7network5testss_23test_event_channels_new
FN:456,_RNvNtNtCs4ZEr9HMJnjR_13p2p_ai_agents7network5testss_23test_health_monitor_new
FN:486,_RNvNtNtCs4ZEr9HMJnjR_13p2p_ai_agents7network5testss_23test_multiaddr_creation
FN:494,_RNvNtNtCs4ZEr9HMJnjR_13p2p_ai_agents7network5testss_23test_multiaddr_equality
FN:451,_RNvNtNtCs4ZEr9HMJnjR_13p2p_ai_agents7network5testss_25test_resource_manager_new
FN:461,_RNvNtNtCs4ZEr9HMJnjR_13p2p_ai_agents7network5testss_25test_security_manager_new
FN:446,_RNvNtNtCs4ZEr9HMJnjR_13p2p_ai_agents7network5testss_26test_metrics_collector_new
FN:505,_RNvNtNtCs4ZEr9HMJnjR_13p2p_ai_agents7network5testss_29test_resource_limits_creation
FN:429,_RNvNtNtCs4ZEr9HMJnjR_13p2p_ai_agents7network5testss_48test_network_manager_builder_new_and_with_config
FN:212,_RNvMNtCs4ZEr9HMJnjR_13p2p_ai_agents7networkNtB2_14NetworkManager10is_running
FN:264,_RNvMNtCs4ZEr9HMJnjR_13p2p_ai_agents7networkNtB2_14NetworkManager12send_message
FN:259,_RNvMNtCs4ZEr9HMJnjR_13p2p_ai_agents7networkNtB2_14NetworkManager18add_connected_peer
FN:294,_RNvMNtCs4ZEr9HMJnjR_13p2p_ai_agents7networkNtB2_14NetworkManager19get_connected_peers
FN:176,_RNvMNtCs4ZEr9HMJnjR_13p2p_ai_agents7networkNtB2_14NetworkManager3new
FN:217,_RNvMNtCs4ZEr9HMJnjR_13p2p_ai_agents7networkNtB2_14NetworkManager5start
FN:229,_RNvMNtCs4ZEr9HMJnjR_13p2p_ai_agents7networkNtB2_14NetworkManager8shutdown
FN:335,_RNvMs1_NtCs4ZEr9HMJnjR_13p2p_ai_agents7networkNtB5_21NetworkManagerBuilder11with_config
FN:330,_RNvMs1_NtCs4ZEr9HMJnjR_13p2p_ai_agents7networkNtB5_21NetworkManagerBuilder3new
FN:353,_RNvMs3_NtCs4ZEr9HMJnjR_13p2p_ai_agents7networkNtB5_16MetricsCollector3new
FN:378,_RNvMs5_NtCs4ZEr9HMJnjR_13p2p_ai_agents7networkNtB5_15ResourceManager3new
FN:393,_RNvMs7_NtCs4ZEr9HMJnjR_13p2p_ai_agents7networkNtB5_13HealthMonitor3new
FN:408,_RNvMs9_NtCs4ZEr9HMJnjR_13p2p_ai_agents7networkNtB5_15SecurityManager3new
FN:312,_RNvMs_NtCs4ZEr9HMJnjR_13p2p_ai_agents7networkNtB4_13EventChannels3new
FNDA:3,_RNCNvMNtCsazECCRb7Zym_13p2p_ai_agents7networkNtB4_14NetworkManager12send_message0B6_
FNDA:1,_RNCNvMNtCsazECCRb7Zym_13p2p_ai_agents7networkNtB4_14NetworkManager18add_connected_peer0B6_
FNDA:0,_RNCNvMNtCsazECCRb7Zym_13p2p_ai_agents7networkNtB4_14NetworkManager19get_connected_peers0B6_
FNDA:0,_RNCNvMNtCsazECCRb7Zym_13p2p_ai_agents7networkNtB4_14NetworkManager5start0B6_
FNDA:0,_RNCNvMNtCsazECCRb7Zym_13p2p_ai_agents7networkNtB4_14NetworkManager8shutdown0B6_
FNDA:0,_RNCNvMNtCsazECCRb7Zym_13p2p_ai_agents7networkNtB4_14NetworkManager12get_messages0B6_
FNDA:0,_RNCNvMNtCsazECCRb7Zym_13p2p_ai_agents7networkNtB4_14NetworkManager15receive_message0B6_
FNDA:0,_RNCNvMNtCsazECCRb7Zym_13p2p_ai_agents7networkNtB4_14NetworkManager26simulate_transport_failure0B6_
FNDA:0,_RNvMNtCsazECCRb7Zym_13p2p_ai_agents7networkNtB2_14NetworkManager10is_running
FNDA:0,_RNvMNtCsazECCRb7Zym_13p2p_ai_agents7networkNtB2_14NetworkManager12get_messages
FNDA:3,_RNvMNtCsazECCRb7Zym_13p2p_ai_agents7networkNtB2_14NetworkManager12send_message
FNDA:1,_RNvMNtCsazECCRb7Zym_13p2p_ai_agents7networkNtB2_14NetworkManager12with_metrics
FNDA:0,_RNvMNtCsazECCRb7Zym_13p2p_ai_agents7networkNtB2_14NetworkManager13get_transport
FNDA:0,_RNvMNtCsazECCRb7Zym_13p2p_ai_agents7networkNtB2_14NetworkManager13set_transport
FNDA:0,_RNvMNtCsazECCRb7Zym_13p2p_ai_agents7networkNtB2_14NetworkManager14is_initialized
FNDA:3,_RNvMNtCsazECCRb7Zym_13p2p_ai_agents7networkNtB2_14NetworkManager15receive_message
FNDA:1,_RNvMNtCsazECCRb7Zym_13p2p_ai_agents7networkNtB2_14NetworkManager18add_connected_peer
FNDA:0,_RNvMNtCsazECCRb7Zym_13p2p_ai_agents7networkNtB2_14NetworkManager19get_connected_peers
FNDA:0,_RNvMNtCsazECCRb7Zym_13p2p_ai_agents7networkNtB2_14NetworkManager26simulate_transport_failure
FNDA:1,_RNvMNtCsazECCRb7Zym_13p2p_ai_agents7networkNtB2_14NetworkManager3new
FNDA:0,_RNvMNtCsazECCRb7Zym_13p2p_ai_agents7networkNtB2_14NetworkManager5start
FNDA:0,_RNvMNtCsazECCRb7Zym_13p2p_ai_agents7networkNtB2_14NetworkManager6config
FNDA:0,_RNvMNtCsazECCRb7Zym_13p2p_ai_agents7networkNtB2_14NetworkManager8shutdown
FNDA:0,_RNvMs1_NtCsazECCRb7Zym_13p2p_ai_agents7networkNtB5_21NetworkManagerBuilder11with_config
FNDA:0,_RNvMs1_NtCsazECCRb7Zym_13p2p_ai_agents7networkNtB5_21NetworkManagerBuilder3new
FNDA:2,_RNvMs3_NtCsazECCRb7Zym_13p2p_ai_agents7networkNtB5_16MetricsCollector3get
FNDA:1,_RNvMs3_NtCsazECCRb7Zym_13p2p_ai_agents7networkNtB5_16MetricsCollector3new
FNDA:2,_RNvMs3_NtCsazECCRb7Zym_13p2p_ai_agents7networkNtB5_16MetricsCollector9increment
FNDA:0,_RNvMs5_NtCsazECCRb7Zym_13p2p_ai_agents7networkNtB5_15ResourceManager3new
FNDA:0,_RNvMs7_NtCsazECCRb7Zym_13p2p_ai_agents7networkNtB5_13HealthMonitor3new
FNDA:0,_RNvMs9_NtCsazECCRb7Zym_13p2p_ai_agents7networkNtB5_15SecurityManager3new
FNDA:0,_RNvMs_NtCsazECCRb7Zym_13p2p_ai_agents7networkNtB4_13EventChannels3new
FNDA:0,_RNvXs0_NtCsazECCRb7Zym_13p2p_ai_agents7networkNtB5_13EventChannelsNtNtCsaTRkahAGrLL_4core7default7Default7default
FNDA:0,_RNvXs2_NtCsazECCRb7Zym_13p2p_ai_agents7networkNtB5_21NetworkManagerBuilderNtNtCsaTRkahAGrLL_4core7default7Default7default
FNDA:0,_RNvXs4_NtCsazECCRb7Zym_13p2p_ai_agents7networkNtB5_16MetricsCollectorNtNtCsaTRkahAGrLL_4core7default7Default7default
FNDA:0,_RNvXs6_NtCsazECCRb7Zym_13p2p_ai_agents7networkNtB5_15ResourceManagerNtNtCsaTRkahAGrLL_4core7default7Default7default
FNDA:0,_RNvXs8_NtCsazECCRb7Zym_13p2p_ai_agents7networkNtB5_13HealthMonitorNtNtCsaTRkahAGrLL_4core7default7Default7default
FNDA:0,_RNvXsa_NtCsazECCRb7Zym_13p2p_ai_agents7networkNtB5_15SecurityManagerNtNtCsaTRkahAGrLL_4core7default7Default7default
FNDA:1,_RNCNvMNtCsazECCRb7Zym_13p2p_ai_agents7networkNtB4_14NetworkManager15receive_message0CsdK3UQoAyM4U_20examples_basic_usage
FNDA:2,_RNCNvMNtCsazECCRb7Zym_13p2p_ai_agents7networkNtB4_14NetworkManager15receive_message0CshJSWJcNPkNy_19metrics_integration
FNDA:0,_RNCNvMNtCs4ZEr9HMJnjR_13p2p_ai_agents7networkNtB4_14NetworkManager12get_messages0B6_
FNDA:0,_RNCNvMNtCs4ZEr9HMJnjR_13p2p_ai_agents7networkNtB4_14NetworkManager15receive_message0B6_
FNDA:0,_RNCNvMNtCs4ZEr9HMJnjR_13p2p_ai_agents7networkNtB4_14NetworkManager26simulate_transport_failure0B6_
FNDA:0,_RNvMNtCs4ZEr9HMJnjR_13p2p_ai_agents7networkNtB2_14NetworkManager12get_messages
FNDA:0,_RNvMNtCs4ZEr9HMJnjR_13p2p_ai_agents7networkNtB2_14NetworkManager12with_metrics
FNDA:0,_RNvMNtCs4ZEr9HMJnjR_13p2p_ai_agents7networkNtB2_14NetworkManager13get_transport
FNDA:0,_RNvMNtCs4ZEr9HMJnjR_13p2p_ai_agents7networkNtB2_14NetworkManager13set_transport
FNDA:0,_RNvMNtCs4ZEr9HMJnjR_13p2p_ai_agents7networkNtB2_14NetworkManager14is_initialized
FNDA:0,_RNvMNtCs4ZEr9HMJnjR_13p2p_ai_agents7networkNtB2_14NetworkManager15receive_message
FNDA:0,_RNvMNtCs4ZEr9HMJnjR_13p2p_ai_agents7networkNtB2_14NetworkManager26simulate_transport_failure
FNDA:0,_RNvMNtCs4ZEr9HMJnjR_13p2p_ai_agents7networkNtB2_14NetworkManager6config
FNDA:0,_RNvMs3_NtCs4ZEr9HMJnjR_13p2p_ai_agents7networkNtB5_16MetricsCollector3get
FNDA:0,_RNvMs3_NtCs4ZEr9HMJnjR_13p2p_ai_agents7networkNtB5_16MetricsCollector9increment
FNDA:0,_RNvXs0_NtCs4ZEr9HMJnjR_13p2p_ai_agents7networkNtB5_13EventChannelsNtNtCsaTRkahAGrLL_4core7default7Default7default
FNDA:0,_RNvXs2_NtCs4ZEr9HMJnjR_13p2p_ai_agents7networkNtB5_21NetworkManagerBuilderNtNtCsaTRkahAGrLL_4core7default7Default7default
FNDA:0,_RNvXs4_NtCs4ZEr9HMJnjR_13p2p_ai_agents7networkNtB5_16MetricsCollectorNtNtCsaTRkahAGrLL_4core7default7Default7default
FNDA:0,_RNvXs6_NtCs4ZEr9HMJnjR_13p2p_ai_agents7networkNtB5_15ResourceManagerNtNtCsaTRkahAGrLL_4core7default7Default7default
FNDA:0,_RNvXs8_NtCs4ZEr9HMJnjR_13p2p_ai_agents7networkNtB5_13HealthMonitorNtNtCsaTRkahAGrLL_4core7default7Default7default
FNDA:0,_RNvXsa_NtCs4ZEr9HMJnjR_13p2p_ai_agents7networkNtB5_15SecurityManagerNtNtCsaTRkahAGrLL_4core7default7Default7default
FNDA:1,_RNCNvMNtCs4ZEr9HMJnjR_13p2p_ai_agents7networkNtB4_14NetworkManager12send_message0B6_
FNDA:0,_RNCNvMNtCs4ZEr9HMJnjR_13p2p_ai_agents7networkNtB4_14NetworkManager18add_connected_peer0B6_
FNDA:2,_RNCNvMNtCs4ZEr9HMJnjR_13p2p_ai_agents7networkNtB4_14NetworkManager19get_connected_peers0B6_
FNDA:4,_RNCNvMNtCs4ZEr9HMJnjR_13p2p_ai_agents7networkNtB4_14NetworkManager5start0B6_
FNDA:5,_RNCNvMNtCs4ZEr9HMJnjR_13p2p_ai_agents7networkNtB4_14NetworkManager8shutdown0B6_
FNDA:1,_RNvNtNtCs4ZEr9HMJnjR_13p2p_ai_agents7network5testss_21test_peer_id_creation
FNDA:1,_RNvNtNtCs4ZEr9HMJnjR_13p2p_ai_agents7network5testss_21test_peer_id_equality
FNDA:1,_RNvNtNtCs4ZEr9HMJnjR_13p2p_ai_agents7network5testss_23test_event_channels_new
FNDA:1,_RNvNtNtCs4ZEr9HMJnjR_13p2p_ai_agents7network5testss_23test_health_monitor_new
FNDA:1,_RNvNtNtCs4ZEr9HMJnjR_13p2p_ai_agents7network5testss_23test_multiaddr_creation
FNDA:1,_RNvNtNtCs4ZEr9HMJnjR_13p2p_ai_agents7network5testss_23test_multiaddr_equality
FNDA:1,_RNvNtNtCs4ZEr9HMJnjR_13p2p_ai_agents7network5testss_25test_resource_manager_new
FNDA:1,_RNvNtNtCs4ZEr9HMJnjR_13p2p_ai_agents7network5testss_25test_security_manager_new
FNDA:1,_RNvNtNtCs4ZEr9HMJnjR_13p2p_ai_agents7network5testss_26test_metrics_collector_new
FNDA:1,_RNvNtNtCs4ZEr9HMJnjR_13p2p_ai_agents7network5testss_29test_resource_limits_creation
FNDA:1,_RNvNtNtCs4ZEr9HMJnjR_13p2p_ai_agents7network5testss_48test_network_manager_builder_new_and_with_config
FNDA:3,_RNvMNtCs4ZEr9HMJnjR_13p2p_ai_agents7networkNtB2_14NetworkManager10is_running
FNDA:1,_RNvMNtCs4ZEr9HMJnjR_13p2p_ai_agents7networkNtB2_14NetworkManager12send_message
FNDA:0,_RNvMNtCs4ZEr9HMJnjR_13p2p_ai_agents7networkNtB2_14NetworkManager18add_connected_peer
FNDA:2,_RNvMNtCs4ZEr9HMJnjR_13p2p_ai_agents7networkNtB2_14NetworkManager19get_connected_peers
FNDA:7,_RNvMNtCs4ZEr9HMJnjR_13p2p_ai_agents7networkNtB2_14NetworkManager3new
FNDA:4,_RNvMNtCs4ZEr9HMJnjR_13p2p_ai_agents7networkNtB2_14NetworkManager5start
FNDA:5,_RNvMNtCs4ZEr9HMJnjR_13p2p_ai_agents7networkNtB2_14NetworkManager8shutdown
FNDA:1,_RNvMs1_NtCs4ZEr9HMJnjR_13p2p_ai_agents7networkNtB5_21NetworkManagerBuilder11with_config
FNDA:1,_RNvMs1_NtCs4ZEr9HMJnjR_13p2p_ai_agents7networkNtB5_21NetworkManagerBuilder3new
FNDA:1,_RNvMs3_NtCs4ZEr9HMJnjR_13p2p_ai_agents7networkNtB5_16MetricsCollector3new
FNDA:1,_RNvMs5_NtCs4ZEr9HMJnjR_13p2p_ai_agents7networkNtB5_15ResourceManager3new
FNDA:1,_RNvMs7_NtCs4ZEr9HMJnjR_13p2p_ai_agents7networkNtB5_13HealthMonitor3new
FNDA:1,_RNvMs9_NtCs4ZEr9HMJnjR_13p2p_ai_agents7networkNtB5_15SecurityManager3new
FNDA:1,_RNvMs_NtCs4ZEr9HMJnjR_13p2p_ai_agents7networkNtB4_13EventChannels3new
FNF:49
FNH:35
DA:176,8
DA:177,8
DA:178,8
DA:179,8
DA:180,8
DA:181,8
DA:182,8
DA:183,8
DA:184,8
DA:185,8
DA:186,8
DA:187,8
DA:191,1
DA:192,1
DA:193,1
DA:194,1
DA:195,1
DA:196,1
DA:197,1
DA:198,1
DA:199,1
DA:200,1
DA:201,1
DA:202,1
DA:203,1
DA:204,1
DA:207,0
DA:208,0
DA:209,0
DA:212,3
DA:213,3
DA:214,3
DA:217,4
DA:218,4
DA:219,0
DA:220,4
DA:221,4
DA:222,0
DA:223,4
DA:224,4
DA:225,4
DA:226,4
DA:229,5
DA:230,5
DA:231,1
DA:232,4
DA:233,4
DA:234,4
DA:235,5
DA:238,0
DA:239,0
DA:240,0
DA:243,0
DA:244,0
DA:245,0
DA:248,0
DA:249,0
DA:250,0
DA:251,0
DA:253,0
DA:254,0
DA:255,0
DA:256,0
DA:259,1
DA:260,1
DA:261,1
DA:264,4
DA:265,4
DA:266,4
DA:269,3
DA:270,3
DA:271,3
DA:273,3
DA:274,3
DA:275,3
DA:276,3
DA:277,3
DA:278,2
DA:279,2
DA:280,2
DA:281,2
DA:282,0
DA:284,3
DA:285,3
DA:288,0
DA:289,0
DA:290,0
DA:291,0
DA:294,2
DA:295,2
DA:296,2
DA:297,2
DA:300,0
DA:301,0
DA:302,0
DA:312,1
DA:313,1
DA:314,1
DA:318,0
DA:319,0
DA:320,0
DA:330,1
DA:331,1
DA:332,1
DA:335,1
DA:336,1
DA:337,1
DA:338,1
DA:342,0
DA:343,0
DA:344,0
DA:353,2
DA:354,2
DA:355,2
DA:356,2
DA:357,2
DA:359,2
DA:360,2
DA:361,2
DA:363,2
DA:364,2
DA:365,2
DA:369,0
DA:370,0
DA:371,0
DA:378,1
DA:379,1
DA:380,1
DA:384,0
DA:385,0
DA:386,0
DA:393,1
DA:394,1
DA:395,1
DA:399,0
DA:400,0
DA:401,0
DA:408,1
DA:409,1
DA:410,1
DA:414,0
DA:415,0
DA:416,0
DA:424,1
DA:425,1
DA:426,1
DA:429,1
DA:430,1
DA:431,1
DA:432,1
DA:433,1
DA:434,1
DA:435,1
DA:436,1
DA:437,1
DA:438,1
DA:439,1
DA:440,1
DA:441,1
DA:442,1
DA:443,1
DA:446,1
DA:447,1
DA:448,1
DA:451,1
DA:452,1
DA:453,1
DA:456,1
DA:457,1
DA:458,1
DA:461,1
DA:462,1
DA:463,1
DA:467,1
DA:468,1
DA:469,1
DA:470,1
DA:471,1
DA:472,1
DA:475,1
DA:476,1
DA:477,1
DA:478,1
DA:479,1
DA:480,1
DA:481,1
DA:482,1
DA:486,1
DA:487,1
DA:488,1
DA:489,1
DA:490,1
DA:491,1
DA:494,1
DA:495,1
DA:496,1
DA:497,1
DA:498,1
DA:499,1
DA:500,1
DA:501,1
DA:505,1
DA:506,1
DA:507,1
DA:508,1
DA:509,1
DA:510,1
DA:511,1
DA:512,1
DA:513,1
DA:514,1
DA:515,1
BRF:0
BRH:0
LF:220
LH:173
end_of_record
SF:/Users/renegeers/Source/p2p-ai-agents/src/network/peers.rs
FN:119,_RINvMNtNtCsazECCRb7Zym_13p2p_ai_agents7network5peersNtB3_9PeerCache14update_metricspEB7_
FN:122,_RNCINvMNtNtCsazECCRb7Zym_13p2p_ai_agents7network5peersNtB5_9PeerCache14update_metricspE0B9_
FN:89,_RNCNCNvMNtNtCsazECCRb7Zym_13p2p_ai_agents7network5peersNtB6_9PeerCache11upsert_peer00Ba_
FN:90,_RNCNCNvMNtNtCsazECCRb7Zym_13p2p_ai_agents7network5peersNtB6_9PeerCache11upsert_peer0s_0Ba_
FN:113,_RNCNCNvMNtNtCsazECCRb7Zym_13p2p_ai_agents7network5peersNtB6_9PeerCache19get_connected_peers00Ba_
FN:114,_RNCNCNvMNtNtCsazECCRb7Zym_13p2p_ai_agents7network5peersNtB6_9PeerCache19get_connected_peers0s_0Ba_
FN:99,_RNCNCNvMNtNtCsazECCRb7Zym_13p2p_ai_agents7network5peersNtB6_9PeerCache8get_peer00Ba_
FN:130,_RNCNvMNtNtCsazECCRb7Zym_13p2p_ai_agents7network5peersNtB4_9PeerCache10peer_count0B8_
FN:103,_RNCNvMNtNtCsazECCRb7Zym_13p2p_ai_agents7network5peersNtB4_9PeerCache11remove_peer0B8_
FN:83,_RNCNvMNtNtCsazECCRb7Zym_13p2p_ai_agents7network5peersNtB4_9PeerCache11upsert_peer0B8_
FN:109,_RNCNvMNtNtCsazECCRb7Zym_13p2p_ai_agents7network5peersNtB4_9PeerCache19get_connected_peers0B8_
FN:97,_RNCNvMNtNtCsazECCRb7Zym_13p2p_ai_agents7network5peersNtB4_9PeerCache8get_peer0B8_
FN:130,_RNvMNtNtCsazECCRb7Zym_13p2p_ai_agents7network5peersNtB2_9PeerCache10peer_count
FN:103,_RNvMNtNtCsazECCRb7Zym_13p2p_ai_agents7network5peersNtB2_9PeerCache11remove_peer
FN:83,_RNvMNtNtCsazECCRb7Zym_13p2p_ai_agents7network5peersNtB2_9PeerCache11upsert_peer
FN:109,_RNvMNtNtCsazECCRb7Zym_13p2p_ai_agents7network5peersNtB2_9PeerCache19get_connected_peers
FN:76,_RNvMNtNtCsazECCRb7Zym_13p2p_ai_agents7network5peersNtB2_9PeerCache3new
FN:97,_RNvMNtNtCsazECCRb7Zym_13p2p_ai_agents7network5peersNtB2_9PeerCache8get_peer
FN:137,_RNvXs_NtNtCsazECCRb7Zym_13p2p_ai_agents7network5peersNtB4_9PeerCacheNtNtCsaTRkahAGrLL_4core7default7Default7default
FN:137,_RNvXs_NtNtCs4ZEr9HMJnjR_13p2p_ai_agents7network5peersNtB4_9PeerCacheNtNtCsaTRkahAGrLL_4core7default7Default7default
FN:130,_RNvMNtNtCs4ZEr9HMJnjR_13p2p_ai_agents7network5peersNtB2_9PeerCache10peer_count
FN:103,_RNvMNtNtCs4ZEr9HMJnjR_13p2p_ai_agents7network5peersNtB2_9PeerCache11remove_peer
FN:83,_RNvMNtNtCs4ZEr9HMJnjR_13p2p_ai_agents7network5peersNtB2_9PeerCache11upsert_peer
FN:109,_RNvMNtNtCs4ZEr9HMJnjR_13p2p_ai_agents7network5peersNtB2_9PeerCache19get_connected_peers
FN:76,_RNvMNtNtCs4ZEr9HMJnjR_13p2p_ai_agents7network5peersNtB2_9PeerCache3new
FN:97,_RNvMNtNtCs4ZEr9HMJnjR_13p2p_ai_agents7network5peersNtB2_9PeerCache8get_peer
FN:146,_RNvNtNtNtCs4ZEr9HMJnjR_13p2p_ai_agents7network5peers5tests21create_test_peer_info
FN:252,_RNvNtNtNtCs4ZEr9HMJnjR_13p2p_ai_agents7network5peers5testss_21test_peer_cache_count
FN:204,_RNvNtNtNtCs4ZEr9HMJnjR_13p2p_ai_agents7network5peers5testss_22test_peer_cache_remove
FN:192,_RNvNtNtNtCs4ZEr9HMJnjR_13p2p_ai_agents7network5peers5testss_22test_peer_cache_upsert
FN:158,_RNvNtNtNtCs4ZEr9HMJnjR_13p2p_ai_agents7network5peers5testss_23test_peer_info_creation
FN:230,_RNvNtNtNtCs4ZEr9HMJnjR_13p2p_ai_agents7network5peers5testss_30test_peer_cache_metrics_update
FN:182,_RNvNtNtNtCs4ZEr9HMJnjR_13p2p_ai_agents7network5peers5testss_31test_connection_status_variants
FN:216,_RNvNtNtNtCs4ZEr9HMJnjR_13p2p_ai_agents7network5peers5testss_31test_peer_cache_connected_peers
FN:119,_RINvMNtNtCs4ZEr9HMJnjR_13p2p_ai_agents7network5peersNtB3_9PeerCache14update_metricsNCNCNvNtB3_5testss_30test_peer_cache_metrics_update00EB7_
FN:122,_RNCINvMNtNtCs4ZEr9HMJnjR_13p2p_ai_agents7network5peersNtB5_9PeerCache14update_metricsNCNCNvNtB5_5testss_30test_peer_cache_metrics_update00E0B9_
FN:89,_RNCNCNvMNtNtCs4ZEr9HMJnjR_13p2p_ai_agents7network5peersNtB6_9PeerCache11upsert_peer00Ba_
FN:90,_RNCNCNvMNtNtCs4ZEr9HMJnjR_13p2p_ai_agents7network5peersNtB6_9PeerCache11upsert_peer0s_0Ba_
FN:113,_RNCNCNvMNtNtCs4ZEr9HMJnjR_13p2p_ai_agents7network5peersNtB6_9PeerCache19get_connected_peers00Ba_
FN:114,_RNCNCNvMNtNtCs4ZEr9HMJnjR_13p2p_ai_agents7network5peersNtB6_9PeerCache19get_connected_peers0s_0Ba_
FN:99,_RNCNCNvMNtNtCs4ZEr9HMJnjR_13p2p_ai_agents7network5peersNtB6_9PeerCache8get_peer00Ba_
FN:130,_RNCNvMNtNtCs4ZEr9HMJnjR_13p2p_ai_agents7network5peersNtB4_9PeerCache10peer_count0B8_
FN:103,_RNCNvMNtNtCs4ZEr9HMJnjR_13p2p_ai_agents7network5peersNtB4_9PeerCache11remove_peer0B8_
FN:83,_RNCNvMNtNtCs4ZEr9HMJnjR_13p2p_ai_agents7network5peersNtB4_9PeerCache11upsert_peer0B8_
FN:109,_RNCNvMNtNtCs4ZEr9HMJnjR_13p2p_ai_agents7network5peersNtB4_9PeerCache19get_connected_peers0B8_
FN:97,_RNCNvMNtNtCs4ZEr9HMJnjR_13p2p_ai_agents7network5peersNtB4_9PeerCache8get_peer0B8_
FN:238,_RNCNCNvNtNtNtCs4ZEr9HMJnjR_13p2p_ai_agents7network5peers5testss_30test_peer_cache_metrics_update00Bb_
FN:252,_RNCNvNtNtNtCs4ZEr9HMJnjR_13p2p_ai_agents7network5peers5testss_21test_peer_cache_count0B9_
FN:204,_RNCNvNtNtNtCs4ZEr9HMJnjR_13p2p_ai_agents7network5peers5testss_22test_peer_cache_remove0B9_
FN:192,_RNCNvNtNtNtCs4ZEr9HMJnjR_13p2p_ai_agents7network5peers5testss_22test_peer_cache_upsert0B9_
FN:230,_RNCNvNtNtNtCs4ZEr9HMJnjR_13p2p_ai_agents7network5peers5testss_30test_peer_cache_metrics_update0B9_
FN:216,_RNCNvNtNtNtCs4ZEr9HMJnjR_13p2p_ai_agents7network5peers5testss_31test_peer_cache_connected_peers0B9_
FNDA:0,_RINvMNtNtCsazECCRb7Zym_13p2p_ai_agents7network5peersNtB3_9PeerCache14update_metricspEB7_
FNDA:0,_RNCINvMNtNtCsazECCRb7Zym_13p2p_ai_agents7network5peersNtB5_9PeerCache14update_metricspE0B9_
FNDA:0,_RNCNCNvMNtNtCsazECCRb7Zym_13p2p_ai_agents7network5peersNtB6_9PeerCache11upsert_peer00Ba_
FNDA:0,_RNCNCNvMNtNtCsazECCRb7Zym_13p2p_ai_agents7network5peersNtB6_9PeerCache11upsert_peer0s_0Ba_
FNDA:0,_RNCNCNvMNtNtCsazECCRb7Zym_13p2p_ai_agents7network5peersNtB6_9PeerCache19get_connected_peers00Ba_
FNDA:0,_RNCNCNvMNtNtCsazECCRb7Zym_13p2p_ai_agents7network5peersNtB6_9PeerCache19get_connected_peers0s_0Ba_
FNDA:0,_RNCNCNvMNtNtCsazECCRb7Zym_13p2p_ai_agents7network5peersNtB6_9PeerCache8get_peer00Ba_
FNDA:0,_RNCNvMNtNtCsazECCRb7Zym_13p2p_ai_agents7network5peersNtB4_9PeerCache10peer_count0B8_
FNDA:0,_RNCNvMNtNtCsazECCRb7Zym_13p2p_ai_agents7network5peersNtB4_9PeerCache11remove_peer0B8_
FNDA:0,_RNCNvMNtNtCsazECCRb7Zym_13p2p_ai_agents7network5peersNtB4_9PeerCache11upsert_peer0B8_
FNDA:0,_RNCNvMNtNtCsazECCRb7Zym_13p2p_ai_agents7network5peersNtB4_9PeerCache19get_connected_peers0B8_
FNDA:0,_RNCNvMNtNtCsazECCRb7Zym_13p2p_ai_agents7network5peersNtB4_9PeerCache8get_peer0B8_
FNDA:0,_RNvMNtNtCsazECCRb7Zym_13p2p_ai_agents7network5peersNtB2_9PeerCache10peer_count
FNDA:0,_RNvMNtNtCsazECCRb7Zym_13p2p_ai_agents7network5peersNtB2_9PeerCache11remove_peer
FNDA:0,_RNvMNtNtCsazECCRb7Zym_13p2p_ai_agents7network5peersNtB2_9PeerCache11upsert_peer
FNDA:0,_RNvMNtNtCsazECCRb7Zym_13p2p_ai_agents7network5peersNtB2_9PeerCache19get_connected_peers
FNDA:0,_RNvMNtNtCsazECCRb7Zym_13p2p_ai_agents7network5peersNtB2_9PeerCache3new
FNDA:0,_RNvMNtNtCsazECCRb7Zym_13p2p_ai_agents7network5peersNtB2_9PeerCache8get_peer
FNDA:0,_RNvXs_NtNtCsazECCRb7Zym_13p2p_ai_agents7network5peersNtB4_9PeerCacheNtNtCsaTRkahAGrLL_4core7default7Default7default
FNDA:0,_RNvXs_NtNtCs4ZEr9HMJnjR_13p2p_ai_agents7network5peersNtB4_9PeerCacheNtNtCsaTRkahAGrLL_4core7default7Default7default
FNDA:2,_RNvMNtNtCs4ZEr9HMJnjR_13p2p_ai_agents7network5peersNtB2_9PeerCache10peer_count
FNDA:1,_RNvMNtNtCs4ZEr9HMJnjR_13p2p_ai_agents7network5peersNtB2_9PeerCache11remove_peer
FNDA:7,_RNvMNtNtCs4ZEr9HMJnjR_13p2p_ai_agents7network5peersNtB2_9PeerCache11upsert_peer
FNDA:1,_RNvMNtNtCs4ZEr9HMJnjR_13p2p_ai_agents7network5peersNtB2_9PeerCache19get_connected_peers
FNDA:5,_RNvMNtNtCs4ZEr9HMJnjR_13p2p_ai_agents7network5peersNtB2_9PeerCache3new
FNDA:2,_RNvMNtNtCs4ZEr9HMJnjR_13p2p_ai_agents7network5peersNtB2_9PeerCache8get_peer
FNDA:7,_RNvNtNtNtCs4ZEr9HMJnjR_13p2p_ai_agents7network5peers5tests21create_test_peer_info
FNDA:1,_RNvNtNtNtCs4ZEr9HMJnjR_13p2p_ai_agents7network5peers5testss_21test_peer_cache_count
FNDA:1,_RNvNtNtNtCs4ZEr9HMJnjR_13p2p_ai_agents7network5peers5testss_22test_peer_cache_remove
FNDA:1,_RNvNtNtNtCs4ZEr9HMJnjR_13p2p_ai_agents7network5peers5testss_22test_peer_cache_upsert
FNDA:1,_RNvNtNtNtCs4ZEr9HMJnjR_13p2p_ai_agents7network5peers5testss_23test_peer_info_creation
FNDA:1,_RNvNtNtNtCs4ZEr9HMJnjR_13p2p_ai_agents7network5peers5testss_30test_peer_cache_metrics_update
FNDA:1,_RNvNtNtNtCs4ZEr9HMJnjR_13p2p_ai_agents7network5peers5testss_31test_connection_status_variants
FNDA:1,_RNvNtNtNtCs4ZEr9HMJnjR_13p2p_ai_agents7network5peers5testss_31test_peer_cache_connected_peers
FNDA:1,_RINvMNtNtCs4ZEr9HMJnjR_13p2p_ai_agents7network5peersNtB3_9PeerCache14update_metricsNCNCNvNtB3_5testss_30test_peer_cache_metrics_update00EB7_
FNDA:1,_RNCINvMNtNtCs4ZEr9HMJnjR_13p2p_ai_agents7network5peersNtB5_9PeerCache14update_metricsNCNCNvNtB5_5testss_30test_peer_cache_metrics_update00E0B9_
FNDA:0,_RNCNCNvMNtNtCs4ZEr9HMJnjR_13p2p_ai_agents7network5peersNtB6_9PeerCache11upsert_peer00Ba_
FNDA:7,_RNCNCNvMNtNtCs4ZEr9HMJnjR_13p2p_ai_agents7network5peersNtB6_9PeerCache11upsert_peer0s_0Ba_
FNDA:2,_RNCNCNvMNtNtCs4ZEr9HMJnjR_13p2p_ai_agents7network5peersNtB6_9PeerCache19get_connected_peers00Ba_
FNDA:1,_RNCNCNvMNtNtCs4ZEr9HMJnjR_13p2p_ai_agents7network5peersNtB6_9PeerCache19get_connected_peers0s_0Ba_
FNDA:1,_RNCNCNvMNtNtCs4ZEr9HMJnjR_13p2p_ai_agents7network5peersNtB6_9PeerCache8get_peer00Ba_
FNDA:2,_RNCNvMNtNtCs4ZEr9HMJnjR_13p2p_ai_agents7network5peersNtB4_9PeerCache10peer_count0B8_
FNDA:1,_RNCNvMNtNtCs4ZEr9HMJnjR_13p2p_ai_agents7network5peersNtB4_9PeerCache11remove_peer0B8_
FNDA:7,_RNCNvMNtNtCs4ZEr9HMJnjR_13p2p_ai_agents7network5peersNtB4_9PeerCache11upsert_peer0B8_
FNDA:1,_RNCNvMNtNtCs4ZEr9HMJnjR_13p2p_ai_agents7network5peersNtB4_9PeerCache19get_connected_peers0B8_
FNDA:2,_RNCNvMNtNtCs4ZEr9HMJnjR_13p2p_ai_agents7network5peersNtB4_9PeerCache8get_peer0B8_
FNDA:1,_RNCNCNvNtNtNtCs4ZEr9HMJnjR_13p2p_ai_agents7network5peers5testss_30test_peer_cache_metrics_update00Bb_
FNDA:1,_RNCNvNtNtNtCs4ZEr9HMJnjR_13p2p_ai_agents7network5peers5testss_21test_peer_cache_count0B9_
FNDA:1,_RNCNvNtNtNtCs4ZEr9HMJnjR_13p2p_ai_agents7network5peers5testss_22test_peer_cache_remove0B9_
FNDA:1,_RNCNvNtNtNtCs4ZEr9HMJnjR_13p2p_ai_agents7network5peers5testss_22test_peer_cache_upsert0B9_
FNDA:1,_RNCNvNtNtNtCs4ZEr9HMJnjR_13p2p_ai_agents7network5peers5testss_30test_peer_cache_metrics_update0B9_
FNDA:1,_RNCNvNtNtNtCs4ZEr9HMJnjR_13p2p_ai_agents7network5peers5testss_31test_peer_cache_connected_peers0B9_
FNF:33
FNH:31
DA:76,5
DA:77,5
DA:78,5
DA:79,5
DA:80,5
DA:83,7
DA:84,7
DA:85,7
DA:87,7
DA:88,7
DA:89,7
DA:90,7
DA:91,7
DA:92,7
DA:93,7
DA:94,7
DA:97,2
DA:98,2
DA:99,2
DA:100,2
DA:103,1
DA:104,1
DA:105,1
DA:106,1
DA:109,1
DA:110,1
DA:111,1
DA:112,1
DA:113,2
DA:114,1
DA:115,1
DA:116,1
DA:119,1
DA:120,1
DA:121,1
DA:122,1
DA:123,1
DA:124,1
DA:125,1
DA:126,1
DA:127,1
DA:130,2
DA:131,2
DA:132,2
DA:133,2
DA:137,0
DA:138,0
DA:139,0
DA:146,7
DA:147,7
DA:148,7
DA:149,7
DA:150,7
DA:151,7
DA:152,7
DA:153,7
DA:154,7
DA:155,7
DA:158,1
DA:159,1
DA:160,1
DA:161,1
DA:162,1
DA:163,1
DA:164,1
DA:165,1
DA:166,1
DA:167,1
DA:168,1
DA:169,1
DA:170,1
DA:171,1
DA:172,1
DA:173,1
DA:174,1
DA:175,1
DA:176,1
DA:177,1
DA:178,1
DA:179,1
DA:182,1
DA:183,1
DA:184,1
DA:185,1
DA:186,1
DA:187,1
DA:188,1
DA:189,1
DA:192,1
DA:193,1
DA:194,1
DA:195,1
DA:196,1
DA:197,1
DA:198,1
DA:199,1
DA:200,1
DA:201,1
DA:204,1
DA:205,1
DA:206,1
DA:207,1
DA:208,1
DA:209,1
DA:210,1
DA:211,1
DA:212,1
DA:213,1
DA:216,1
DA:217,1
DA:218,1
DA:219,1
DA:220,1
DA:221,1
DA:222,1
DA:223,1
DA:224,1
DA:225,1
DA:226,1
DA:227,1
DA:230,1
DA:231,1
DA:232,1
DA:233,1
DA:234,1
DA:235,1
DA:236,1
DA:237,1
DA:238,1
DA:239,1
DA:240,1
DA:241,1
DA:242,1
DA:243,1
DA:244,1
DA:245,1
DA:246,1
DA:247,1
DA:248,1
DA:249,1
DA:252,1
DA:253,1
DA:254,1
DA:255,1
DA:256,1
DA:257,1
DA:258,1
DA:259,1
DA:260,1
BRF:0
BRH:0
LF:211
LH:207
end_of_record
SF:/Users/renegeers/Source/p2p-ai-agents/src/network/service.rs
FN:191,_RINvMs0_NtNtCsazECCRb7Zym_13p2p_ai_agents7network7serviceNtB6_18NetworkServiceImpl12update_statsNCNCNvXsa_B6_BT_NtNtNtBa_4core8services7Service14handle_request0s0_0EBa_
FN:191,_RINvMs0_NtNtCsazECCRb7Zym_13p2p_ai_agents7network7serviceNtB6_18NetworkServiceImpl12update_statsNCNCNvXsa_B6_BT_NtNtNtBa_4core8services7Service14handle_request0s1_0EBa_
FN:191,_RINvMs0_NtNtCsazECCRb7Zym_13p2p_ai_agents7network7serviceNtB6_18NetworkServiceImpl12update_statsNCNCNvXsa_B6_BT_NtNtNtBa_4core8services7Service14handle_request0s3_0EBa_
FN:191,_RINvMs0_NtNtCsazECCRb7Zym_13p2p_ai_agents7network7serviceNtB6_18NetworkServiceImpl12update_statsNCNCNvXsa_B6_BT_NtNtNtBa_4core8services7Service14handle_request0s4_0EBa_
FN:194,_RNCINvMs0_NtNtCsazECCRb7Zym_13p2p_ai_agents7network7serviceNtB8_18NetworkServiceImpl12update_statsNCNCNvXsa_B8_BV_NtNtNtBc_4core8services7Service14handle_request0s0_0E0Bc_
FN:194,_RNCINvMs0_NtNtCsazECCRb7Zym_13p2p_ai_agents7network7serviceNtB8_18NetworkServiceImpl12update_statsNCNCNvXsa_B8_BV_NtNtNtBc_4core8services7Service14handle_request0s1_0E0Bc_
FN:194,_RNCINvMs0_NtNtCsazECCRb7Zym_13p2p_ai_agents7network7serviceNtB8_18NetworkServiceImpl12update_statsNCNCNvXsa_B8_BV_NtNtNtBc_4core8services7Service14handle_request0s3_0E0Bc_
FN:194,_RNCINvMs0_NtNtCsazECCRb7Zym_13p2p_ai_agents7network7serviceNtB8_18NetworkServiceImpl12update_statsNCNCNvXsa_B8_BV_NtNtNtBc_4core8services7Service14handle_request0s4_0E0Bc_
FN:407,_RNCNCNCNvXsa_NtNtCsazECCRb7Zym_13p2p_ai_agents7network7serviceNtBb_18NetworkServiceImplNtNtNtBf_4core8services7Service14handle_request0s_00Bf_
FN:405,_RNCNCNvXsa_NtNtCsazECCRb7Zym_13p2p_ai_agents7network7serviceNtB9_18NetworkServiceImplNtNtNtBd_4core8services7Service14handle_request00Bd_
FN:426,_RNCNCNvXsa_NtNtCsazECCRb7Zym_13p2p_ai_agents7network7serviceNtB9_18NetworkServiceImplNtNtNtBd_4core8services7Service14handle_request0s0_0Bd_
FN:448,_RNCNCNvXsa_NtNtCsazECCRb7Zym_13p2p_ai_agents7network7serviceNtB9_18NetworkServiceImplNtNtNtBd_4core8services7Service14handle_request0s1_0Bd_
FN:456,_RNCNCNvXsa_NtNtCsazECCRb7Zym_13p2p_ai_agents7network7serviceNtB9_18NetworkServiceImplNtNtNtBd_4core8services7Service14handle_request0s2_0Bd_
FN:465,_RNCNCNvXsa_NtNtCsazECCRb7Zym_13p2p_ai_agents7network7serviceNtB9_18NetworkServiceImplNtNtNtBd_4core8services7Service14handle_request0s3_0Bd_
FN:476,_RNCNCNvXsa_NtNtCsazECCRb7Zym_13p2p_ai_agents7network7serviceNtB9_18NetworkServiceImplNtNtNtBd_4core8services7Service14handle_request0s4_0Bd_
FN:406,_RNCNCNvXsa_NtNtCsazECCRb7Zym_13p2p_ai_agents7network7serviceNtB9_18NetworkServiceImplNtNtNtBd_4core8services7Service14handle_request0s_0Bd_
FN:186,_RNCNvMs0_NtNtCsazECCRb7Zym_13p2p_ai_agents7network7serviceNtB7_18NetworkServiceImpl21record_network_metric0Bb_
FN:582,_RNCNvMs1_NtNtCsazECCRb7Zym_13p2p_ai_agents7network7serviceNtB7_25NetworkServiceConstructor19create_and_register0Bb_
FN:280,_RNCNvXsa_NtNtCsazECCRb7Zym_13p2p_ai_agents7network7serviceNtB7_18NetworkServiceImplNtNtNtBb_4core8services7Service10initialize0Bb_
FN:397,_RNCNvXsa_NtNtCsazECCRb7Zym_13p2p_ai_agents7network7serviceNtB7_18NetworkServiceImplNtNtNtBb_4core8services7Service14handle_request0Bb_
FN:329,_RNCNvXsa_NtNtCsazECCRb7Zym_13p2p_ai_agents7network7serviceNtB7_18NetworkServiceImplNtNtNtBb_4core8services7Service4stop0Bb_
FN:311,_RNCNvXsa_NtNtCsazECCRb7Zym_13p2p_ai_agents7network7serviceNtB7_18NetworkServiceImplNtNtNtBb_4core8services7Service5start0Bb_
FN:363,_RNCNvXsa_NtNtCsazECCRb7Zym_13p2p_ai_agents7network7serviceNtB7_18NetworkServiceImplNtNtNtBb_4core8services7Service6health0Bb_
FN:351,_RNCNvXsa_NtNtCsazECCRb7Zym_13p2p_ai_agents7network7serviceNtB7_18NetworkServiceImplNtNtNtBb_4core8services7Service6status0Bb_
FN:547,_RNCNvXsb_NtNtCsazECCRb7Zym_13p2p_ai_agents7network7serviceNtB7_18NetworkServiceImplNtB7_17NetworkServiceExt12send_message0Bb_
FN:529,_RNCNvXsb_NtNtCsazECCRb7Zym_13p2p_ai_agents7network7serviceNtB7_18NetworkServiceImplNtB7_17NetworkServiceExt17broadcast_message0Bb_
FN:524,_RNCNvXsb_NtNtCsazECCRb7Zym_13p2p_ai_agents7network7serviceNtB7_18NetworkServiceImplNtB7_17NetworkServiceExt17get_network_stats0Bb_
FN:186,_RNvMs0_NtNtCsazECCRb7Zym_13p2p_ai_agents7network7serviceNtB5_18NetworkServiceImpl21record_network_metric
FN:217,_RNvMs0_NtNtCsazECCRb7Zym_13p2p_ai_agents7network7serviceNtB5_18NetworkServiceImpl34network_request_to_service_request
FN:241,_RNvMs0_NtNtCsazECCRb7Zym_13p2p_ai_agents7network7serviceNtB5_18NetworkServiceImpl36network_response_to_service_response
FN:156,_RNvMs0_NtNtCsazECCRb7Zym_13p2p_ai_agents7network7serviceNtB5_18NetworkServiceImpl3new
FN:176,_RNvMs0_NtNtCsazECCRb7Zym_13p2p_ai_agents7network7serviceNtB5_18NetworkServiceImpl4name
FN:181,_RNvMs0_NtNtCsazECCRb7Zym_13p2p_ai_agents7network7serviceNtB5_18NetworkServiceImpl7version
FN:579,_RNvMs1_NtNtCsazECCRb7Zym_13p2p_ai_agents7network7serviceNtB5_25NetworkServiceConstructor19create_and_register
FN:569,_RNvMs1_NtNtCsazECCRb7Zym_13p2p_ai_agents7network7serviceNtB5_25NetworkServiceConstructor3new
FN:574,_RNvMs1_NtNtCsazECCRb7Zym_13p2p_ai_agents7network7serviceNtB5_25NetworkServiceConstructor5build
FN:37,_RNvXNtNtCsazECCRb7Zym_13p2p_ai_agents7network7serviceNtB2_20NetworkServiceConfigNtNtCsaTRkahAGrLL_4core7default7Default7default
FN:309,_RNvXsa_NtNtCsazECCRb7Zym_13p2p_ai_agents7network7serviceNtB5_18NetworkServiceImplNtNtNtB9_4core8services7Service10initialize
FN:502,_RNvXsa_NtNtCsazECCRb7Zym_13p2p_ai_agents7network7serviceNtB5_18NetworkServiceImplNtNtNtB9_4core8services7Service14handle_request
FN:268,_RNvXsa_NtNtCsazECCRb7Zym_13p2p_ai_agents7network7serviceNtB5_18NetworkServiceImplNtNtNtB9_4core8services7Service2id
FN:272,_RNvXsa_NtNtCsazECCRb7Zym_13p2p_ai_agents7network7serviceNtB5_18NetworkServiceImplNtNtNtB9_4core8services7Service4name
FN:349,_RNvXsa_NtNtCsazECCRb7Zym_13p2p_ai_agents7network7serviceNtB5_18NetworkServiceImplNtNtNtB9_4core8services7Service4stop
FN:327,_RNvXsa_NtNtCsazECCRb7Zym_13p2p_ai_agents7network7serviceNtB5_18NetworkServiceImplNtNtNtB9_4core8services7Service5start
FN:392,_RNvXsa_NtNtCsazECCRb7Zym_13p2p_ai_agents7network7serviceNtB5_18NetworkServiceImplNtNtNtB9_4core8services7Service6health
FN:361,_RNvXsa_NtNtCsazECCRb7Zym_13p2p_ai_agents7network7serviceNtB5_18NetworkServiceImplNtNtNtB9_4core8services7Service6status
FN:276,_RNvXsa_NtNtCsazECCRb7Zym_13p2p_ai_agents7network7serviceNtB5_18NetworkServiceImplNtNtNtB9_4core8services7Service7version
FN:559,_RNvXsb_NtNtCsazECCRb7Zym_13p2p_ai_agents7network7serviceNtB5_18NetworkServiceImplNtB5_17NetworkServiceExt12send_message
FN:541,_RNvXsb_NtNtCsazECCRb7Zym_13p2p_ai_agents7network7serviceNtB5_18NetworkServiceImplNtB5_17NetworkServiceExt17broadcast_message
FN:527,_RNvXsb_NtNtCsazECCRb7Zym_13p2p_ai_agents7network7serviceNtB5_18NetworkServiceImplNtB5_17NetworkServiceExt17get_network_stats
FN:103,_RNvXs_NtNtCsazECCRb7Zym_13p2p_ai_agents7network7serviceNtNtNtB8_4core8services12ServiceErrorINtNtCsaTRkahAGrLL_4core7convert4FromNtB6_12NetworkErrorE4from
FN:736,_RNCNvNtNtNtCs4ZEr9HMJnjR_13p2p_ai_agents7network7service5testss_25test_service_registration0B9_
FN:706,_RNCNvNtNtNtCs4ZEr9HMJnjR_13p2p_ai_agents7network7service5testss_30test_network_service_broadcast0B9_
FN:624,_RNCNvNtNtNtCs4ZEr9HMJnjR_13p2p_ai_agents7network7service5testss_30test_network_service_lifecycle0B9_
FN:726,_RNCNvNtNtNtCs4ZEr9HMJnjR_13p2p_ai_agents7network7service5testss_32test_network_service_constructor0B9_
FN:685,_RNCNvNtNtNtCs4ZEr9HMJnjR_13p2p_ai_agents7network7service5testss_33test_network_service_send_message0B9_
FN:647,_RNCNvNtNtNtCs4ZEr9HMJnjR_13p2p_ai_agents7network7service5testss_37test_network_service_request_handling0B9_
FN:524,_RNCNvXsb_NtNtCs4ZEr9HMJnjR_13p2p_ai_agents7network7serviceNtB7_18NetworkServiceImplNtB7_17NetworkServiceExt17get_network_stats0Bb_
FN:37,_RNvXNtNtCs4ZEr9HMJnjR_13p2p_ai_agents7network7serviceNtB2_20NetworkServiceConfigNtNtCsaTRkahAGrLL_4core7default7Default7default
FN:527,_RNvXsb_NtNtCs4ZEr9HMJnjR_13p2p_ai_agents7network7serviceNtB5_18NetworkServiceImplNtB5_17NetworkServiceExt17get_network_stats
FN:103,_RNvXs_NtNtCs4ZEr9HMJnjR_13p2p_ai_agents7network7serviceNtNtNtB8_4core8services12ServiceErrorINtNtCsaTRkahAGrLL_4core7convert4FromNtB6_12NetworkErrorE4from
FN:191,_RINvMs0_NtNtCs4ZEr9HMJnjR_13p2p_ai_agents7network7serviceNtB6_18NetworkServiceImpl12update_statsNCNCNvXsa_B6_BT_NtNtNtBa_4core8services7Service14handle_request0s0_0EBa_
FN:191,_RINvMs0_NtNtCs4ZEr9HMJnjR_13p2p_ai_agents7network7serviceNtB6_18NetworkServiceImpl12update_statsNCNCNvXsa_B6_BT_NtNtNtBa_4core8services7Service14handle_request0s1_0EBa_
FN:191,_RINvMs0_NtNtCs4ZEr9HMJnjR_13p2p_ai_agents7network7serviceNtB6_18NetworkServiceImpl12update_statsNCNCNvXsa_B6_BT_NtNtNtBa_4core8services7Service14handle_request0s3_0EBa_
FN:191,_RINvMs0_NtNtCs4ZEr9HMJnjR_13p2p_ai_agents7network7serviceNtB6_18NetworkServiceImpl12update_statsNCNCNvXsa_B6_BT_NtNtNtBa_4core8services7Service14handle_request0s4_0EBa_
FN:194,_RNCINvMs0_NtNtCs4ZEr9HMJnjR_13p2p_ai_agents7network7serviceNtB8_18NetworkServiceImpl12update_statsNCNCNvXsa_B8_BV_NtNtNtBc_4core8services7Service14handle_request0s0_0E0Bc_
FN:194,_RNCINvMs0_NtNtCs4ZEr9HMJnjR_13p2p_ai_agents7network7serviceNtB8_18NetworkServiceImpl12update_statsNCNCNvXsa_B8_BV_NtNtNtBc_4core8services7Service14handle_request0s1_0E0Bc_
FN:194,_RNCINvMs0_NtNtCs4ZEr9HMJnjR_13p2p_ai_agents7network7serviceNtB8_18NetworkServiceImpl12update_statsNCNCNvXsa_B8_BV_NtNtNtBc_4core8services7Service14handle_request0s3_0E0Bc_
FN:194,_RNCINvMs0_NtNtCs4ZEr9HMJnjR_13p2p_ai_agents7network7serviceNtB8_18NetworkServiceImpl12update_statsNCNCNvXsa_B8_BV_NtNtNtBc_4core8services7Service14handle_request0s4_0E0Bc_
FN:407,_RNCNCNCNvXsa_NtNtCs4ZEr9HMJnjR_13p2p_ai_agents7network7serviceNtBb_18NetworkServiceImplNtNtNtBf_4core8services7Service14handle_request0s_00Bf_
FN:405,_RNCNCNvXsa_NtNtCs4ZEr9HMJnjR_13p2p_ai_agents7network7serviceNtB9_18NetworkServiceImplNtNtNtBd_4core8services7Service14handle_request00Bd_
FN:426,_RNCNCNvXsa_NtNtCs4ZEr9HMJnjR_13p2p_ai_agents7network7serviceNtB9_18NetworkServiceImplNtNtNtBd_4core8services7Service14handle_request0s0_0Bd_
FN:448,_RNCNCNvXsa_NtNtCs4ZEr9HMJnjR_13p2p_ai_agents7network7serviceNtB9_18NetworkServiceImplNtNtNtBd_4core8services7Service14handle_request0s1_0Bd_
FN:456,_RNCNCNvXsa_NtNtCs4ZEr9HMJnjR_13p2p_ai_agents7network7serviceNtB9_18NetworkServiceImplNtNtNtBd_4core8services7Service14handle_request0s2_0Bd_
FN:465,_RNCNCNvXsa_NtNtCs4ZEr9HMJnjR_13p2p_ai_agents7network7serviceNtB9_18NetworkServiceImplNtNtNtBd_4core8services7Service14handle_request0s3_0Bd_
FN:476,_RNCNCNvXsa_NtNtCs4ZEr9HMJnjR_13p2p_ai_agents7network7serviceNtB9_18NetworkServiceImplNtNtNtBd_4core8services7Service14handle_request0s4_0Bd_
FN:406,_RNCNCNvXsa_NtNtCs4ZEr9HMJnjR_13p2p_ai_agents7network7serviceNtB9_18NetworkServiceImplNtNtNtBd_4core8services7Service14handle_request0s_0Bd_
FN:186,_RNCNvMs0_NtNtCs4ZEr9HMJnjR_13p2p_ai_agents7network7serviceNtB7_18NetworkServiceImpl21record_network_metric0Bb_
FN:582,_RNCNvMs1_NtNtCs4ZEr9HMJnjR_13p2p_ai_agents7network7serviceNtB7_25NetworkServiceConstructor19create_and_register0Bb_
FN:280,_RNCNvXsa_NtNtCs4ZEr9HMJnjR_13p2p_ai_agents7network7serviceNtB7_18NetworkServiceImplNtNtNtBb_4core8services7Service10initialize0Bb_
FN:397,_RNCNvXsa_NtNtCs4ZEr9HMJnjR_13p2p_ai_agents7network7serviceNtB7_18NetworkServiceImplNtNtNtBb_4core8services7Service14handle_request0Bb_
FN:329,_RNCNvXsa_NtNtCs4ZEr9HMJnjR_13p2p_ai_agents7network7serviceNtB7_18NetworkServiceImplNtNtNtBb_4core8services7Service4stop0Bb_
FN:311,_RNCNvXsa_NtNtCs4ZEr9HMJnjR_13p2p_ai_agents7network7serviceNtB7_18NetworkServiceImplNtNtNtBb_4core8services7Service5start0Bb_
FN:363,_RNCNvXsa_NtNtCs4ZEr9HMJnjR_13p2p_ai_agents7network7serviceNtB7_18NetworkServiceImplNtNtNtBb_4core8services7Service6health0Bb_
FN:351,_RNCNvXsa_NtNtCs4ZEr9HMJnjR_13p2p_ai_agents7network7serviceNtB7_18NetworkServiceImplNtNtNtBb_4core8services7Service6status0Bb_
FN:547,_RNCNvXsb_NtNtCs4ZEr9HMJnjR_13p2p_ai_agents7network7serviceNtB7_18NetworkServiceImplNtB7_17NetworkServiceExt12send_message0Bb_
FN:529,_RNCNvXsb_NtNtCs4ZEr9HMJnjR_13p2p_ai_agents7network7serviceNtB7_18NetworkServiceImplNtB7_17NetworkServiceExt17broadcast_message0Bb_
FN:186,_RNvMs0_NtNtCs4ZEr9HMJnjR_13p2p_ai_agents7network7serviceNtB5_18NetworkServiceImpl21record_network_metric
FN:217,_RNvMs0_NtNtCs4ZEr9HMJnjR_13p2p_ai_agents7network7serviceNtB5_18NetworkServiceImpl34network_request_to_service_request
FN:241,_RNvMs0_NtNtCs4ZEr9HMJnjR_13p2p_ai_agents7network7serviceNtB5_18NetworkServiceImpl36network_response_to_service_response
FN:156,_RNvMs0_NtNtCs4ZEr9HMJnjR_13p2p_ai_agents7network7serviceNtB5_18NetworkServiceImpl3new
FN:176,_RNvMs0_NtNtCs4ZEr9HMJnjR_13p2p_ai_agents7network7serviceNtB5_18NetworkServiceImpl4name
FN:181,_RNvMs0_NtNtCs4ZEr9HMJnjR_13p2p_ai_agents7network7serviceNtB5_18NetworkServiceImpl7version
FN:579,_RNvMs1_NtNtCs4ZEr9HMJnjR_13p2p_ai_agents7network7serviceNtB5_25NetworkServiceConstructor19create_and_register
FN:569,_RNvMs1_NtNtCs4ZEr9HMJnjR_13p2p_ai_agents7network7serviceNtB5_25NetworkServiceConstructor3new
FN:574,_RNvMs1_NtNtCs4ZEr9HMJnjR_13p2p_ai_agents7network7serviceNtB5_25NetworkServiceConstructor5build
FN:309,_RNvXsa_NtNtCs4ZEr9HMJnjR_13p2p_ai_agents7network7serviceNtB5_18NetworkServiceImplNtNtNtB9_4core8services7Service10initialize
FN:502,_RNvXsa_NtNtCs4ZEr9HMJnjR_13p2p_ai_agents7network7serviceNtB5_18NetworkServiceImplNtNtNtB9_4core8services7Service14handle_request
FN:268,_RNvXsa_NtNtCs4ZEr9HMJnjR_13p2p_ai_agents7network7serviceNtB5_18NetworkServiceImplNtNtNtB9_4core8services7Service2id
FN:272,_RNvXsa_NtNtCs4ZEr9HMJnjR_13p2p_ai_agents7network7serviceNtB5_18NetworkServiceImplNtNtNtB9_4core8services7Service4name
FN:349,_RNvXsa_NtNtCs4ZEr9HMJnjR_13p2p_ai_agents7network7serviceNtB5_18NetworkServiceImplNtNtNtB9_4core8services7Service4stop
FN:327,_RNvXsa_NtNtCs4ZEr9HMJnjR_13p2p_ai_agents7network7serviceNtB5_18NetworkServiceImplNtNtNtB9_4core8services7Service5start
FN:392,_RNvXsa_NtNtCs4ZEr9HMJnjR_13p2p_ai_agents7network7serviceNtB5_18NetworkServiceImplNtNtNtB9_4core8services7Service6health
FN:361,_RNvXsa_NtNtCs4ZEr9HMJnjR_13p2p_ai_agents7network7serviceNtB5_18NetworkServiceImplNtNtNtB9_4core8services7Service6status
FN:276,_RNvXsa_NtNtCs4ZEr9HMJnjR_13p2p_ai_agents7network7serviceNtB5_18NetworkServiceImplNtNtNtB9_4core8services7Service7version
FN:559,_RNvXsb_NtNtCs4ZEr9HMJnjR_13p2p_ai_agents7network7serviceNtB5_18NetworkServiceImplNtB5_17NetworkServiceExt12send_message
FN:541,_RNvXsb_NtNtCs4ZEr9HMJnjR_13p2p_ai_agents7network7serviceNtB5_18NetworkServiceImplNtB5_17NetworkServiceExt17broadcast_message
FN:601,_RNvNtNtNtCs4ZEr9HMJnjR_13p2p_ai_agents7network7service5tests18create_test_config
FN:736,_RNvNtNtNtCs4ZEr9HMJnjR_13p2p_ai_agents7network7service5testss_25test_service_registration
FN:706,_RNvNtNtNtCs4ZEr9HMJnjR_13p2p_ai_agents7network7service5testss_30test_network_service_broadcast
FN:624,_RNvNtNtNtCs4ZEr9HMJnjR_13p2p_ai_agents7network7service5testss_30test_network_service_lifecycle
FN:726,_RNvNtNtNtCs4ZEr9HMJnjR_13p2p_ai_agents7network7service5testss_32test_network_service_constructor
FN:685,_RNvNtNtNtCs4ZEr9HMJnjR_13p2p_ai_agents7network7service5testss_33test_network_service_send_message
FN:647,_RNvNtNtNtCs4ZEr9HMJnjR_13p2p_ai_agents7network7service5testss_37test_network_service_request_handling
FNDA:0,_RINvMs0_NtNtCsazECCRb7Zym_13p2p_ai_agents7network7serviceNtB6_18NetworkServiceImpl12update_statsNCNCNvXsa_B6_BT_NtNtNtBa_4core8services7Service14handle_request0s0_0EBa_
FNDA:0,_RINvMs0_NtNtCsazECCRb7Zym_13p2p_ai_agents7network7serviceNtB6_18NetworkServiceImpl12update_statsNCNCNvXsa_B6_BT_NtNtNtBa_4core8services7Service14handle_request0s1_0EBa_
FNDA:0,_RINvMs0_NtNtCsazECCRb7Zym_13p2p_ai_agents7network7serviceNtB6_18NetworkServiceImpl12update_statsNCNCNvXsa_B6_BT_NtNtNtBa_4core8services7Service14handle_request0s3_0EBa_
FNDA:0,_RINvMs0_NtNtCsazECCRb7Zym_13p2p_ai_agents7network7serviceNtB6_18NetworkServiceImpl12update_statsNCNCNvXsa_B6_BT_NtNtNtBa_4core8services7Service14handle_request0s4_0EBa_
FNDA:0,_RNCINvMs0_NtNtCsazECCRb7Zym_13p2p_ai_agents7network7serviceNtB8_18NetworkServiceImpl12update_statsNCNCNvXsa_B8_BV_NtNtNtBc_4core8services7Service14handle_request0s0_0E0Bc_
FNDA:0,_RNCINvMs0_NtNtCsazECCRb7Zym_13p2p_ai_agents7network7serviceNtB8_18NetworkServiceImpl12update_statsNCNCNvXsa_B8_BV_NtNtNtBc_4core8services7Service14handle_request0s1_0E0Bc_
FNDA:0,_RNCINvMs0_NtNtCsazECCRb7Zym_13p2p_ai_agents7network7serviceNtB8_18NetworkServiceImpl12update_statsNCNCNvXsa_B8_BV_NtNtNtBc_4core8services7Service14handle_request0s3_0E0Bc_
FNDA:0,_RNCINvMs0_NtNtCsazECCRb7Zym_13p2p_ai_agents7network7serviceNtB8_18NetworkServiceImpl12update_statsNCNCNvXsa_B8_BV_NtNtNtBc_4core8services7Service14handle_request0s4_0E0Bc_
FNDA:0,_RNCNCNCNvXsa_NtNtCsazECCRb7Zym_13p2p_ai_agents7network7serviceNtBb_18NetworkServiceImplNtNtNtBf_4core8services7Service14handle_request0s_00Bf_
FNDA:0,_RNCNCNvXsa_NtNtCsazECCRb7Zym_13p2p_ai_agents7network7serviceNtB9_18NetworkServiceImplNtNtNtBd_4core8services7Service14handle_request00Bd_
FNDA:0,_RNCNCNvXsa_NtNtCsazECCRb7Zym_13p2p_ai_agents7network7serviceNtB9_18NetworkServiceImplNtNtNtBd_4core8services7Service14handle_request0s0_0Bd_
FNDA:0,_RNCNCNvXsa_NtNtCsazECCRb7Zym_13p2p_ai_agents7network7serviceNtB9_18NetworkServiceImplNtNtNtBd_4core8services7Service14handle_request0s1_0Bd_
FNDA:0,_RNCNCNvXsa_NtNtCsazECCRb7Zym_13p2p_ai_agents7network7serviceNtB9_18NetworkServiceImplNtNtNtBd_4core8services7Service14handle_request0s2_0Bd_
FNDA:0,_RNCNCNvXsa_NtNtCsazECCRb7Zym_13p2p_ai_agents7network7serviceNtB9_18NetworkServiceImplNtNtNtBd_4core8services7Service14handle_request0s3_0Bd_
FNDA:0,_RNCNCNvXsa_NtNtCsazECCRb7Zym_13p2p_ai_agents7network7serviceNtB9_18NetworkServiceImplNtNtNtBd_4core8services7Service14handle_request0s4_0Bd_
FNDA:0,_RNCNCNvXsa_NtNtCsazECCRb7Zym_13p2p_ai_agents7network7serviceNtB9_18NetworkServiceImplNtNtNtBd_4core8services7Service14handle_request0s_0Bd_
FNDA:0,_RNCNvMs0_NtNtCsazECCRb7Zym_13p2p_ai_agents7network7serviceNtB7_18NetworkServiceImpl21record_network_metric0Bb_
FNDA:0,_RNCNvMs1_NtNtCsazECCRb7Zym_13p2p_ai_agents7network7serviceNtB7_25NetworkServiceConstructor19create_and_register0Bb_
FNDA:0,_RNCNvXsa_NtNtCsazECCRb7Zym_13p2p_ai_agents7network7serviceNtB7_18NetworkServiceImplNtNtNtBb_4core8services7Service10initialize0Bb_
FNDA:0,_RNCNvXsa_NtNtCsazECCRb7Zym_13p2p_ai_agents7network7serviceNtB7_18NetworkServiceImplNtNtNtBb_4core8services7Service14handle_request0Bb_
FNDA:0,_RNCNvXsa_NtNtCsazECCRb7Zym_13p2p_ai_agents7network7serviceNtB7_18NetworkServiceImplNtNtNtBb_4core8services7Service4stop0Bb_
FNDA:0,_RNCNvXsa_NtNtCsazECCRb7Zym_13p2p_ai_agents7network7serviceNtB7_18NetworkServiceImplNtNtNtBb_4core8services7Service5start0Bb_
FNDA:0,_RNCNvXsa_NtNtCsazECCRb7Zym_13p2p_ai_agents7network7serviceNtB7_18NetworkServiceImplNtNtNtBb_4core8services7Service6health0Bb_
FNDA:0,_RNCNvXsa_NtNtCsazECCRb7Zym_13p2p_ai_agents7network7serviceNtB7_18NetworkServiceImplNtNtNtBb_4core8services7Service6status0Bb_
FNDA:0,_RNCNvXsb_NtNtCsazECCRb7Zym_13p2p_ai_agents7network7serviceNtB7_18NetworkServiceImplNtB7_17NetworkServiceExt12send_message0Bb_
FNDA:0,_RNCNvXsb_NtNtCsazECCRb7Zym_13p2p_ai_agents7network7serviceNtB7_18NetworkServiceImplNtB7_17NetworkServiceExt17broadcast_message0Bb_
FNDA:0,_RNCNvXsb_NtNtCsazECCRb7Zym_13p2p_ai_agents7network7serviceNtB7_18NetworkServiceImplNtB7_17NetworkServiceExt17get_network_stats0Bb_
FNDA:0,_RNvMs0_NtNtCsazECCRb7Zym_13p2p_ai_agents7network7serviceNtB5_18NetworkServiceImpl21record_network_metric
FNDA:0,_RNvMs0_NtNtCsazECCRb7Zym_13p2p_ai_agents7network7serviceNtB5_18NetworkServiceImpl34network_request_to_service_request
FNDA:0,_RNvMs0_NtNtCsazECCRb7Zym_13p2p_ai_agents7network7serviceNtB5_18NetworkServiceImpl36network_response_to_service_response
FNDA:0,_RNvMs0_NtNtCsazECCRb7Zym_13p2p_ai_agents7network7serviceNtB5_18NetworkServiceImpl3new
FNDA:0,_RNvMs0_NtNtCsazECCRb7Zym_13p2p_ai_agents7network7serviceNtB5_18NetworkServiceImpl4name
FNDA:0,_RNvMs0_NtNtCsazECCRb7Zym_13p2p_ai_agents7network7serviceNtB5_18NetworkServiceImpl7version
FNDA:0,_RNvMs1_NtNtCsazECCRb7Zym_13p2p_ai_agents7network7serviceNtB5_25NetworkServiceConstructor19create_and_register
FNDA:0,_RNvMs1_NtNtCsazECCRb7Zym_13p2p_ai_agents7network7serviceNtB5_25NetworkServiceConstructor3new
FNDA:0,_RNvMs1_NtNtCsazECCRb7Zym_13p2p_ai_agents7network7serviceNtB5_25NetworkServiceConstructor5build
FNDA:0,_RNvXNtNtCsazECCRb7Zym_13p2p_ai_agents7network7serviceNtB2_20NetworkServiceConfigNtNtCsaTRkahAGrLL_4core7default7Default7default
FNDA:0,_RNvXsa_NtNtCsazECCRb7Zym_13p2p_ai_agents7network7serviceNtB5_18NetworkServiceImplNtNtNtB9_4core8services7Service10initialize
FNDA:0,_RNvXsa_NtNtCsazECCRb7Zym_13p2p_ai_agents7network7serviceNtB5_18NetworkServiceImplNtNtNtB9_4core8services7Service14handle_request
FNDA:0,_RNvXsa_NtNtCsazECCRb7Zym_13p2p_ai_agents7network7serviceNtB5_18NetworkServiceImplNtNtNtB9_4core8services7Service2id
FNDA:0,_RNvXsa_NtNtCsazECCRb7Zym_13p2p_ai_agents7network7serviceNtB5_18NetworkServiceImplNtNtNtB9_4core8services7Service4name
FNDA:0,_RNvXsa_NtNtCsazECCRb7Zym_13p2p_ai_agents7network7serviceNtB5_18NetworkServiceImplNtNtNtB9_4core8services7Service4stop
FNDA:0,_RNvXsa_NtNtCsazECCRb7Zym_13p2p_ai_agents7network7serviceNtB5_18NetworkServiceImplNtNtNtB9_4core8services7Service5start
FNDA:0,_RNvXsa_NtNtCsazECCRb7Zym_13p2p_ai_agents7network7serviceNtB5_18NetworkServiceImplNtNtNtB9_4core8services7Service6health
FNDA:0,_RNvXsa_NtNtCsazECCRb7Zym_13p2p_ai_agents7network7serviceNtB5_18NetworkServiceImplNtNtNtB9_4core8services7Service6status
FNDA:0,_RNvXsa_NtNtCsazECCRb7Zym_13p2p_ai_agents7network7serviceNtB5_18NetworkServiceImplNtNtNtB9_4core8services7Service7version
FNDA:0,_RNvXsb_NtNtCsazECCRb7Zym_13p2p_ai_agents7network7serviceNtB5_18NetworkServiceImplNtB5_17NetworkServiceExt12send_message
FNDA:0,_RNvXsb_NtNtCsazECCRb7Zym_13p2p_ai_agents7network7serviceNtB5_18NetworkServiceImplNtB5_17NetworkServiceExt17broadcast_message
FNDA:0,_RNvXsb_NtNtCsazECCRb7Zym_13p2p_ai_agents7network7serviceNtB5_18NetworkServiceImplNtB5_17NetworkServiceExt17get_network_stats
FNDA:0,_RNvXs_NtNtCsazECCRb7Zym_13p2p_ai_agents7network7serviceNtNtNtB8_4core8services12ServiceErrorINtNtCsaTRkahAGrLL_4core7convert4FromNtB6_12NetworkErrorE4from
FNDA:1,_RNCNvNtNtNtCs4ZEr9HMJnjR_13p2p_ai_agents7network7service5testss_25test_service_registration0B9_
FNDA:1,_RNCNvNtNtNtCs4ZEr9HMJnjR_13p2p_ai_agents7network7service5testss_30test_network_service_broadcast0B9_
FNDA:1,_RNCNvNtNtNtCs4ZEr9HMJnjR_13p2p_ai_agents7network7service5testss_30test_network_service_lifecycle0B9_
FNDA:1,_RNCNvNtNtNtCs4ZEr9HMJnjR_13p2p_ai_agents7network7service5testss_32test_network_service_constructor0B9_
FNDA:1,_RNCNvNtNtNtCs4ZEr9HMJnjR_13p2p_ai_agents7network7service5testss_33test_network_service_send_message0B9_
FNDA:1,_RNCNvNtNtNtCs4ZEr9HMJnjR_13p2p_ai_agents7network7service5testss_37test_network_service_request_handling0B9_
FNDA:0,_RNCNvXsb_NtNtCs4ZEr9HMJnjR_13p2p_ai_agents7network7serviceNtB7_18NetworkServiceImplNtB7_17NetworkServiceExt17get_network_stats0Bb_
FNDA:0,_RNvXNtNtCs4ZEr9HMJnjR_13p2p_ai_agents7network7serviceNtB2_20NetworkServiceConfigNtNtCsaTRkahAGrLL_4core7default7Default7default
FNDA:0,_RNvXsb_NtNtCs4ZEr9HMJnjR_13p2p_ai_agents7network7serviceNtB5_18NetworkServiceImplNtB5_17NetworkServiceExt17get_network_stats
FNDA:1,_RNvXs_NtNtCs4ZEr9HMJnjR_13p2p_ai_agents7network7serviceNtNtNtB8_4core8services12ServiceErrorINtNtCsaTRkahAGrLL_4core7convert4FromNtB6_12NetworkErrorE4from
FNDA:1,_RINvMs0_NtNtCs4ZEr9HMJnjR_13p2p_ai_agents7network7serviceNtB6_18NetworkServiceImpl12update_statsNCNCNvXsa_B6_BT_NtNtNtBa_4core8services7Service14handle_request0s0_0EBa_
FNDA:1,_RINvMs0_NtNtCs4ZEr9HMJnjR_13p2p_ai_agents7network7serviceNtB6_18NetworkServiceImpl12update_statsNCNCNvXsa_B6_BT_NtNtNtBa_4core8services7Service14handle_request0s1_0EBa_
FNDA:0,_RINvMs0_NtNtCs4ZEr9HMJnjR_13p2p_ai_agents7network7serviceNtB6_18NetworkServiceImpl12update_statsNCNCNvXsa_B6_BT_NtNtNtBa_4core8services7Service14handle_request0s3_0EBa_
FNDA:0,_RINvMs0_NtNtCs4ZEr9HMJnjR_13p2p_ai_agents7network7serviceNtB6_18NetworkServiceImpl12update_statsNCNCNvXsa_B6_BT_NtNtNtBa_4core8services7Service14handle_request0s4_0EBa_
FNDA:1,_RNCINvMs0_NtNtCs4ZEr9HMJnjR_13p2p_ai_agents7network7serviceNtB8_18NetworkServiceImpl12update_statsNCNCNvXsa_B8_BV_NtNtNtBc_4core8services7Service14handle_request0s0_0E0Bc_
FNDA:1,_RNCINvMs0_NtNtCs4ZEr9HMJnjR_13p2p_ai_agents7network7serviceNtB8_18NetworkServiceImpl12update_statsNCNCNvXsa_B8_BV_NtNtNtBc_4core8services7Service14handle_request0s1_0E0Bc_
FNDA:0,_RNCINvMs0_NtNtCs4ZEr9HMJnjR_13p2p_ai_agents7network7serviceNtB8_18NetworkServiceImpl12update_statsNCNCNvXsa_B8_BV_NtNtNtBc_4core8services7Service14handle_request0s3_0E0Bc_
FNDA:0,_RNCINvMs0_NtNtCs4ZEr9HMJnjR_13p2p_ai_agents7network7serviceNtB8_18NetworkServiceImpl12update_statsNCNCNvXsa_B8_BV_NtNtNtBc_4core8services7Service14handle_request0s4_0E0Bc_
FNDA:0,_RNCNCNCNvXsa_NtNtCs4ZEr9HMJnjR_13p2p_ai_agents7network7serviceNtBb_18NetworkServiceImplNtNtNtBf_4core8services7Service14handle_request0s_00Bf_
FNDA:0,_RNCNCNvXsa_NtNtCs4ZEr9HMJnjR_13p2p_ai_agents7network7serviceNtB9_18NetworkServiceImplNtNtNtBd_4core8services7Service14handle_request00Bd_
FNDA:1,_RNCNCNvXsa_NtNtCs4ZEr9HMJnjR_13p2p_ai_agents7network7serviceNtB9_18NetworkServiceImplNtNtNtBd_4core8services7Service14handle_request0s0_0Bd_
FNDA:1,_RNCNCNvXsa_NtNtCs4ZEr9HMJnjR_13p2p_ai_agents7network7serviceNtB9_18NetworkServiceImplNtNtNtBd_4core8services7Service14handle_request0s1_0Bd_
FNDA:0,_RNCNCNvXsa_NtNtCs4ZEr9HMJnjR_13p2p_ai_agents7network7serviceNtB9_18NetworkServiceImplNtNtNtBd_4core8services7Service14handle_request0s2_0Bd_
FNDA:0,_RNCNCNvXsa_NtNtCs4ZEr9HMJnjR_13p2p_ai_agents7network7serviceNtB9_18NetworkServiceImplNtNtNtBd_4core8services7Service14handle_request0s3_0Bd_
FNDA:0,_RNCNCNvXsa_NtNtCs4ZEr9HMJnjR_13p2p_ai_agents7network7serviceNtB9_18NetworkServiceImplNtNtNtBd_4core8services7Service14handle_request0s4_0Bd_
FNDA:4,_RNCNCNvXsa_NtNtCs4ZEr9HMJnjR_13p2p_ai_agents7network7serviceNtB9_18NetworkServiceImplNtNtNtBd_4core8services7Service14handle_request0s_0Bd_
FNDA:16,_RNCNvMs0_NtNtCs4ZEr9HMJnjR_13p2p_ai_agents7network7serviceNtB7_18NetworkServiceImpl21record_network_metric0Bb_
FNDA:1,_RNCNvMs1_NtNtCs4ZEr9HMJnjR_13p2p_ai_agents7network7serviceNtB7_25NetworkServiceConstructor19create_and_register0Bb_
FNDA:5,_RNCNvXsa_NtNtCs4ZEr9HMJnjR_13p2p_ai_agents7network7serviceNtB7_18NetworkServiceImplNtNtNtBb_4core8services7Service10initialize0Bb_
FNDA:4,_RNCNvXsa_NtNtCs4ZEr9HMJnjR_13p2p_ai_agents7network7serviceNtB7_18NetworkServiceImplNtNtNtBb_4core8services7Service14handle_request0Bb_
FNDA:5,_RNCNvXsa_NtNtCs4ZEr9HMJnjR_13p2p_ai_agents7network7serviceNtB7_18NetworkServiceImplNtNtNtBb_4core8services7Service4stop0Bb_
FNDA:4,_RNCNvXsa_NtNtCs4ZEr9HMJnjR_13p2p_ai_agents7network7serviceNtB7_18NetworkServiceImplNtNtNtBb_4core8services7Service5start0Bb_
FNDA:1,_RNCNvXsa_NtNtCs4ZEr9HMJnjR_13p2p_ai_agents7network7serviceNtB7_18NetworkServiceImplNtNtNtBb_4core8services7Service6health0Bb_
FNDA:3,_RNCNvXsa_NtNtCs4ZEr9HMJnjR_13p2p_ai_agents7network7serviceNtB7_18NetworkServiceImplNtNtNtBb_4core8services7Service6status0Bb_
FNDA:1,_RNCNvXsb_NtNtCs4ZEr9HMJnjR_13p2p_ai_agents7network7serviceNtB7_18NetworkServiceImplNtB7_17NetworkServiceExt12send_message0Bb_
FNDA:1,_RNCNvXsb_NtNtCs4ZEr9HMJnjR_13p2p_ai_agents7network7serviceNtB7_18NetworkServiceImplNtB7_17NetworkServiceExt17broadcast_message0Bb_
FNDA:16,_RNvMs0_NtNtCs4ZEr9HMJnjR_13p2p_ai_agents7network7serviceNtB5_18NetworkServiceImpl21record_network_metric
FNDA:4,_RNvMs0_NtNtCs4ZEr9HMJnjR_13p2p_ai_agents7network7serviceNtB5_18NetworkServiceImpl34network_request_to_service_request
FNDA:4,_RNvMs0_NtNtCs4ZEr9HMJnjR_13p2p_ai_agents7network7serviceNtB5_18NetworkServiceImpl36network_response_to_service_response
FNDA:6,_RNvMs0_NtNtCs4ZEr9HMJnjR_13p2p_ai_agents7network7serviceNtB5_18NetworkServiceImpl3new
FNDA:1,_RNvMs0_NtNtCs4ZEr9HMJnjR_13p2p_ai_agents7network7serviceNtB5_18NetworkServiceImpl4name
FNDA:1,_RNvMs0_NtNtCs4ZEr9HMJnjR_13p2p_ai_agents7network7serviceNtB5_18NetworkServiceImpl7version
FNDA:1,_RNvMs1_NtNtCs4ZEr9HMJnjR_13p2p_ai_agents7network7serviceNtB5_25NetworkServiceConstructor19create_and_register
FNDA:2,_RNvMs1_NtNtCs4ZEr9HMJnjR_13p2p_ai_agents7network7serviceNtB5_25NetworkServiceConstructor3new
FNDA:2,_RNvMs1_NtNtCs4ZEr9HMJnjR_13p2p_ai_agents7network7serviceNtB5_25NetworkServiceConstructor5build
FNDA:5,_RNvXsa_NtNtCs4ZEr9HMJnjR_13p2p_ai_agents7network7serviceNtB5_18NetworkServiceImplNtNtNtB9_4core8services7Service10initialize
FNDA:4,_RNvXsa_NtNtCs4ZEr9HMJnjR_13p2p_ai_agents7network7serviceNtB5_18NetworkServiceImplNtNtNtB9_4core8services7Service14handle_request
FNDA:2,_RNvXsa_NtNtCs4ZEr9HMJnjR_13p2p_ai_agents7network7serviceNtB5_18NetworkServiceImplNtNtNtB9_4core8services7Service2id
FNDA:2,_RNvXsa_NtNtCs4ZEr9HMJnjR_13p2p_ai_agents7network7serviceNtB5_18NetworkServiceImplNtNtNtB9_4core8services7Service4name
FNDA:5,_RNvXsa_NtNtCs4ZEr9HMJnjR_13p2p_ai_agents7network7serviceNtB5_18NetworkServiceImplNtNtNtB9_4core8services7Service4stop
FNDA:4,_RNvXsa_NtNtCs4ZEr9HMJnjR_13p2p_ai_agents7network7serviceNtB5_18NetworkServiceImplNtNtNtB9_4core8services7Service5start
FNDA:1,_RNvXsa_NtNtCs4ZEr9HMJnjR_13p2p_ai_agents7network7serviceNtB5_18NetworkServiceImplNtNtNtB9_4core8services7Service6health
FNDA:3,_RNvXsa_NtNtCs4ZEr9HMJnjR_13p2p_ai_agents7network7serviceNtB5_18NetworkServiceImplNtNtNtB9_4core8services7Service6status
FNDA:0,_RNvXsa_NtNtCs4ZEr9HMJnjR_13p2p_ai_agents7network7serviceNtB5_18NetworkServiceImplNtNtNtB9_4core8services7Service7version
FNDA:1,_RNvXsb_NtNtCs4ZEr9HMJnjR_13p2p_ai_agents7network7serviceNtB5_18NetworkServiceImplNtB5_17NetworkServiceExt12send_message
FNDA:1,_RNvXsb_NtNtCs4ZEr9HMJnjR_13p2p_ai_agents7network7serviceNtB5_18NetworkServiceImplNtB5_17NetworkServiceExt17broadcast_message
FNDA:6,_RNvNtNtNtCs4ZEr9HMJnjR_13p2p_ai_agents7network7service5tests18create_test_config
FNDA:1,_RNvNtNtNtCs4ZEr9HMJnjR_13p2p_ai_agents7network7service5testss_25test_service_registration
FNDA:1,_RNvNtNtNtCs4ZEr9HMJnjR_13p2p_ai_agents7network7service5testss_30test_network_service_broadcast
FNDA:1,_RNvNtNtNtCs4ZEr9HMJnjR_13p2p_ai_agents7network7service5testss_30test_network_service_lifecycle
FNDA:1,_RNvNtNtNtCs4ZEr9HMJnjR_13p2p_ai_agents7network7service5testss_32test_network_service_constructor
FNDA:1,_RNvNtNtNtCs4ZEr9HMJnjR_13p2p_ai_agents7network7service5testss_33test_network_service_send_message
FNDA:1,_RNvNtNtNtCs4ZEr9HMJnjR_13p2p_ai_agents7network7service5testss_37test_network_service_request_handling
FNF:57
FNH:48
DA:37,0
DA:38,0
DA:39,0
DA:40,0
DA:41,0
DA:42,0
DA:43,0
DA:44,0
DA:45,0
DA:46,0
DA:47,0
DA:48,0
DA:49,0
DA:50,0
DA:51,0
DA:52,0
DA:53,0
DA:54,0
DA:55,0
DA:103,1
DA:104,1
DA:106,0
DA:109,0
DA:111,1
DA:112,0
DA:113,0
DA:115,0
DA:116,0
DA:118,0
DA:120,1
DA:156,6
DA:157,6
DA:158,6
DA:159,6
DA:160,6
DA:161,6
DA:162,6
DA:163,6
DA:164,6
DA:165,6
DA:166,6
DA:167,6
DA:168,6
DA:169,6
DA:170,6
DA:171,6
DA:172,6
DA:173,6
DA:176,1
DA:177,1
DA:178,1
DA:181,1
DA:182,1
DA:183,1
DA:186,16
DA:187,16
DA:188,16
DA:191,2
DA:192,2
DA:193,2
DA:194,2
DA:195,2
DA:196,2
DA:197,2
DA:198,2
DA:199,2
DA:200,2
DA:201,2
DA:202,2
DA:203,2
DA:204,2
DA:205,2
DA:206,2
DA:207,2
DA:208,2
DA:209,2
DA:210,2
DA:211,2
DA:212,2
DA:213,2
DA:214,2
DA:217,4
DA:218,4
DA:219,4
DA:220,4
DA:221,4
DA:222,4
DA:223,4
DA:224,4
DA:225,4
DA:226,4
DA:227,1
DA:228,1
DA:229,1
DA:230,0
DA:231,0
DA:232,1
DA:233,0
DA:235,4
DA:236,4
DA:237,4
DA:238,4
DA:241,4
DA:242,4
DA:243,4
DA:244,4
DA:245,4
DA:246,4
DA:247,4
DA:248,4
DA:249,4
DA:250,4
DA:251,4
DA:252,4
DA:253,4
DA:254,4
DA:255,0
DA:256,0
DA:257,0
DA:258,0
DA:259,0
DA:260,0
DA:261,0
DA:263,4
DA:268,2
DA:269,2
DA:270,2
DA:272,2
DA:273,2
DA:274,2
DA:276,0
DA:277,0
DA:278,0
DA:280,5
DA:281,5
DA:284,5
DA:286,5
DA:287,5
DA:290,5
DA:292,5
DA:293,5
DA:294,5
DA:295,5
DA:296,5
DA:297,5
DA:298,5
DA:299,5
DA:300,5
DA:301,5
DA:302,5
DA:303,5
DA:304,5
DA:305,5
DA:307,5
DA:308,5
DA:309,10
DA:311,4
DA:312,4
DA:314,4
DA:315,4
DA:316,4
DA:317,4
DA:318,4
DA:319,4
DA:322,4
DA:323,4
DA:325,4
DA:326,4
DA:327,8
DA:329,5
DA:330,5
DA:333,5
DA:334,5
DA:335,5
DA:336,5
DA:337,5
DA:340,4
DA:341,4
DA:342,4
DA:343,4
DA:344,4
DA:345,4
DA:347,4
DA:348,4
DA:349,10
DA:351,3
DA:352,3
DA:355,3
DA:356,3
DA:357,1
DA:359,2
DA:361,6
DA:363,1
DA:364,1
DA:367,1
DA:368,1
DA:369,1
DA:370,1
DA:371,1
DA:372,1
DA:373,1
DA:374,1
DA:375,1
DA:376,1
DA:377,1
DA:378,1
DA:379,1
DA:380,1
DA:381,1
DA:382,1
DA:383,1
DA:386,1
DA:387,1
DA:388,1
DA:389,1
DA:391,1
DA:392,2
DA:397,4
DA:398,4
DA:399,4
DA:400,4
DA:401,4
DA:402,4
DA:403,4
DA:404,4
DA:405,4
DA:406,4
DA:407,4
DA:408,0
DA:409,4
DA:410,4
DA:411,4
DA:412,4
DA:413,4
DA:414,4
DA:415,1
DA:416,1
DA:417,1
DA:418,1
DA:419,1
DA:420,1
DA:421,1
DA:422,1
DA:423,1
DA:426,1
DA:427,1
DA:429,1
DA:431,1
DA:433,1
DA:434,1
DA:435,1
DA:437,1
DA:438,0
DA:439,0
DA:440,0
DA:441,0
DA:442,0
DA:443,0
DA:444,0
DA:448,1
DA:449,1
DA:451,1
DA:454,1
DA:455,1
DA:456,1
DA:457,1
DA:458,1
DA:460,0
DA:461,0
DA:462,0
DA:463,0
DA:464,0
DA:465,0
DA:466,0
DA:468,0
DA:469,0
DA:470,0
DA:471,0
DA:474,0
DA:475,0
DA:476,0
DA:477,0
DA:478,0
DA:479,0
DA:480,0
DA:481,0
DA:482,0
DA:485,1
DA:486,1
DA:488,0
DA:489,0
DA:490,0
DA:491,0
DA:495,4
DA:499,0
DA:502,8
DA:524,0
DA:525,0
DA:526,0
DA:527,0
DA:529,1
DA:530,1
DA:531,1
DA:532,1
DA:534,1
DA:535,1
DA:537,0
DA:538,0
DA:539,0
DA:541,2
DA:547,1
DA:548,1
DA:549,1
DA:550,1
DA:552,1
DA:553,1
DA:555,0
DA:556,0
DA:557,0
DA:559,2
DA:569,2
DA:570,2
DA:571,2
DA:574,2
DA:575,2
DA:576,2
DA:579,1
DA:580,1
DA:581,1
DA:582,1
DA:583,1
DA:584,1
DA:585,1
DA:586,1
DA:587,1
DA:590,1
DA:592,1
DA:593,1
DA:601,6
DA:602,6
DA:603,6
DA:604,6
DA:605,6
DA:606,6
DA:607,6
DA:608,6
DA:609,6
DA:610,6
DA:611,6
DA:612,6
DA:613,6
DA:614,6
DA:615,6
DA:616,6
DA:617,6
DA:618,6
DA:619,6
DA:620,6
DA:621,6
DA:624,1
DA:625,1
DA:626,1
DA:627,1
DA:628,1
DA:629,1
DA:630,1
DA:631,1
DA:632,1
DA:633,1
DA:634,1
DA:635,1
DA:636,1
DA:637,1
DA:638,1
DA:639,1
DA:640,1
DA:641,1
DA:642,1
DA:643,1
DA:644,1
DA:647,1
DA:648,1
DA:649,1
DA:650,1
DA:651,1
DA:652,1
DA:653,1
DA:654,1
DA:655,1
DA:656,1
DA:657,1
DA:658,1
DA:659,1
DA:660,1
DA:661,1
DA:662,1
DA:663,1
DA:664,0
DA:665,1
DA:666,1
DA:667,1
DA:668,1
DA:669,1
DA:670,1
DA:671,1
DA:672,1
DA:673,1
DA:674,1
DA:675,1
DA:676,1
DA:677,0
DA:678,1
DA:679,1
DA:680,1
DA:681,1
DA:682,1
DA:685,1
DA:686,1
DA:687,1
DA:688,1
DA:689,1
DA:690,1
DA:691,1
DA:692,1
DA:693,1
DA:694,1
DA:695,1
DA:696,1
DA:697,1
DA:698,1
DA:699,1
DA:700,1
DA:701,1
DA:702,1
DA:703,1
DA:706,1
DA:707,1
DA:708,1
DA:709,1
DA:710,1
DA:711,1
DA:712,1
DA:713,1
DA:714,1
DA:715,1
DA:716,1
DA:717,1
DA:718,1
DA:719,1
DA:720,1
DA:721,1
DA:722,1
DA:723,1
DA:726,1
DA:727,1
DA:728,1
DA:729,1
DA:730,1
DA:731,1
DA:732,1
DA:733,1
DA:736,1
DA:737,1
DA:738,1
DA:739,1
DA:740,1
DA:741,1
DA:742,1
DA:743,1
DA:744,1
DA:745,1
DA:746,1
DA:747,1
DA:748,1
DA:749,1
DA:750,1
DA:751,1
DA:752,1
DA:753,1
DA:754,1
BRF:0
BRH:0
LF:602
LH:510
end_of_record
SF:/Users/renegeers/Source/p2p-ai-agents/src/network/transport.rs
FN:77,_RNCNvMNtNtCsazECCRb7Zym_13p2p_ai_agents7network9transportNtB4_13TransportType16simulate_failure0B8_
FN:63,_RNCNvMNtNtCsazECCRb7Zym_13p2p_ai_agents7network9transportNtB4_13TransportType4send0B8_
FN:49,_RNCNvMNtNtCsazECCRb7Zym_13p2p_ai_agents7network9transportNtB4_13TransportType4stop0B8_
FN:35,_RNCNvMNtNtCsazECCRb7Zym_13p2p_ai_agents7network9transportNtB4_13TransportType5start0B8_
FN:77,_RNCNvMNtNtCs4ZEr9HMJnjR_13p2p_ai_agents7network9transportNtB4_13TransportType16simulate_failure0B8_
FN:63,_RNCNvMNtNtCs4ZEr9HMJnjR_13p2p_ai_agents7network9transportNtB4_13TransportType4send0B8_
FN:49,_RNCNvMNtNtCs4ZEr9HMJnjR_13p2p_ai_agents7network9transportNtB4_13TransportType4stop0B8_
FN:35,_RNCNvMNtNtCs4ZEr9HMJnjR_13p2p_ai_agents7network9transportNtB4_13TransportType5start0B8_
FN:77,_RNvMNtNtCs4ZEr9HMJnjR_13p2p_ai_agents7network9transportNtB2_13TransportType16simulate_failure
FN:63,_RNvMNtNtCs4ZEr9HMJnjR_13p2p_ai_agents7network9transportNtB2_13TransportType4send
FN:49,_RNvMNtNtCs4ZEr9HMJnjR_13p2p_ai_agents7network9transportNtB2_13TransportType4stop
FN:35,_RNvMNtNtCs4ZEr9HMJnjR_13p2p_ai_agents7network9transportNtB2_13TransportType5start
FNDA:0,_RNCNvMNtNtCsazECCRb7Zym_13p2p_ai_agents7network9transportNtB4_13TransportType16simulate_failure0B8_
FNDA:0,_RNCNvMNtNtCsazECCRb7Zym_13p2p_ai_agents7network9transportNtB4_13TransportType4send0B8_
FNDA:0,_RNCNvMNtNtCsazECCRb7Zym_13p2p_ai_agents7network9transportNtB4_13TransportType4stop0B8_
FNDA:0,_RNCNvMNtNtCsazECCRb7Zym_13p2p_ai_agents7network9transportNtB4_13TransportType5start0B8_
FNDA:0,_RNCNvMNtNtCs4ZEr9HMJnjR_13p2p_ai_agents7network9transportNtB4_13TransportType16simulate_failure0B8_
FNDA:0,_RNCNvMNtNtCs4ZEr9HMJnjR_13p2p_ai_agents7network9transportNtB4_13TransportType4send0B8_
FNDA:0,_RNCNvMNtNtCs4ZEr9HMJnjR_13p2p_ai_agents7network9transportNtB4_13TransportType4stop0B8_
FNDA:0,_RNCNvMNtNtCs4ZEr9HMJnjR_13p2p_ai_agents7network9transportNtB4_13TransportType5start0B8_
FNDA:0,_RNvMNtNtCs4ZEr9HMJnjR_13p2p_ai_agents7network9transportNtB2_13TransportType16simulate_failure
FNDA:0,_RNvMNtNtCs4ZEr9HMJnjR_13p2p_ai_agents7network9transportNtB2_13TransportType4send
FNDA:0,_RNvMNtNtCs4ZEr9HMJnjR_13p2p_ai_agents7network9transportNtB2_13TransportType4stop
FNDA:0,_RNvMNtNtCs4ZEr9HMJnjR_13p2p_ai_agents7network9transportNtB2_13TransportType5start
FNF:8
FNH:0
DA:35,0
DA:36,0
DA:39,0
DA:43,0
DA:46,0
DA:49,0
DA:50,0
DA:53,0
DA:57,0
DA:60,0
DA:63,0
DA:64,0
DA:67,0
DA:71,0
DA:74,0
DA:77,0
DA:78,0
DA:79,0
DA:80,0
BRF:0
BRH:0
LF:23
LH:0
end_of_record
SF:/Users/renegeers/Source/p2p-ai-agents/src/storage/local.rs
FN:109,_RINvMNtNtCsazECCRb7Zym_13p2p_ai_agents7storage5localNtB3_12LocalStorage12with_metricspEB7_
FN:86,_RINvMNtNtCsazECCRb7Zym_13p2p_ai_agents7storage5localNtB3_12LocalStorage3newRNtNtCsj7Z7QldOUMz_3std4path7PathBufEB7_
FN:168,_RNCNvXsd_NtNtCsazECCRb7Zym_13p2p_ai_agents7storage5localNtB7_12LocalStorageNtB7_7Storage3get0Bb_
FN:196,_RNCNvXsd_NtNtCsazECCRb7Zym_13p2p_ai_agents7storage5localNtB7_12LocalStorageNtB7_7Storage3put0Bb_
FN:229,_RNCNvXsd_NtNtCsazECCRb7Zym_13p2p_ai_agents7storage5localNtB7_12LocalStorageNtB7_7Storage6delete0Bb_
FN:274,_RNCNvXsf_NtNtCsazECCRb7Zym_13p2p_ai_agents7storage5localNtB7_18DistributedStorageNtB7_7Storage3get0Bb_
FN:284,_RNCNvXsf_NtNtCsazECCRb7Zym_13p2p_ai_agents7storage5localNtB7_18DistributedStorageNtB7_7Storage3put0Bb_
FN:289,_RNCNvXsf_NtNtCsazECCRb7Zym_13p2p_ai_agents7storage5localNtB7_18DistributedStorageNtB7_7Storage6delete0Bb_
FN:316,_RNCNvXsh_NtNtCsazECCRb7Zym_13p2p_ai_agents7storage5localNtB7_12CacheStorageNtB7_7Storage3get0Bb_
FN:326,_RNCNvXsh_NtNtCsazECCRb7Zym_13p2p_ai_agents7storage5localNtB7_12CacheStorageNtB7_7Storage3put0Bb_
FN:331,_RNCNvXsh_NtNtCsazECCRb7Zym_13p2p_ai_agents7storage5localNtB7_12CacheStorageNtB7_7Storage6delete0Bb_
FN:358,_RNCNvXsj_NtNtCsazECCRb7Zym_13p2p_ai_agents7storage5localNtB7_13CustomStorageNtB7_7Storage3get0Bb_
FN:368,_RNCNvXsj_NtNtCsazECCRb7Zym_13p2p_ai_agents7storage5localNtB7_13CustomStorageNtB7_7Storage3put0Bb_
FN:373,_RNCNvXsj_NtNtCsazECCRb7Zym_13p2p_ai_agents7storage5localNtB7_13CustomStorageNtB7_7Storage6delete0Bb_
FN:156,_RNvMNtNtCsazECCRb7Zym_13p2p_ai_agents7storage5localNtB2_12LocalStorage11key_to_path
FN:130,_RNvMNtNtCsazECCRb7Zym_13p2p_ai_agents7storage5localNtB2_12LocalStorage12validate_key
FN:303,_RNvMs0_NtNtCsazECCRb7Zym_13p2p_ai_agents7storage5localNtB5_12CacheStorage3new
FN:345,_RNvMs1_NtNtCsazECCRb7Zym_13p2p_ai_agents7storage5localNtB5_13CustomStorage3new
FN:261,_RNvMs_NtNtCsazECCRb7Zym_13p2p_ai_agents7storage5localNtB4_18DistributedStorage3new
FN:189,_RNvXsd_NtNtCsazECCRb7Zym_13p2p_ai_agents7storage5localNtB5_12LocalStorageNtB5_7Storage3get
FN:227,_RNvXsd_NtNtCsazECCRb7Zym_13p2p_ai_agents7storage5localNtB5_12LocalStorageNtB5_7Storage3put
FN:250,_RNvXsd_NtNtCsazECCRb7Zym_13p2p_ai_agents7storage5localNtB5_12LocalStorageNtB5_7Storage6delete
FN:277,_RNvXsf_NtNtCsazECCRb7Zym_13p2p_ai_agents7storage5localNtB5_18DistributedStorageNtB5_7Storage3get
FN:287,_RNvXsf_NtNtCsazECCRb7Zym_13p2p_ai_agents7storage5localNtB5_18DistributedStorageNtB5_7Storage3put
FN:292,_RNvXsf_NtNtCsazECCRb7Zym_13p2p_ai_agents7storage5localNtB5_18DistributedStorageNtB5_7Storage6delete
FN:319,_RNvXsh_NtNtCsazECCRb7Zym_13p2p_ai_agents7storage5localNtB5_12CacheStorageNtB5_7Storage3get
FN:329,_RNvXsh_NtNtCsazECCRb7Zym_13p2p_ai_agents7storage5localNtB5_12CacheStorageNtB5_7Storage3put
FN:334,_RNvXsh_NtNtCsazECCRb7Zym_13p2p_ai_agents7storage5localNtB5_12CacheStorageNtB5_7Storage6delete
FN:361,_RNvXsj_NtNtCsazECCRb7Zym_13p2p_ai_agents7storage5localNtB5_13CustomStorageNtB5_7Storage3get
FN:371,_RNvXsj_NtNtCsazECCRb7Zym_13p2p_ai_agents7storage5localNtB5_13CustomStorageNtB5_7Storage3put
FN:376,_RNvXsj_NtNtCsazECCRb7Zym_13p2p_ai_agents7storage5localNtB5_13CustomStorageNtB5_7Storage6delete
FN:109,_RINvMNtNtCsazECCRb7Zym_13p2p_ai_agents7storage5localNtB3_12LocalStorage12with_metricsRNtNtCsj7Z7QldOUMz_3std4path4PathECshJSWJcNPkNy_19metrics_integration
FN:109,_RINvMNtNtCs4ZEr9HMJnjR_13p2p_ai_agents7storage5localNtB3_12LocalStorage12with_metricspEB7_
FN:156,_RNvMNtNtCs4ZEr9HMJnjR_13p2p_ai_agents7storage5localNtB2_12LocalStorage11key_to_path
FN:130,_RNvMNtNtCs4ZEr9HMJnjR_13p2p_ai_agents7storage5localNtB2_12LocalStorage12validate_key
FN:303,_RNvMs0_NtNtCs4ZEr9HMJnjR_13p2p_ai_agents7storage5localNtB5_12CacheStorage3new
FN:345,_RNvMs1_NtNtCs4ZEr9HMJnjR_13p2p_ai_agents7storage5localNtB5_13CustomStorage3new
FN:261,_RNvMs_NtNtCs4ZEr9HMJnjR_13p2p_ai_agents7storage5localNtB4_18DistributedStorage3new
FN:189,_RNvXsd_NtNtCs4ZEr9HMJnjR_13p2p_ai_agents7storage5localNtB5_12LocalStorageNtB5_7Storage3get
FN:227,_RNvXsd_NtNtCs4ZEr9HMJnjR_13p2p_ai_agents7storage5localNtB5_12LocalStorageNtB5_7Storage3put
FN:250,_RNvXsd_NtNtCs4ZEr9HMJnjR_13p2p_ai_agents7storage5localNtB5_12LocalStorageNtB5_7Storage6delete
FN:277,_RNvXsf_NtNtCs4ZEr9HMJnjR_13p2p_ai_agents7storage5localNtB5_18DistributedStorageNtB5_7Storage3get
FN:287,_RNvXsf_NtNtCs4ZEr9HMJnjR_13p2p_ai_agents7storage5localNtB5_18DistributedStorageNtB5_7Storage3put
FN:292,_RNvXsf_NtNtCs4ZEr9HMJnjR_13p2p_ai_agents7storage5localNtB5_18DistributedStorageNtB5_7Storage6delete
FN:319,_RNvXsh_NtNtCs4ZEr9HMJnjR_13p2p_ai_agents7storage5localNtB5_12CacheStorageNtB5_7Storage3get
FN:329,_RNvXsh_NtNtCs4ZEr9HMJnjR_13p2p_ai_agents7storage5localNtB5_12CacheStorageNtB5_7Storage3put
FN:334,_RNvXsh_NtNtCs4ZEr9HMJnjR_13p2p_ai_agents7storage5localNtB5_12CacheStorageNtB5_7Storage6delete
FN:361,_RNvXsj_NtNtCs4ZEr9HMJnjR_13p2p_ai_agents7storage5localNtB5_13CustomStorageNtB5_7Storage3get
FN:371,_RNvXsj_NtNtCs4ZEr9HMJnjR_13p2p_ai_agents7storage5localNtB5_13CustomStorageNtB5_7Storage3put
FN:376,_RNvXsj_NtNtCs4ZEr9HMJnjR_13p2p_ai_agents7storage5localNtB5_13CustomStorageNtB5_7Storage6delete
FN:86,_RINvMNtNtCs4ZEr9HMJnjR_13p2p_ai_agents7storage5localNtB3_12LocalStorage3newRNtNtCsj7Z7QldOUMz_3std4path4PathEB7_
FN:86,_RINvMNtNtCs4ZEr9HMJnjR_13p2p_ai_agents7storage5localNtB3_12LocalStorage3newRNtNtCsj7Z7QldOUMz_3std4path7PathBufEB7_
FN:168,_RNCNvXsd_NtNtCs4ZEr9HMJnjR_13p2p_ai_agents7storage5localNtB7_12LocalStorageNtB7_7Storage3get0Bb_
FN:196,_RNCNvXsd_NtNtCs4ZEr9HMJnjR_13p2p_ai_agents7storage5localNtB7_12LocalStorageNtB7_7Storage3put0Bb_
FN:229,_RNCNvXsd_NtNtCs4ZEr9HMJnjR_13p2p_ai_agents7storage5localNtB7_12LocalStorageNtB7_7Storage6delete0Bb_
FN:274,_RNCNvXsf_NtNtCs4ZEr9HMJnjR_13p2p_ai_agents7storage5localNtB7_18DistributedStorageNtB7_7Storage3get0Bb_
FN:284,_RNCNvXsf_NtNtCs4ZEr9HMJnjR_13p2p_ai_agents7storage5localNtB7_18DistributedStorageNtB7_7Storage3put0Bb_
FN:289,_RNCNvXsf_NtNtCs4ZEr9HMJnjR_13p2p_ai_agents7storage5localNtB7_18DistributedStorageNtB7_7Storage6delete0Bb_
FN:316,_RNCNvXsh_NtNtCs4ZEr9HMJnjR_13p2p_ai_agents7storage5localNtB7_12CacheStorageNtB7_7Storage3get0Bb_
FN:326,_RNCNvXsh_NtNtCs4ZEr9HMJnjR_13p2p_ai_agents7storage5localNtB7_12CacheStorageNtB7_7Storage3put0Bb_
FN:331,_RNCNvXsh_NtNtCs4ZEr9HMJnjR_13p2p_ai_agents7storage5localNtB7_12CacheStorageNtB7_7Storage6delete0Bb_
FN:358,_RNCNvXsj_NtNtCs4ZEr9HMJnjR_13p2p_ai_agents7storage5localNtB7_13CustomStorageNtB7_7Storage3get0Bb_
FN:368,_RNCNvXsj_NtNtCs4ZEr9HMJnjR_13p2p_ai_agents7storage5localNtB7_13CustomStorageNtB7_7Storage3put0Bb_
FN:373,_RNCNvXsj_NtNtCs4ZEr9HMJnjR_13p2p_ai_agents7storage5localNtB7_13CustomStorageNtB7_7Storage6delete0Bb_
FN:86,_RINvMNtNtCsazECCRb7Zym_13p2p_ai_agents7storage5localNtB3_12LocalStorage3newRNtNtCsj7Z7QldOUMz_3std4path4PathECsdJUYruqyWSW_12storage_perf
FNDA:0,_RINvMNtNtCsazECCRb7Zym_13p2p_ai_agents7storage5localNtB3_12LocalStorage12with_metricspEB7_
FNDA:0,_RINvMNtNtCsazECCRb7Zym_13p2p_ai_agents7storage5localNtB3_12LocalStorage3newRNtNtCsj7Z7QldOUMz_3std4path7PathBufEB7_
FNDA:21649,_RNCNvXsd_NtNtCsazECCRb7Zym_13p2p_ai_agents7storage5localNtB7_12LocalStorageNtB7_7Storage3get0Bb_
FNDA:13853,_RNCNvXsd_NtNtCsazECCRb7Zym_13p2p_ai_agents7storage5localNtB7_12LocalStorageNtB7_7Storage3put0Bb_
FNDA:1101,_RNCNvXsd_NtNtCsazECCRb7Zym_13p2p_ai_agents7storage5localNtB7_12LocalStorageNtB7_7Storage6delete0Bb_
FNDA:1100,_RNCNvXsf_NtNtCsazECCRb7Zym_13p2p_ai_agents7storage5localNtB7_18DistributedStorageNtB7_7Storage3get0Bb_
FNDA:3300,_RNCNvXsf_NtNtCsazECCRb7Zym_13p2p_ai_agents7storage5localNtB7_18DistributedStorageNtB7_7Storage3put0Bb_
FNDA:1100,_RNCNvXsf_NtNtCsazECCRb7Zym_13p2p_ai_agents7storage5localNtB7_18DistributedStorageNtB7_7Storage6delete0Bb_
FNDA:1100,_RNCNvXsh_NtNtCsazECCRb7Zym_13p2p_ai_agents7storage5localNtB7_12CacheStorageNtB7_7Storage3get0Bb_
FNDA:3300,_RNCNvXsh_NtNtCsazECCRb7Zym_13p2p_ai_agents7storage5localNtB7_12CacheStorageNtB7_7Storage3put0Bb_
FNDA:1100,_RNCNvXsh_NtNtCsazECCRb7Zym_13p2p_ai_agents7storage5localNtB7_12CacheStorageNtB7_7Storage6delete0Bb_
FNDA:1100,_RNCNvXsj_NtNtCsazECCRb7Zym_13p2p_ai_agents7storage5localNtB7_13CustomStorageNtB7_7Storage3get0Bb_
FNDA:3300,_RNCNvXsj_NtNtCsazECCRb7Zym_13p2p_ai_agents7storage5localNtB7_13CustomStorageNtB7_7Storage3put0Bb_
FNDA:1100,_RNCNvXsj_NtNtCsazECCRb7Zym_13p2p_ai_agents7storage5localNtB7_13CustomStorageNtB7_7Storage6delete0Bb_
FNDA:36603,_RNvMNtNtCsazECCRb7Zym_13p2p_ai_agents7storage5localNtB2_12LocalStorage11key_to_path
FNDA:36603,_RNvMNtNtCsazECCRb7Zym_13p2p_ai_agents7storage5localNtB2_12LocalStorage12validate_key
FNDA:2,_RNvMs0_NtNtCsazECCRb7Zym_13p2p_ai_agents7storage5localNtB5_12CacheStorage3new
FNDA:2,_RNvMs1_NtNtCsazECCRb7Zym_13p2p_ai_agents7storage5localNtB5_13CustomStorage3new
FNDA:2,_RNvMs_NtNtCsazECCRb7Zym_13p2p_ai_agents7storage5localNtB4_18DistributedStorage3new
FNDA:21649,_RNvXsd_NtNtCsazECCRb7Zym_13p2p_ai_agents7storage5localNtB5_12LocalStorageNtB5_7Storage3get
FNDA:13853,_RNvXsd_NtNtCsazECCRb7Zym_13p2p_ai_agents7storage5localNtB5_12LocalStorageNtB5_7Storage3put
FNDA:1101,_RNvXsd_NtNtCsazECCRb7Zym_13p2p_ai_agents7storage5localNtB5_12LocalStorageNtB5_7Storage6delete
FNDA:1100,_RNvXsf_NtNtCsazECCRb7Zym_13p2p_ai_agents7storage5localNtB5_18DistributedStorageNtB5_7Storage3get
FNDA:3300,_RNvXsf_NtNtCsazECCRb7Zym_13p2p_ai_agents7storage5localNtB5_18DistributedStorageNtB5_7Storage3put
FNDA:1100,_RNvXsf_NtNtCsazECCRb7Zym_13p2p_ai_agents7storage5localNtB5_18DistributedStorageNtB5_7Storage6delete
FNDA:1100,_RNvXsh_NtNtCsazECCRb7Zym_13p2p_ai_agents7storage5localNtB5_12CacheStorageNtB5_7Storage3get
FNDA:3300,_RNvXsh_NtNtCsazECCRb7Zym_13p2p_ai_agents7storage5localNtB5_12CacheStorageNtB5_7Storage3put
FNDA:1100,_RNvXsh_NtNtCsazECCRb7Zym_13p2p_ai_agents7storage5localNtB5_12CacheStorageNtB5_7Storage6delete
FNDA:1100,_RNvXsj_NtNtCsazECCRb7Zym_13p2p_ai_agents7storage5localNtB5_13CustomStorageNtB5_7Storage3get
FNDA:3300,_RNvXsj_NtNtCsazECCRb7Zym_13p2p_ai_agents7storage5localNtB5_13CustomStorageNtB5_7Storage3put
FNDA:1100,_RNvXsj_NtNtCsazECCRb7Zym_13p2p_ai_agents7storage5localNtB5_13CustomStorageNtB5_7Storage6delete
FNDA:1,_RINvMNtNtCsazECCRb7Zym_13p2p_ai_agents7storage5localNtB3_12LocalStorage12with_metricsRNtNtCsj7Z7QldOUMz_3std4path4PathECshJSWJcNPkNy_19metrics_integration
FNDA:0,_RINvMNtNtCs4ZEr9HMJnjR_13p2p_ai_agents7storage5localNtB3_12LocalStorage12with_metricspEB7_
FNDA:10243,_RNvMNtNtCs4ZEr9HMJnjR_13p2p_ai_agents7storage5localNtB2_12LocalStorage11key_to_path
FNDA:10243,_RNvMNtNtCs4ZEr9HMJnjR_13p2p_ai_agents7storage5localNtB2_12LocalStorage12validate_key
FNDA:2,_RNvMs0_NtNtCs4ZEr9HMJnjR_13p2p_ai_agents7storage5localNtB5_12CacheStorage3new
FNDA:2,_RNvMs1_NtNtCs4ZEr9HMJnjR_13p2p_ai_agents7storage5localNtB5_13CustomStorage3new
FNDA:2,_RNvMs_NtNtCs4ZEr9HMJnjR_13p2p_ai_agents7storage5localNtB4_18DistributedStorage3new
FNDA:113,_RNvXsd_NtNtCs4ZEr9HMJnjR_13p2p_ai_agents7storage5localNtB5_12LocalStorageNtB5_7Storage3get
FNDA:10127,_RNvXsd_NtNtCs4ZEr9HMJnjR_13p2p_ai_agents7storage5localNtB5_12LocalStorageNtB5_7Storage3put
FNDA:3,_RNvXsd_NtNtCs4ZEr9HMJnjR_13p2p_ai_agents7storage5localNtB5_12LocalStorageNtB5_7Storage6delete
FNDA:1,_RNvXsf_NtNtCs4ZEr9HMJnjR_13p2p_ai_agents7storage5localNtB5_18DistributedStorageNtB5_7Storage3get
FNDA:10001,_RNvXsf_NtNtCs4ZEr9HMJnjR_13p2p_ai_agents7storage5localNtB5_18DistributedStorageNtB5_7Storage3put
FNDA:1,_RNvXsf_NtNtCs4ZEr9HMJnjR_13p2p_ai_agents7storage5localNtB5_18DistributedStorageNtB5_7Storage6delete
FNDA:1,_RNvXsh_NtNtCs4ZEr9HMJnjR_13p2p_ai_agents7storage5localNtB5_12CacheStorageNtB5_7Storage3get
FNDA:10001,_RNvXsh_NtNtCs4ZEr9HMJnjR_13p2p_ai_agents7storage5localNtB5_12CacheStorageNtB5_7Storage3put
FNDA:1,_RNvXsh_NtNtCs4ZEr9HMJnjR_13p2p_ai_agents7storage5localNtB5_12CacheStorageNtB5_7Storage6delete
FNDA:1,_RNvXsj_NtNtCs4ZEr9HMJnjR_13p2p_ai_agents7storage5localNtB5_13CustomStorageNtB5_7Storage3get
FNDA:10001,_RNvXsj_NtNtCs4ZEr9HMJnjR_13p2p_ai_agents7storage5localNtB5_13CustomStorageNtB5_7Storage3put
FNDA:1,_RNvXsj_NtNtCs4ZEr9HMJnjR_13p2p_ai_agents7storage5localNtB5_13CustomStorageNtB5_7Storage6delete
FNDA:10,_RINvMNtNtCs4ZEr9HMJnjR_13p2p_ai_agents7storage5localNtB3_12LocalStorage3newRNtNtCsj7Z7QldOUMz_3std4path4PathEB7_
FNDA:8,_RINvMNtNtCs4ZEr9HMJnjR_13p2p_ai_agents7storage5localNtB3_12LocalStorage3newRNtNtCsj7Z7QldOUMz_3std4path7PathBufEB7_
FNDA:113,_RNCNvXsd_NtNtCs4ZEr9HMJnjR_13p2p_ai_agents7storage5localNtB7_12LocalStorageNtB7_7Storage3get0Bb_
FNDA:10127,_RNCNvXsd_NtNtCs4ZEr9HMJnjR_13p2p_ai_agents7storage5localNtB7_12LocalStorageNtB7_7Storage3put0Bb_
FNDA:3,_RNCNvXsd_NtNtCs4ZEr9HMJnjR_13p2p_ai_agents7storage5localNtB7_12LocalStorageNtB7_7Storage6delete0Bb_
FNDA:1,_RNCNvXsf_NtNtCs4ZEr9HMJnjR_13p2p_ai_agents7storage5localNtB7_18DistributedStorageNtB7_7Storage3get0Bb_
FNDA:10001,_RNCNvXsf_NtNtCs4ZEr9HMJnjR_13p2p_ai_agents7storage5localNtB7_18DistributedStorageNtB7_7Storage3put0Bb_
FNDA:1,_RNCNvXsf_NtNtCs4ZEr9HMJnjR_13p2p_ai_agents7storage5localNtB7_18DistributedStorageNtB7_7Storage6delete0Bb_
FNDA:1,_RNCNvXsh_NtNtCs4ZEr9HMJnjR_13p2p_ai_agents7storage5localNtB7_12CacheStorageNtB7_7Storage3get0Bb_
FNDA:10001,_RNCNvXsh_NtNtCs4ZEr9HMJnjR_13p2p_ai_agents7storage5localNtB7_12CacheStorageNtB7_7Storage3put0Bb_
FNDA:1,_RNCNvXsh_NtNtCs4ZEr9HMJnjR_13p2p_ai_agents7storage5localNtB7_12CacheStorageNtB7_7Storage6delete0Bb_
FNDA:1,_RNCNvXsj_NtNtCs4ZEr9HMJnjR_13p2p_ai_agents7storage5localNtB7_13CustomStorageNtB7_7Storage3get0Bb_
FNDA:10001,_RNCNvXsj_NtNtCs4ZEr9HMJnjR_13p2p_ai_agents7storage5localNtB7_13CustomStorageNtB7_7Storage3put0Bb_
FNDA:1,_RNCNvXsj_NtNtCs4ZEr9HMJnjR_13p2p_ai_agents7storage5localNtB7_13CustomStorageNtB7_7Storage6delete0Bb_
FNDA:3,_RINvMNtNtCsazECCRb7Zym_13p2p_ai_agents7storage5localNtB3_12LocalStorage3newRNtNtCsj7Z7QldOUMz_3std4path4PathECsdJUYruqyWSW_12storage_perf
FNF:31
FNH:31
DA:86,21
DA:87,21
DA:88,21
DA:89,21
DA:90,21
DA:94,21
DA:95,21
DA:96,21
DA:97,21
DA:100,21
DA:101,21
DA:102,21
DA:103,21
DA:104,21
DA:105,21
DA:109,1
DA:110,1
DA:111,1
DA:112,1
DA:113,1
DA:114,1
DA:117,1
DA:118,1
DA:119,1
DA:120,1
DA:123,1
DA:124,1
DA:125,1
DA:126,1
DA:127,1
DA:130,46846
DA:131,46846
DA:132,1
DA:133,46845
DA:134,46845
DA:135,3
DA:136,3
DA:137,3
DA:138,3
DA:139,46842
DA:140,46842
DA:141,0
DA:142,0
DA:143,0
DA:144,0
DA:145,46842
DA:146,46842
DA:147,1
DA:148,1
DA:149,1
DA:150,1
DA:151,46841
DA:152,46841
DA:153,46846
DA:156,46846
DA:157,46846
DA:158,46841
DA:159,46846
DA:168,21762
DA:170,21762
DA:174,21762
DA:176,21762
DA:177,21659
DA:178,103
DA:179,0
DA:183,21762
DA:184,1
DA:185,1
DA:186,21761
DA:188,21762
DA:189,43524
DA:196,23980
DA:198,23980
DA:202,23980
DA:203,23975
DA:204,23975
DA:205,23975
DA:206,23975
DA:207,23975
DA:208,23975
DA:211,23975
DA:212,23975
DA:213,0
DA:214,0
DA:215,0
DA:216,0
DA:221,23975
DA:222,1
DA:223,1
DA:224,23974
DA:226,23975
DA:227,47960
DA:229,1104
DA:231,1104
DA:235,1104
DA:237,1104
DA:238,1103
DA:239,1
DA:240,0
DA:244,1104
DA:245,1
DA:246,1
DA:247,1103
DA:249,1104
DA:250,2208
DA:261,4
DA:262,4
DA:263,4
DA:264,4
DA:265,4
DA:274,1101
DA:276,1101
DA:277,2202
DA:284,13301
DA:286,13301
DA:287,26602
DA:289,1101
DA:291,1101
DA:292,2202
DA:303,4
DA:304,4
DA:305,4
DA:306,4
DA:307,4
DA:316,1101
DA:318,1101
DA:319,2202
DA:326,13301
DA:328,13301
DA:329,26602
DA:331,1101
DA:333,1101
DA:334,2202
DA:345,4
DA:346,4
DA:347,4
DA:348,4
DA:349,4
DA:358,1101
DA:360,1101
DA:361,2202
DA:368,13301
DA:370,13301
DA:371,26602
DA:373,1101
DA:375,1101
DA:376,2202
BRF:0
BRH:0
LF:159
LH:147
end_of_record
SF:/Users/renegeers/Source/p2p-ai-agents/src/storage/manager.rs
FN:190,_RNCNCNvMs0_NtNtCsazECCRb7Zym_13p2p_ai_agents7storage7managerNtB9_14StorageManager14remove_backend00Bd_
FN:168,_RNCNvMs0_NtNtCsazECCRb7Zym_13p2p_ai_agents7storage7managerNtB7_14StorageManager11add_backend0Bb_
FN:195,_RNCNvMs0_NtNtCsazECCRb7Zym_13p2p_ai_agents7storage7managerNtB7_14StorageManager11has_backend0Bb_
FN:201,_RNCNvMs0_NtNtCsazECCRb7Zym_13p2p_ai_agents7storage7managerNtB7_14StorageManager13list_backends0Bb_
FN:222,_RNCNvMs0_NtNtCsazECCRb7Zym_13p2p_ai_agents7storage7managerNtB7_14StorageManager13reset_metrics0Bb_
FN:186,_RNCNvMs0_NtNtCsazECCRb7Zym_13p2p_ai_agents7storage7managerNtB7_14StorageManager14remove_backend0Bb_
FN:217,_RNCNvMs0_NtNtCsazECCRb7Zym_13p2p_ai_agents7storage7managerNtB7_14StorageManager7metrics0Bb_
FN:305,_RINvMs0_NtNtCsazECCRb7Zym_13p2p_ai_agents7storage7managerNtB6_14StorageManager18execute_with_retryNCNCNvXsd_B6_BT_NtNtB8_5local7Storage3get0s_0INtNtCsaTRkahAGrLL_4core6option6OptionINtNtCsfmASsVe1tYz_5alloc3vec3VechEEEBa_
FN:305,_RINvMs0_NtNtCsazECCRb7Zym_13p2p_ai_agents7storage7managerNtB6_14StorageManager18execute_with_retryNCNCNvXsd_B6_BT_NtNtB8_5local7Storage3put0s0_0uEBa_
FN:305,_RINvMs0_NtNtCsazECCRb7Zym_13p2p_ai_agents7storage7managerNtB6_14StorageManager18execute_with_retryNCNCNvXsd_B6_BT_NtNtB8_5local7Storage6delete0s_0uEBa_
FN:317,_RNCINvMs0_NtNtCsazECCRb7Zym_13p2p_ai_agents7storage7managerNtB8_14StorageManager18execute_with_retryNCNCNvXsd_B8_BV_NtNtBa_5local7Storage3get0s_0INtNtCsaTRkahAGrLL_4core6option6OptionINtNtCsfmASsVe1tYz_5alloc3vec3VechEEE0Bc_
FN:317,_RNCINvMs0_NtNtCsazECCRb7Zym_13p2p_ai_agents7storage7managerNtB8_14StorageManager18execute_with_retryNCNCNvXsd_B8_BV_NtNtBa_5local7Storage3put0s0_0uE0Bc_
FN:317,_RNCINvMs0_NtNtCsazECCRb7Zym_13p2p_ai_agents7storage7managerNtB8_14StorageManager18execute_with_retryNCNCNvXsd_B8_BV_NtNtBa_5local7Storage6delete0s_0uE0Bc_
FN:340,_RNCNCINvMs0_NtNtCsazECCRb7Zym_13p2p_ai_agents7storage7managerNtBa_14StorageManager18execute_with_retryNCNCNvXsd_Ba_BX_NtNtBc_5local7Storage3get0s_0INtNtCsaTRkahAGrLL_4core6option6OptionINtNtCsfmASsVe1tYz_5alloc3vec3VechEEE00Be_
FN:341,_RNCNCINvMs0_NtNtCsazECCRb7Zym_13p2p_ai_agents7storage7managerNtBa_14StorageManager18execute_with_retryNCNCNvXsd_Ba_BX_NtNtBc_5local7Storage3get0s_0INtNtCsaTRkahAGrLL_4core6option6OptionINtNtCsfmASsVe1tYz_5alloc3vec3VechEEE0s_0Be_
FN:340,_RNCNCINvMs0_NtNtCsazECCRb7Zym_13p2p_ai_agents7storage7managerNtBa_14StorageManager18execute_with_retryNCNCNvXsd_Ba_BX_NtNtBc_5local7Storage3put0s0_0uE00Be_
FN:341,_RNCNCINvMs0_NtNtCsazECCRb7Zym_13p2p_ai_agents7storage7managerNtBa_14StorageManager18execute_with_retryNCNCNvXsd_Ba_BX_NtNtBc_5local7Storage3put0s0_0uE0s_0Be_
FN:340,_RNCNCINvMs0_NtNtCsazECCRb7Zym_13p2p_ai_agents7storage7managerNtBa_14StorageManager18execute_with_retryNCNCNvXsd_Ba_BX_NtNtBc_5local7Storage6delete0s_0uE00Be_
FN:341,_RNCNCINvMs0_NtNtCsazECCRb7Zym_13p2p_ai_agents7storage7managerNtBa_14StorageManager18execute_with_retryNCNCNvXsd_Ba_BX_NtNtBc_5local7Storage6delete0s_0uE0s_0Be_
FN:361,_RNCNCNCNvXsd_NtNtCsazECCRb7Zym_13p2p_ai_agents7storage7managerNtBb_14StorageManagerNtNtBd_5local7Storage3get0s_00Bf_
FN:408,_RNCNCNCNvXsd_NtNtCsazECCRb7Zym_13p2p_ai_agents7storage7managerNtBb_14StorageManagerNtNtBd_5local7Storage3put0s0_00Bf_
FN:425,_RNCNCNCNvXsd_NtNtCsazECCRb7Zym_13p2p_ai_agents7storage7managerNtBb_14StorageManagerNtNtBd_5local7Storage6delete0s_00Bf_
FN:259,_RNCNCNvMs0_NtNtCsazECCRb7Zym_13p2p_ai_agents7storage7managerNtB9_14StorageManager15select_backends00Bd_
FN:273,_RNCNCNvMs0_NtNtCsazECCRb7Zym_13p2p_ai_agents7storage7managerNtB9_14StorageManager15select_backends0s_0Bd_
FN:356,_RNCNCNvXsd_NtNtCsazECCRb7Zym_13p2p_ai_agents7storage7managerNtB9_14StorageManagerNtNtBb_5local7Storage3get00Bd_
FN:364,_RNCNCNvXsd_NtNtCsazECCRb7Zym_13p2p_ai_agents7storage7managerNtB9_14StorageManagerNtNtBb_5local7Storage3get0s0_0Bd_
FN:359,_RNCNCNvXsd_NtNtCsazECCRb7Zym_13p2p_ai_agents7storage7managerNtB9_14StorageManagerNtNtBb_5local7Storage3get0s_0Bd_
FN:376,_RNCNCNvXsd_NtNtCsazECCRb7Zym_13p2p_ai_agents7storage7managerNtB9_14StorageManagerNtNtBb_5local7Storage3put00Bd_
FN:405,_RNCNCNvXsd_NtNtCsazECCRb7Zym_13p2p_ai_agents7storage7managerNtB9_14StorageManagerNtNtBb_5local7Storage3put0s0_0Bd_
FN:411,_RNCNCNvXsd_NtNtCsazECCRb7Zym_13p2p_ai_agents7storage7managerNtB9_14StorageManagerNtNtBb_5local7Storage3put0s1_0Bd_
FN:394,_RNCNCNvXsd_NtNtCsazECCRb7Zym_13p2p_ai_agents7storage7managerNtB9_14StorageManagerNtNtBb_5local7Storage3put0s_0Bd_
FN:420,_RNCNCNvXsd_NtNtCsazECCRb7Zym_13p2p_ai_agents7storage7managerNtB9_14StorageManagerNtNtBb_5local7Storage6delete00Bd_
FN:428,_RNCNCNvXsd_NtNtCsazECCRb7Zym_13p2p_ai_agents7storage7managerNtB9_14StorageManagerNtNtBb_5local7Storage6delete0s0_0Bd_
FN:423,_RNCNCNvXsd_NtNtCsazECCRb7Zym_13p2p_ai_agents7storage7managerNtB9_14StorageManagerNtNtBb_5local7Storage6delete0s_0Bd_
FN:228,_RNCNvMs0_NtNtCsazECCRb7Zym_13p2p_ai_agents7storage7managerNtB7_14StorageManager15select_backends0Bb_
FN:352,_RNCNvXsd_NtNtCsazECCRb7Zym_13p2p_ai_agents7storage7managerNtB7_14StorageManagerNtNtB9_5local7Storage3get0Bb_
FN:372,_RNCNvXsd_NtNtCsazECCRb7Zym_13p2p_ai_agents7storage7managerNtB7_14StorageManagerNtNtB9_5local7Storage3put0Bb_
FN:416,_RNCNvXsd_NtNtCsazECCRb7Zym_13p2p_ai_agents7storage7managerNtB7_14StorageManagerNtNtB9_5local7Storage6delete0Bb_
FN:207,_RNvMs0_NtNtCsazECCRb7Zym_13p2p_ai_agents7storage7managerNtB5_14StorageManager10set_policy
FN:168,_RNvMs0_NtNtCsazECCRb7Zym_13p2p_ai_agents7storage7managerNtB5_14StorageManager11add_backend
FN:195,_RNvMs0_NtNtCsazECCRb7Zym_13p2p_ai_agents7storage7managerNtB5_14StorageManager11has_backend
FN:201,_RNvMs0_NtNtCsazECCRb7Zym_13p2p_ai_agents7storage7managerNtB5_14StorageManager13list_backends
FN:222,_RNvMs0_NtNtCsazECCRb7Zym_13p2p_ai_agents7storage7managerNtB5_14StorageManager13reset_metrics
FN:157,_RNvMs0_NtNtCsazECCRb7Zym_13p2p_ai_agents7storage7managerNtB5_14StorageManager13with_registry
FN:186,_RNvMs0_NtNtCsazECCRb7Zym_13p2p_ai_agents7storage7managerNtB5_14StorageManager14remove_backend
FN:228,_RNvMs0_NtNtCsazECCRb7Zym_13p2p_ai_agents7storage7managerNtB5_14StorageManager15select_backends
FN:146,_RNvMs0_NtNtCsazECCRb7Zym_13p2p_ai_agents7storage7managerNtB5_14StorageManager3new
FN:212,_RNvMs0_NtNtCsazECCRb7Zym_13p2p_ai_agents7storage7managerNtB5_14StorageManager6policy
FN:217,_RNvMs0_NtNtCsazECCRb7Zym_13p2p_ai_agents7storage7managerNtB5_14StorageManager7metrics
FN:103,_RNvMs_NtNtCsazECCRb7Zym_13p2p_ai_agents7storage7managerNtB4_14StorageMetrics12success_rate
FN:112,_RNvMs_NtNtCsazECCRb7Zym_13p2p_ai_agents7storage7managerNtB4_14StorageMetrics14cache_hit_rate
FN:93,_RNvMs_NtNtCsazECCRb7Zym_13p2p_ai_agents7storage7managerNtB4_14StorageMetrics16record_cache_hit
FN:79,_RNvMs_NtNtCsazECCRb7Zym_13p2p_ai_agents7storage7managerNtB4_14StorageMetrics16record_operation
FN:98,_RNvMs_NtNtCsazECCRb7Zym_13p2p_ai_agents7storage7managerNtB4_14StorageMetrics17record_cache_miss
FN:55,_RNvXNtNtCsazECCRb7Zym_13p2p_ai_agents7storage7managerNtB2_13StoragePolicyNtNtCsaTRkahAGrLL_4core7default7Default7default
FN:433,_RNvXs1_NtNtCsazECCRb7Zym_13p2p_ai_agents7storage7managerNtB5_14StorageManagerNtNtCsaTRkahAGrLL_4core7default7Default7default
FN:365,_RNvXsd_NtNtCsazECCRb7Zym_13p2p_ai_agents7storage7managerNtB5_14StorageManagerNtNtB7_5local7Storage3get
FN:414,_RNvXsd_NtNtCsazECCRb7Zym_13p2p_ai_agents7storage7managerNtB5_14StorageManagerNtNtB7_5local7Storage3put
FN:429,_RNvXsd_NtNtCsazECCRb7Zym_13p2p_ai_agents7storage7managerNtB5_14StorageManagerNtNtB7_5local7Storage6delete
FN:443,_RNCNvNtNtNtCs4ZEr9HMJnjR_13p2p_ai_agents7storage7manager5tests19create_test_manager0B9_
FN:545,_RNCNvNtNtNtCs4ZEr9HMJnjR_13p2p_ai_agents7storage7manager5testss_12test_metrics0B9_
FN:561,_RNCNvNtNtNtCs4ZEr9HMJnjR_13p2p_ai_agents7storage7manager5testss_21test_disabled_backend0B9_
FN:459,_RNCNvNtNtNtCs4ZEr9HMJnjR_13p2p_ai_agents7storage7manager5testss_21test_manager_creation0B9_
FN:516,_RNCNvNtNtNtCs4ZEr9HMJnjR_13p2p_ai_agents7storage7manager5testss_22test_policy_always_use0B9_
FN:465,_RNCNvNtNtNtCs4ZEr9HMJnjR_13p2p_ai_agents7storage7manager5testss_23test_backend_management0B9_
FN:489,_RNCNvNtNtNtCs4ZEr9HMJnjR_13p2p_ai_agents7storage7manager5testss_23test_storage_operations0B9_
FN:529,_RNCNvNtNtNtCs4ZEr9HMJnjR_13p2p_ai_agents7storage7manager5testss_27test_policy_first_available0B9_
FN:195,_RNCNvMs0_NtNtCs4ZEr9HMJnjR_13p2p_ai_agents7storage7managerNtB7_14StorageManager11has_backend0Bb_
FN:222,_RNCNvMs0_NtNtCs4ZEr9HMJnjR_13p2p_ai_agents7storage7managerNtB7_14StorageManager13reset_metrics0Bb_
FN:195,_RNvMs0_NtNtCs4ZEr9HMJnjR_13p2p_ai_agents7storage7managerNtB5_14StorageManager11has_backend
FN:222,_RNvMs0_NtNtCs4ZEr9HMJnjR_13p2p_ai_agents7storage7managerNtB5_14StorageManager13reset_metrics
FN:157,_RNvMs0_NtNtCs4ZEr9HMJnjR_13p2p_ai_agents7storage7managerNtB5_14StorageManager13with_registry
FN:212,_RNvMs0_NtNtCs4ZEr9HMJnjR_13p2p_ai_agents7storage7managerNtB5_14StorageManager6policy
FN:103,_RNvMs_NtNtCs4ZEr9HMJnjR_13p2p_ai_agents7storage7managerNtB4_14StorageMetrics12success_rate
FN:112,_RNvMs_NtNtCs4ZEr9HMJnjR_13p2p_ai_agents7storage7managerNtB4_14StorageMetrics14cache_hit_rate
FN:93,_RNvMs_NtNtCs4ZEr9HMJnjR_13p2p_ai_agents7storage7managerNtB4_14StorageMetrics16record_cache_hit
FN:98,_RNvMs_NtNtCs4ZEr9HMJnjR_13p2p_ai_agents7storage7managerNtB4_14StorageMetrics17record_cache_miss
FN:433,_RNvXs1_NtNtCs4ZEr9HMJnjR_13p2p_ai_agents7storage7managerNtB5_14StorageManagerNtNtCsaTRkahAGrLL_4core7default7Default7default
FN:305,_RINvMs0_NtNtCs4ZEr9HMJnjR_13p2p_ai_agents7storage7managerNtB6_14StorageManager18execute_with_retryNCNCNvXsd_B6_BT_NtNtB8_5local7Storage3get0s_0INtNtCsaTRkahAGrLL_4core6option6OptionINtNtCsfmASsVe1tYz_5alloc3vec3VechEEEBa_
FN:305,_RINvMs0_NtNtCs4ZEr9HMJnjR_13p2p_ai_agents7storage7managerNtB6_14StorageManager18execute_with_retryNCNCNvXsd_B6_BT_NtNtB8_5local7Storage3put0s0_0uEBa_
FN:305,_RINvMs0_NtNtCs4ZEr9HMJnjR_13p2p_ai_agents7storage7managerNtB6_14StorageManager18execute_with_retryNCNCNvXsd_B6_BT_NtNtB8_5local7Storage6delete0s_0uEBa_
FN:317,_RNCINvMs0_NtNtCs4ZEr9HMJnjR_13p2p_ai_agents7storage7managerNtB8_14StorageManager18execute_with_retryNCNCNvXsd_B8_BV_NtNtBa_5local7Storage3get0s_0INtNtCsaTRkahAGrLL_4core6option6OptionINtNtCsfmASsVe1tYz_5alloc3vec3VechEEE0Bc_
FN:317,_RNCINvMs0_NtNtCs4ZEr9HMJnjR_13p2p_ai_agents7storage7managerNtB8_14StorageManager18execute_with_retryNCNCNvXsd_B8_BV_NtNtBa_5local7Storage3put0s0_0uE0Bc_
FN:317,_RNCINvMs0_NtNtCs4ZEr9HMJnjR_13p2p_ai_agents7storage7managerNtB8_14StorageManager18execute_with_retryNCNCNvXsd_B8_BV_NtNtBa_5local7Storage6delete0s_0uE0Bc_
FN:340,_RNCNCINvMs0_NtNtCs4ZEr9HMJnjR_13p2p_ai_agents7storage7managerNtBa_14StorageManager18execute_with_retryNCNCNvXsd_Ba_BX_NtNtBc_5local7Storage3get0s_0INtNtCsaTRkahAGrLL_4core6option6OptionINtNtCsfmASsVe1tYz_5alloc3vec3VechEEE00Be_
FN:341,_RNCNCINvMs0_NtNtCs4ZEr9HMJnjR_13p2p_ai_agents7storage7managerNtBa_14StorageManager18execute_with_retryNCNCNvXsd_Ba_BX_NtNtBc_5local7Storage3get0s_0INtNtCsaTRkahAGrLL_4core6option6OptionINtNtCsfmASsVe1tYz_5alloc3vec3VechEEE0s_0Be_
FN:340,_RNCNCINvMs0_NtNtCs4ZEr9HMJnjR_13p2p_ai_agents7storage7managerNtBa_14StorageManager18execute_with_retryNCNCNvXsd_Ba_BX_NtNtBc_5local7Storage3put0s0_0uE00Be_
FN:341,_RNCNCINvMs0_NtNtCs4ZEr9HMJnjR_13p2p_ai_agents7storage7managerNtBa_14StorageManager18execute_with_retryNCNCNvXsd_Ba_BX_NtNtBc_5local7Storage3put0s0_0uE0s_0Be_
FN:340,_RNCNCINvMs0_NtNtCs4ZEr9HMJnjR_13p2p_ai_agents7storage7managerNtBa_14StorageManager18execute_with_retryNCNCNvXsd_Ba_BX_NtNtBc_5local7Storage6delete0s_0uE00Be_
FN:341,_RNCNCINvMs0_NtNtCs4ZEr9HMJnjR_13p2p_ai_agents7storage7managerNtBa_14StorageManager18execute_with_retryNCNCNvXsd_Ba_BX_NtNtBc_5local7Storage6delete0s_0uE0s_0Be_
FN:361,_RNCNCNCNvXsd_NtNtCs4ZEr9HMJnjR_13p2p_ai_agents7storage7managerNtBb_14StorageManagerNtNtBd_5local7Storage3get0s_00Bf_
FN:408,_RNCNCNCNvXsd_NtNtCs4ZEr9HMJnjR_13p2p_ai_agents7storage7managerNtBb_14StorageManagerNtNtBd_5local7Storage3put0s0_00Bf_
FN:425,_RNCNCNCNvXsd_NtNtCs4ZEr9HMJnjR_13p2p_ai_agents7storage7managerNtBb_14StorageManagerNtNtBd_5local7Storage6delete0s_00Bf_
FN:190,_RNCNCNvMs0_NtNtCs4ZEr9HMJnjR_13p2p_ai_agents7storage7managerNtB9_14StorageManager14remove_backend00Bd_
FN:259,_RNCNCNvMs0_NtNtCs4ZEr9HMJnjR_13p2p_ai_agents7storage7managerNtB9_14StorageManager15select_backends00Bd_
FN:273,_RNCNCNvMs0_NtNtCs4ZEr9HMJnjR_13p2p_ai_agents7storage7managerNtB9_14StorageManager15select_backends0s_0Bd_
FN:356,_RNCNCNvXsd_NtNtCs4ZEr9HMJnjR_13p2p_ai_agents7storage7managerNtB9_14StorageManagerNtNtBb_5local7Storage3get00Bd_
FN:364,_RNCNCNvXsd_NtNtCs4ZEr9HMJnjR_13p2p_ai_agents7storage7managerNtB9_14StorageManagerNtNtBb_5local7Storage3get0s0_0Bd_
FN:359,_RNCNCNvXsd_NtNtCs4ZEr9HMJnjR_13p2p_ai_agents7storage7managerNtB9_14StorageManagerNtNtBb_5local7Storage3get0s_0Bd_
FN:376,_RNCNCNvXsd_NtNtCs4ZEr9HMJnjR_13p2p_ai_agents7storage7managerNtB9_14StorageManagerNtNtBb_5local7Storage3put00Bd_
FN:405,_RNCNCNvXsd_NtNtCs4ZEr9HMJnjR_13p2p_ai_agents7storage7managerNtB9_14StorageManagerNtNtBb_5local7Storage3put0s0_0Bd_
FN:411,_RNCNCNvXsd_NtNtCs4ZEr9HMJnjR_13p2p_ai_agents7storage7managerNtB9_14StorageManagerNtNtBb_5local7Storage3put0s1_0Bd_
FN:394,_RNCNCNvXsd_NtNtCs4ZEr9HMJnjR_13p2p_ai_agents7storage7managerNtB9_14StorageManagerNtNtBb_5local7Storage3put0s_0Bd_
FN:420,_RNCNCNvXsd_NtNtCs4ZEr9HMJnjR_13p2p_ai_agents7storage7managerNtB9_14StorageManagerNtNtBb_5local7Storage6delete00Bd_
FN:428,_RNCNCNvXsd_NtNtCs4ZEr9HMJnjR_13p2p_ai_agents7storage7managerNtB9_14StorageManagerNtNtBb_5local7Storage6delete0s0_0Bd_
FN:423,_RNCNCNvXsd_NtNtCs4ZEr9HMJnjR_13p2p_ai_agents7storage7managerNtB9_14StorageManagerNtNtBb_5local7Storage6delete0s_0Bd_
FN:168,_RNCNvMs0_NtNtCs4ZEr9HMJnjR_13p2p_ai_agents7storage7managerNtB7_14StorageManager11add_backend0Bb_
FN:201,_RNCNvMs0_NtNtCs4ZEr9HMJnjR_13p2p_ai_agents7storage7managerNtB7_14StorageManager13list_backends0Bb_
FN:186,_RNCNvMs0_NtNtCs4ZEr9HMJnjR_13p2p_ai_agents7storage7managerNtB7_14StorageManager14remove_backend0Bb_
FN:228,_RNCNvMs0_NtNtCs4ZEr9HMJnjR_13p2p_ai_agents7storage7managerNtB7_14StorageManager15select_backends0Bb_
FN:217,_RNCNvMs0_NtNtCs4ZEr9HMJnjR_13p2p_ai_agents7storage7managerNtB7_14StorageManager7metrics0Bb_
FN:352,_RNCNvXsd_NtNtCs4ZEr9HMJnjR_13p2p_ai_agents7storage7managerNtB7_14StorageManagerNtNtB9_5local7Storage3get0Bb_
FN:372,_RNCNvXsd_NtNtCs4ZEr9HMJnjR_13p2p_ai_agents7storage7managerNtB7_14StorageManagerNtNtB9_5local7Storage3put0Bb_
FN:416,_RNCNvXsd_NtNtCs4ZEr9HMJnjR_13p2p_ai_agents7storage7managerNtB7_14StorageManagerNtNtB9_5local7Storage6delete0Bb_
FN:207,_RNvMs0_NtNtCs4ZEr9HMJnjR_13p2p_ai_agents7storage7managerNtB5_14StorageManager10set_policy
FN:168,_RNvMs0_NtNtCs4ZEr9HMJnjR_13p2p_ai_agents7storage7managerNtB5_14StorageManager11add_backend
FN:201,_RNvMs0_NtNtCs4ZEr9HMJnjR_13p2p_ai_agents7storage7managerNtB5_14StorageManager13list_backends
FN:186,_RNvMs0_NtNtCs4ZEr9HMJnjR_13p2p_ai_agents7storage7managerNtB5_14StorageManager14remove_backend
FN:228,_RNvMs0_NtNtCs4ZEr9HMJnjR_13p2p_ai_agents7storage7managerNtB5_14StorageManager15select_backends
FN:146,_RNvMs0_NtNtCs4ZEr9HMJnjR_13p2p_ai_agents7storage7managerNtB5_14StorageManager3new
FN:217,_RNvMs0_NtNtCs4ZEr9HMJnjR_13p2p_ai_agents7storage7managerNtB5_14StorageManager7metrics
FN:79,_RNvMs_NtNtCs4ZEr9HMJnjR_13p2p_ai_agents7storage7managerNtB4_14StorageMetrics16record_operation
FN:55,_RNvXNtNtCs4ZEr9HMJnjR_13p2p_ai_agents7storage7managerNtB2_13StoragePolicyNtNtCsaTRkahAGrLL_4core7default7Default7default
FN:365,_RNvXsd_NtNtCs4ZEr9HMJnjR_13p2p_ai_agents7storage7managerNtB5_14StorageManagerNtNtB7_5local7Storage3get
FN:414,_RNvXsd_NtNtCs4ZEr9HMJnjR_13p2p_ai_agents7storage7managerNtB5_14StorageManagerNtNtB7_5local7Storage3put
FN:429,_RNvXsd_NtNtCs4ZEr9HMJnjR_13p2p_ai_agents7storage7managerNtB5_14StorageManagerNtNtB7_5local7Storage6delete
FN:443,_RNvNtNtNtCs4ZEr9HMJnjR_13p2p_ai_agents7storage7manager5tests19create_test_manager
FN:545,_RNvNtNtNtCs4ZEr9HMJnjR_13p2p_ai_agents7storage7manager5testss_12test_metrics
FN:561,_RNvNtNtNtCs4ZEr9HMJnjR_13p2p_ai_agents7storage7manager5testss_21test_disabled_backend
FN:459,_RNvNtNtNtCs4ZEr9HMJnjR_13p2p_ai_agents7storage7manager5testss_21test_manager_creation
FN:516,_RNvNtNtNtCs4ZEr9HMJnjR_13p2p_ai_agents7storage7manager5testss_22test_policy_always_use
FN:465,_RNvNtNtNtCs4ZEr9HMJnjR_13p2p_ai_agents7storage7manager5testss_23test_backend_management
FN:489,_RNvNtNtNtCs4ZEr9HMJnjR_13p2p_ai_agents7storage7manager5testss_23test_storage_operations
FN:529,_RNvNtNtNtCs4ZEr9HMJnjR_13p2p_ai_agents7storage7manager5testss_27test_policy_first_available
FNDA:0,_RNCNCNvMs0_NtNtCsazECCRb7Zym_13p2p_ai_agents7storage7managerNtB9_14StorageManager14remove_backend00Bd_
FNDA:0,_RNCNvMs0_NtNtCsazECCRb7Zym_13p2p_ai_agents7storage7managerNtB7_14StorageManager11add_backend0Bb_
FNDA:0,_RNCNvMs0_NtNtCsazECCRb7Zym_13p2p_ai_agents7storage7managerNtB7_14StorageManager11has_backend0Bb_
FNDA:0,_RNCNvMs0_NtNtCsazECCRb7Zym_13p2p_ai_agents7storage7managerNtB7_14StorageManager13list_backends0Bb_
FNDA:0,_RNCNvMs0_NtNtCsazECCRb7Zym_13p2p_ai_agents7storage7managerNtB7_14StorageManager13reset_metrics0Bb_
FNDA:0,_RNCNvMs0_NtNtCsazECCRb7Zym_13p2p_ai_agents7storage7managerNtB7_14StorageManager14remove_backend0Bb_
FNDA:0,_RNCNvMs0_NtNtCsazECCRb7Zym_13p2p_ai_agents7storage7managerNtB7_14StorageManager7metrics0Bb_
FNDA:0,_RINvMs0_NtNtCsazECCRb7Zym_13p2p_ai_agents7storage7managerNtB6_14StorageManager18execute_with_retryNCNCNvXsd_B6_BT_NtNtB8_5local7Storage3get0s_0INtNtCsaTRkahAGrLL_4core6option6OptionINtNtCsfmASsVe1tYz_5alloc3vec3VechEEEBa_
FNDA:0,_RINvMs0_NtNtCsazECCRb7Zym_13p2p_ai_agents7storage7managerNtB6_14StorageManager18execute_with_retryNCNCNvXsd_B6_BT_NtNtB8_5local7Storage3put0s0_0uEBa_
FNDA:0,_RINvMs0_NtNtCsazECCRb7Zym_13p2p_ai_agents7storage7managerNtB6_14StorageManager18execute_with_retryNCNCNvXsd_B6_BT_NtNtB8_5local7Storage6delete0s_0uEBa_
FNDA:0,_RNCINvMs0_NtNtCsazECCRb7Zym_13p2p_ai_agents7storage7managerNtB8_14StorageManager18execute_with_retryNCNCNvXsd_B8_BV_NtNtBa_5local7Storage3get0s_0INtNtCsaTRkahAGrLL_4core6option6OptionINtNtCsfmASsVe1tYz_5alloc3vec3VechEEE0Bc_
FNDA:0,_RNCINvMs0_NtNtCsazECCRb7Zym_13p2p_ai_agents7storage7managerNtB8_14StorageManager18execute_with_retryNCNCNvXsd_B8_BV_NtNtBa_5local7Storage3put0s0_0uE0Bc_
FNDA:0,_RNCINvMs0_NtNtCsazECCRb7Zym_13p2p_ai_agents7storage7managerNtB8_14StorageManager18execute_with_retryNCNCNvXsd_B8_BV_NtNtBa_5local7Storage6delete0s_0uE0Bc_
FNDA:0,_RNCNCINvMs0_NtNtCsazECCRb7Zym_13p2p_ai_agents7storage7managerNtBa_14StorageManager18execute_with_retryNCNCNvXsd_Ba_BX_NtNtBc_5local7Storage3get0s_0INtNtCsaTRkahAGrLL_4core6option6OptionINtNtCsfmASsVe1tYz_5alloc3vec3VechEEE00Be_
FNDA:0,_RNCNCINvMs0_NtNtCsazECCRb7Zym_13p2p_ai_agents7storage7managerNtBa_14StorageManager18execute_with_retryNCNCNvXsd_Ba_BX_NtNtBc_5local7Storage3get0s_0INtNtCsaTRkahAGrLL_4core6option6OptionINtNtCsfmASsVe1tYz_5alloc3vec3VechEEE0s_0Be_
FNDA:0,_RNCNCINvMs0_NtNtCsazECCRb7Zym_13p2p_ai_agents7storage7managerNtBa_14StorageManager18execute_with_retryNCNCNvXsd_Ba_BX_NtNtBc_5local7Storage3put0s0_0uE00Be_
FNDA:0,_RNCNCINvMs0_NtNtCsazECCRb7Zym_13p2p_ai_agents7storage7managerNtBa_14StorageManager18execute_with_retryNCNCNvXsd_Ba_BX_NtNtBc_5local7Storage3put0s0_0uE0s_0Be_
FNDA:0,_RNCNCINvMs0_NtNtCsazECCRb7Zym_13p2p_ai_agents7storage7managerNtBa_14StorageManager18execute_with_retryNCNCNvXsd_Ba_BX_NtNtBc_5local7Storage6delete0s_0uE00Be_
FNDA:0,_RNCNCINvMs0_NtNtCsazECCRb7Zym_13p2p_ai_agents7storage7managerNtBa_14StorageManager18execute_with_retryNCNCNvXsd_Ba_BX_NtNtBc_5local7Storage6delete0s_0uE0s_0Be_
FNDA:0,_RNCNCNCNvXsd_NtNtCsazECCRb7Zym_13p2p_ai_agents7storage7managerNtBb_14StorageManagerNtNtBd_5local7Storage3get0s_00Bf_
FNDA:0,_RNCNCNCNvXsd_NtNtCsazECCRb7Zym_13p2p_ai_agents7storage7managerNtBb_14StorageManagerNtNtBd_5local7Storage3put0s0_00Bf_
FNDA:0,_RNCNCNCNvXsd_NtNtCsazECCRb7Zym_13p2p_ai_agents7storage7managerNtBb_14StorageManagerNtNtBd_5local7Storage6delete0s_00Bf_
FNDA:0,_RNCNCNvMs0_NtNtCsazECCRb7Zym_13p2p_ai_agents7storage7managerNtB9_14StorageManager15select_backends00Bd_
FNDA:0,_RNCNCNvMs0_NtNtCsazECCRb7Zym_13p2p_ai_agents7storage7managerNtB9_14StorageManager15select_backends0s_0Bd_
FNDA:0,_RNCNCNvXsd_NtNtCsazECCRb7Zym_13p2p_ai_agents7storage7managerNtB9_14StorageManagerNtNtBb_5local7Storage3get00Bd_
FNDA:0,_RNCNCNvXsd_NtNtCsazECCRb7Zym_13p2p_ai_agents7storage7managerNtB9_14StorageManagerNtNtBb_5local7Storage3get0s0_0Bd_
FNDA:0,_RNCNCNvXsd_NtNtCsazECCRb7Zym_13p2p_ai_agents7storage7managerNtB9_14StorageManagerNtNtBb_5local7Storage3get0s_0Bd_
FNDA:0,_RNCNCNvXsd_NtNtCsazECCRb7Zym_13p2p_ai_agents7storage7managerNtB9_14StorageManagerNtNtBb_5local7Storage3put00Bd_
FNDA:0,_RNCNCNvXsd_NtNtCsazECCRb7Zym_13p2p_ai_agents7storage7managerNtB9_14StorageManagerNtNtBb_5local7Storage3put0s0_0Bd_
FNDA:0,_RNCNCNvXsd_NtNtCsazECCRb7Zym_13p2p_ai_agents7storage7managerNtB9_14StorageManagerNtNtBb_5local7Storage3put0s1_0Bd_
FNDA:0,_RNCNCNvXsd_NtNtCsazECCRb7Zym_13p2p_ai_agents7storage7managerNtB9_14StorageManagerNtNtBb_5local7Storage3put0s_0Bd_
FNDA:0,_RNCNCNvXsd_NtNtCsazECCRb7Zym_13p2p_ai_agents7storage7managerNtB9_14StorageManagerNtNtBb_5local7Storage6delete00Bd_
FNDA:0,_RNCNCNvXsd_NtNtCsazECCRb7Zym_13p2p_ai_agents7storage7managerNtB9_14StorageManagerNtNtBb_5local7Storage6delete0s0_0Bd_
FNDA:0,_RNCNCNvXsd_NtNtCsazECCRb7Zym_13p2p_ai_agents7storage7managerNtB9_14StorageManagerNtNtBb_5local7Storage6delete0s_0Bd_
FNDA:0,_RNCNvMs0_NtNtCsazECCRb7Zym_13p2p_ai_agents7storage7managerNtB7_14StorageManager15select_backends0Bb_
FNDA:0,_RNCNvXsd_NtNtCsazECCRb7Zym_13p2p_ai_agents7storage7managerNtB7_14StorageManagerNtNtB9_5local7Storage3get0Bb_
FNDA:0,_RNCNvXsd_NtNtCsazECCRb7Zym_13p2p_ai_agents7storage7managerNtB7_14StorageManagerNtNtB9_5local7Storage3put0Bb_
FNDA:0,_RNCNvXsd_NtNtCsazECCRb7Zym_13p2p_ai_agents7storage7managerNtB7_14StorageManagerNtNtB9_5local7Storage6delete0Bb_
FNDA:0,_RNvMs0_NtNtCsazECCRb7Zym_13p2p_ai_agents7storage7managerNtB5_14StorageManager10set_policy
FNDA:0,_RNvMs0_NtNtCsazECCRb7Zym_13p2p_ai_agents7storage7managerNtB5_14StorageManager11add_backend
FNDA:0,_RNvMs0_NtNtCsazECCRb7Zym_13p2p_ai_agents7storage7managerNtB5_14StorageManager11has_backend
FNDA:0,_RNvMs0_NtNtCsazECCRb7Zym_13p2p_ai_agents7storage7managerNtB5_14StorageManager13list_backends
FNDA:0,_RNvMs0_NtNtCsazECCRb7Zym_13p2p_ai_agents7storage7managerNtB5_14StorageManager13reset_metrics
FNDA:0,_RNvMs0_NtNtCsazECCRb7Zym_13p2p_ai_agents7storage7managerNtB5_14StorageManager13with_registry
FNDA:0,_RNvMs0_NtNtCsazECCRb7Zym_13p2p_ai_agents7storage7managerNtB5_14StorageManager14remove_backend
FNDA:0,_RNvMs0_NtNtCsazECCRb7Zym_13p2p_ai_agents7storage7managerNtB5_14StorageManager15select_backends
FNDA:0,_RNvMs0_NtNtCsazECCRb7Zym_13p2p_ai_agents7storage7managerNtB5_14StorageManager3new
FNDA:0,_RNvMs0_NtNtCsazECCRb7Zym_13p2p_ai_agents7storage7managerNtB5_14StorageManager6policy
FNDA:0,_RNvMs0_NtNtCsazECCRb7Zym_13p2p_ai_agents7storage7managerNtB5_14StorageManager7metrics
FNDA:0,_RNvMs_NtNtCsazECCRb7Zym_13p2p_ai_agents7storage7managerNtB4_14StorageMetrics12success_rate
FNDA:0,_RNvMs_NtNtCsazECCRb7Zym_13p2p_ai_agents7storage7managerNtB4_14StorageMetrics14cache_hit_rate
FNDA:0,_RNvMs_NtNtCsazECCRb7Zym_13p2p_ai_agents7storage7managerNtB4_14StorageMetrics16record_cache_hit
FNDA:0,_RNvMs_NtNtCsazECCRb7Zym_13p2p_ai_agents7storage7managerNtB4_14StorageMetrics16record_operation
FNDA:0,_RNvMs_NtNtCsazECCRb7Zym_13p2p_ai_agents7storage7managerNtB4_14StorageMetrics17record_cache_miss
FNDA:0,_RNvXNtNtCsazECCRb7Zym_13p2p_ai_agents7storage7managerNtB2_13StoragePolicyNtNtCsaTRkahAGrLL_4core7default7Default7default
FNDA:0,_RNvXs1_NtNtCsazECCRb7Zym_13p2p_ai_agents7storage7managerNtB5_14StorageManagerNtNtCsaTRkahAGrLL_4core7default7Default7default
FNDA:0,_RNvXsd_NtNtCsazECCRb7Zym_13p2p_ai_agents7storage7managerNtB5_14StorageManagerNtNtB7_5local7Storage3get
FNDA:0,_RNvXsd_NtNtCsazECCRb7Zym_13p2p_ai_agents7storage7managerNtB5_14StorageManagerNtNtB7_5local7Storage3put
FNDA:0,_RNvXsd_NtNtCsazECCRb7Zym_13p2p_ai_agents7storage7managerNtB5_14StorageManagerNtNtB7_5local7Storage6delete
FNDA:4,_RNCNvNtNtNtCs4ZEr9HMJnjR_13p2p_ai_agents7storage7manager5tests19create_test_manager0B9_
FNDA:1,_RNCNvNtNtNtCs4ZEr9HMJnjR_13p2p_ai_agents7storage7manager5testss_12test_metrics0B9_
FNDA:1,_RNCNvNtNtNtCs4ZEr9HMJnjR_13p2p_ai_agents7storage7manager5testss_21test_disabled_backend0B9_
FNDA:1,_RNCNvNtNtNtCs4ZEr9HMJnjR_13p2p_ai_agents7storage7manager5testss_21test_manager_creation0B9_
FNDA:1,_RNCNvNtNtNtCs4ZEr9HMJnjR_13p2p_ai_agents7storage7manager5testss_22test_policy_always_use0B9_
FNDA:1,_RNCNvNtNtNtCs4ZEr9HMJnjR_13p2p_ai_agents7storage7manager5testss_23test_backend_management0B9_
FNDA:1,_RNCNvNtNtNtCs4ZEr9HMJnjR_13p2p_ai_agents7storage7manager5testss_23test_storage_operations0B9_
FNDA:1,_RNCNvNtNtNtCs4ZEr9HMJnjR_13p2p_ai_agents7storage7manager5testss_27test_policy_first_available0B9_
FNDA:0,_RNCNvMs0_NtNtCs4ZEr9HMJnjR_13p2p_ai_agents7storage7managerNtB7_14StorageManager11has_backend0Bb_
FNDA:0,_RNCNvMs0_NtNtCs4ZEr9HMJnjR_13p2p_ai_agents7storage7managerNtB7_14StorageManager13reset_metrics0Bb_
FNDA:0,_RNvMs0_NtNtCs4ZEr9HMJnjR_13p2p_ai_agents7storage7managerNtB5_14StorageManager11has_backend
FNDA:0,_RNvMs0_NtNtCs4ZEr9HMJnjR_13p2p_ai_agents7storage7managerNtB5_14StorageManager13reset_metrics
FNDA:0,_RNvMs0_NtNtCs4ZEr9HMJnjR_13p2p_ai_agents7storage7managerNtB5_14StorageManager13with_registry
FNDA:0,_RNvMs0_NtNtCs4ZEr9HMJnjR_13p2p_ai_agents7storage7managerNtB5_14StorageManager6policy
FNDA:0,_RNvMs_NtNtCs4ZEr9HMJnjR_13p2p_ai_agents7storage7managerNtB4_14StorageMetrics12success_rate
FNDA:0,_RNvMs_NtNtCs4ZEr9HMJnjR_13p2p_ai_agents7storage7managerNtB4_14StorageMetrics14cache_hit_rate
FNDA:0,_RNvMs_NtNtCs4ZEr9HMJnjR_13p2p_ai_agents7storage7managerNtB4_14StorageMetrics16record_cache_hit
FNDA:0,_RNvMs_NtNtCs4ZEr9HMJnjR_13p2p_ai_agents7storage7managerNtB4_14StorageMetrics17record_cache_miss
FNDA:0,_RNvXs1_NtNtCs4ZEr9HMJnjR_13p2p_ai_agents7storage7managerNtB5_14StorageManagerNtNtCsaTRkahAGrLL_4core7default7Default7default
FNDA:6,_RINvMs0_NtNtCs4ZEr9HMJnjR_13p2p_ai_agents7storage7managerNtB6_14StorageManager18execute_with_retryNCNCNvXsd_B6_BT_NtNtB8_5local7Storage3get0s_0INtNtCsaTRkahAGrLL_4core6option6OptionINtNtCsfmASsVe1tYz_5alloc3vec3VechEEEBa_
FNDA:4,_RINvMs0_NtNtCs4ZEr9HMJnjR_13p2p_ai_agents7storage7managerNtB6_14StorageManager18execute_with_retryNCNCNvXsd_B6_BT_NtNtB8_5local7Storage3put0s0_0uEBa_
FNDA:1,_RINvMs0_NtNtCs4ZEr9HMJnjR_13p2p_ai_agents7storage7managerNtB6_14StorageManager18execute_with_retryNCNCNvXsd_B6_BT_NtNtB8_5local7Storage6delete0s_0uEBa_
FNDA:6,_RNCINvMs0_NtNtCs4ZEr9HMJnjR_13p2p_ai_agents7storage7managerNtB8_14StorageManager18execute_with_retryNCNCNvXsd_B8_BV_NtNtBa_5local7Storage3get0s_0INtNtCsaTRkahAGrLL_4core6option6OptionINtNtCsfmASsVe1tYz_5alloc3vec3VechEEE0Bc_
FNDA:4,_RNCINvMs0_NtNtCs4ZEr9HMJnjR_13p2p_ai_agents7storage7managerNtB8_14StorageManager18execute_with_retryNCNCNvXsd_B8_BV_NtNtBa_5local7Storage3put0s0_0uE0Bc_
FNDA:1,_RNCINvMs0_NtNtCs4ZEr9HMJnjR_13p2p_ai_agents7storage7managerNtB8_14StorageManager18execute_with_retryNCNCNvXsd_B8_BV_NtNtBa_5local7Storage6delete0s_0uE0Bc_
FNDA:0,_RNCNCINvMs0_NtNtCs4ZEr9HMJnjR_13p2p_ai_agents7storage7managerNtBa_14StorageManager18execute_with_retryNCNCNvXsd_Ba_BX_NtNtBc_5local7Storage3get0s_0INtNtCsaTRkahAGrLL_4core6option6OptionINtNtCsfmASsVe1tYz_5alloc3vec3VechEEE00Be_
FNDA:0,_RNCNCINvMs0_NtNtCs4ZEr9HMJnjR_13p2p_ai_agents7storage7managerNtBa_14StorageManager18execute_with_retryNCNCNvXsd_Ba_BX_NtNtBc_5local7Storage3get0s_0INtNtCsaTRkahAGrLL_4core6option6OptionINtNtCsfmASsVe1tYz_5alloc3vec3VechEEE0s_0Be_
FNDA:0,_RNCNCINvMs0_NtNtCs4ZEr9HMJnjR_13p2p_ai_agents7storage7managerNtBa_14StorageManager18execute_with_retryNCNCNvXsd_Ba_BX_NtNtBc_5local7Storage3put0s0_0uE00Be_
FNDA:0,_RNCNCINvMs0_NtNtCs4ZEr9HMJnjR_13p2p_ai_agents7storage7managerNtBa_14StorageManager18execute_with_retryNCNCNvXsd_Ba_BX_NtNtBc_5local7Storage3put0s0_0uE0s_0Be_
FNDA:0,_RNCNCINvMs0_NtNtCs4ZEr9HMJnjR_13p2p_ai_agents7storage7managerNtBa_14StorageManager18execute_with_retryNCNCNvXsd_Ba_BX_NtNtBc_5local7Storage6delete0s_0uE00Be_
FNDA:0,_RNCNCINvMs0_NtNtCs4ZEr9HMJnjR_13p2p_ai_agents7storage7managerNtBa_14StorageManager18execute_with_retryNCNCNvXsd_Ba_BX_NtNtBc_5local7Storage6delete0s_0uE0s_0Be_
FNDA:6,_RNCNCNCNvXsd_NtNtCs4ZEr9HMJnjR_13p2p_ai_agents7storage7managerNtBb_14StorageManagerNtNtBd_5local7Storage3get0s_00Bf_
FNDA:4,_RNCNCNCNvXsd_NtNtCs4ZEr9HMJnjR_13p2p_ai_agents7storage7managerNtBb_14StorageManagerNtNtBd_5local7Storage3put0s0_00Bf_
FNDA:1,_RNCNCNCNvXsd_NtNtCs4ZEr9HMJnjR_13p2p_ai_agents7storage7managerNtBb_14StorageManagerNtNtBd_5local7Storage6delete0s_00Bf_
FNDA:1,_RNCNCNvMs0_NtNtCs4ZEr9HMJnjR_13p2p_ai_agents7storage7managerNtB9_14StorageManager14remove_backend00Bd_
FNDA:0,_RNCNCNvMs0_NtNtCs4ZEr9HMJnjR_13p2p_ai_agents7storage7managerNtB9_14StorageManager15select_backends00Bd_
FNDA:0,_RNCNCNvMs0_NtNtCs4ZEr9HMJnjR_13p2p_ai_agents7storage7managerNtB9_14StorageManager15select_backends0s_0Bd_
FNDA:0,_RNCNCNvXsd_NtNtCs4ZEr9HMJnjR_13p2p_ai_agents7storage7managerNtB9_14StorageManagerNtNtBb_5local7Storage3get00Bd_
FNDA:0,_RNCNCNvXsd_NtNtCs4ZEr9HMJnjR_13p2p_ai_agents7storage7managerNtB9_14StorageManagerNtNtBb_5local7Storage3get0s0_0Bd_
FNDA:6,_RNCNCNvXsd_NtNtCs4ZEr9HMJnjR_13p2p_ai_agents7storage7managerNtB9_14StorageManagerNtNtBb_5local7Storage3get0s_0Bd_
FNDA:0,_RNCNCNvXsd_NtNtCs4ZEr9HMJnjR_13p2p_ai_agents7storage7managerNtB9_14StorageManagerNtNtBb_5local7Storage3put00Bd_
FNDA:4,_RNCNCNvXsd_NtNtCs4ZEr9HMJnjR_13p2p_ai_agents7storage7managerNtB9_14StorageManagerNtNtBb_5local7Storage3put0s0_0Bd_
FNDA:0,_RNCNCNvXsd_NtNtCs4ZEr9HMJnjR_13p2p_ai_agents7storage7managerNtB9_14StorageManagerNtNtBb_5local7Storage3put0s1_0Bd_
FNDA:0,_RNCNCNvXsd_NtNtCs4ZEr9HMJnjR_13p2p_ai_agents7storage7managerNtB9_14StorageManagerNtNtBb_5local7Storage3put0s_0Bd_
FNDA:0,_RNCNCNvXsd_NtNtCs4ZEr9HMJnjR_13p2p_ai_agents7storage7managerNtB9_14StorageManagerNtNtBb_5local7Storage6delete00Bd_
FNDA:0,_RNCNCNvXsd_NtNtCs4ZEr9HMJnjR_13p2p_ai_agents7storage7managerNtB9_14StorageManagerNtNtBb_5local7Storage6delete0s0_0Bd_
FNDA:1,_RNCNCNvXsd_NtNtCs4ZEr9HMJnjR_13p2p_ai_agents7storage7managerNtB9_14StorageManagerNtNtBb_5local7Storage6delete0s_0Bd_
FNDA:6,_RNCNvMs0_NtNtCs4ZEr9HMJnjR_13p2p_ai_agents7storage7managerNtB7_14StorageManager11add_backend0Bb_
FNDA:5,_RNCNvMs0_NtNtCs4ZEr9HMJnjR_13p2p_ai_agents7storage7managerNtB7_14StorageManager13list_backends0Bb_
FNDA:2,_RNCNvMs0_NtNtCs4ZEr9HMJnjR_13p2p_ai_agents7storage7managerNtB7_14StorageManager14remove_backend0Bb_
FNDA:11,_RNCNvMs0_NtNtCs4ZEr9HMJnjR_13p2p_ai_agents7storage7managerNtB7_14StorageManager15select_backends0Bb_
FNDA:1,_RNCNvMs0_NtNtCs4ZEr9HMJnjR_13p2p_ai_agents7storage7managerNtB7_14StorageManager7metrics0Bb_
FNDA:6,_RNCNvXsd_NtNtCs4ZEr9HMJnjR_13p2p_ai_agents7storage7managerNtB7_14StorageManagerNtNtB9_5local7Storage3get0Bb_
FNDA:4,_RNCNvXsd_NtNtCs4ZEr9HMJnjR_13p2p_ai_agents7storage7managerNtB7_14StorageManagerNtNtB9_5local7Storage3put0Bb_
FNDA:1,_RNCNvXsd_NtNtCs4ZEr9HMJnjR_13p2p_ai_agents7storage7managerNtB7_14StorageManagerNtNtB9_5local7Storage6delete0Bb_
FNDA:3,_RNvMs0_NtNtCs4ZEr9HMJnjR_13p2p_ai_agents7storage7managerNtB5_14StorageManager10set_policy
FNDA:6,_RNvMs0_NtNtCs4ZEr9HMJnjR_13p2p_ai_agents7storage7managerNtB5_14StorageManager11add_backend
FNDA:5,_RNvMs0_NtNtCs4ZEr9HMJnjR_13p2p_ai_agents7storage7managerNtB5_14StorageManager13list_backends
FNDA:2,_RNvMs0_NtNtCs4ZEr9HMJnjR_13p2p_ai_agents7storage7managerNtB5_14StorageManager14remove_backend
FNDA:11,_RNvMs0_NtNtCs4ZEr9HMJnjR_13p2p_ai_agents7storage7managerNtB5_14StorageManager15select_backends
FNDA:8,_RNvMs0_NtNtCs4ZEr9HMJnjR_13p2p_ai_agents7storage7managerNtB5_14StorageManager3new
FNDA:1,_RNvMs0_NtNtCs4ZEr9HMJnjR_13p2p_ai_agents7storage7managerNtB5_14StorageManager7metrics
FNDA:11,_RNvMs_NtNtCs4ZEr9HMJnjR_13p2p_ai_agents7storage7managerNtB4_14StorageMetrics16record_operation
FNDA:8,_RNvXNtNtCs4ZEr9HMJnjR_13p2p_ai_agents7storage7managerNtB2_13StoragePolicyNtNtCsaTRkahAGrLL_4core7default7Default7default
FNDA:6,_RNvXsd_NtNtCs4ZEr9HMJnjR_13p2p_ai_agents7storage7managerNtB5_14StorageManagerNtNtB7_5local7Storage3get
FNDA:4,_RNvXsd_NtNtCs4ZEr9HMJnjR_13p2p_ai_agents7storage7managerNtB5_14StorageManagerNtNtB7_5local7Storage3put
FNDA:1,_RNvXsd_NtNtCs4ZEr9HMJnjR_13p2p_ai_agents7storage7managerNtB5_14StorageManagerNtNtB7_5local7Storage6delete
FNDA:4,_RNvNtNtNtCs4ZEr9HMJnjR_13p2p_ai_agents7storage7manager5tests19create_test_manager
FNDA:1,_RNvNtNtNtCs4ZEr9HMJnjR_13p2p_ai_agents7storage7manager5testss_12test_metrics
FNDA:1,_RNvNtNtNtCs4ZEr9HMJnjR_13p2p_ai_agents7storage7manager5testss_21test_disabled_backend
FNDA:1,_RNvNtNtNtCs4ZEr9HMJnjR_13p2p_ai_agents7storage7manager5testss_21test_manager_creation
FNDA:1,_RNvNtNtNtCs4ZEr9HMJnjR_13p2p_ai_agents7storage7manager5testss_22test_policy_always_use
FNDA:1,_RNvNtNtNtCs4ZEr9HMJnjR_13p2p_ai_agents7storage7manager5testss_23test_backend_management
FNDA:1,_RNvNtNtNtCs4ZEr9HMJnjR_13p2p_ai_agents7storage7manager5testss_23test_storage_operations
FNDA:1,_RNvNtNtNtCs4ZEr9HMJnjR_13p2p_ai_agents7storage7manager5testss_27test_policy_first_available
FNF:67
FNH:45
DA:55,8
DA:56,8
DA:57,8
DA:79,11
DA:80,11
DA:81,11
DA:82,11
DA:83,11
DA:84,11
DA:85,11
DA:86,11
DA:87,0
DA:88,0
DA:89,11
DA:90,11
DA:93,0
DA:94,0
DA:95,0
DA:98,0
DA:99,0
DA:100,0
DA:103,0
DA:104,0
DA:105,0
DA:107,0
DA:109,0
DA:112,0
DA:113,0
DA:114,0
DA:115,0
DA:117,0
DA:119,0
DA:146,8
DA:147,8
DA:148,8
DA:149,8
DA:150,8
DA:151,8
DA:152,8
DA:153,8
DA:154,8
DA:157,0
DA:158,0
DA:159,0
DA:160,0
DA:161,0
DA:162,0
DA:163,0
DA:164,0
DA:165,0
DA:168,6
DA:169,6
DA:170,1
DA:171,5
DA:173,5
DA:175,5
DA:176,0
DA:177,5
DA:179,5
DA:180,5
DA:181,5
DA:182,5
DA:183,6
DA:186,2
DA:187,2
DA:188,2
DA:189,2
DA:190,2
DA:191,1
DA:192,2
DA:195,0
DA:196,0
DA:197,0
DA:198,0
DA:201,5
DA:202,5
DA:203,5
DA:204,5
DA:207,3
DA:208,3
DA:209,3
DA:212,0
DA:213,0
DA:214,0
DA:217,1
DA:218,1
DA:219,1
DA:222,0
DA:223,0
DA:224,0
DA:225,0
DA:228,11
DA:229,11
DA:230,11
DA:231,0
DA:232,11
DA:233,11
DA:234,11
DA:235,2
DA:236,2
DA:237,2
DA:239,0
DA:243,0
DA:244,0
DA:245,0
DA:246,0
DA:247,0
DA:249,0
DA:250,0
DA:251,0
DA:252,0
DA:256,0
DA:257,0
DA:258,0
DA:259,0
DA:260,0
DA:261,0
DA:262,0
DA:263,0
DA:264,0
DA:266,0
DA:270,0
DA:271,0
DA:272,0
DA:273,0
DA:274,0
DA:275,0
DA:276,0
DA:277,0
DA:278,0
DA:280,0
DA:281,0
DA:282,0
DA:283,0
DA:287,9
DA:288,11
DA:289,11
DA:290,9
DA:291,2
DA:293,0
DA:298,0
DA:299,0
DA:302,11
DA:305,11
DA:306,11
DA:307,11
DA:308,11
DA:309,11
DA:310,11
DA:311,11
DA:312,11
DA:313,11
DA:314,11
DA:315,11
DA:316,11
DA:317,11
DA:318,11
DA:319,11
DA:321,11
DA:322,11
DA:323,11
DA:324,11
DA:325,11
DA:326,11
DA:327,11
DA:329,0
DA:330,0
DA:331,0
DA:332,0
DA:335,0
DA:338,0
DA:339,0
DA:340,0
DA:341,0
DA:342,0
DA:343,11
DA:352,6
DA:353,6
DA:354,6
DA:355,6
DA:356,6
DA:358,6
DA:359,6
DA:360,6
DA:361,6
DA:362,6
DA:363,6
DA:364,6
DA:365,12
DA:372,4
DA:373,4
DA:374,4
DA:375,4
DA:376,4
DA:378,4
DA:381,0
DA:382,0
DA:384,0
DA:385,0
DA:386,0
DA:387,0
DA:388,0
DA:389,0
DA:390,0
DA:394,0
DA:395,0
DA:397,0
DA:398,0
DA:399,0
DA:404,4
DA:405,4
DA:406,4
DA:407,4
DA:408,4
DA:409,4
DA:410,4
DA:411,4
DA:414,8
DA:416,1
DA:417,1
DA:418,1
DA:419,1
DA:420,1
DA:422,1
DA:423,1
DA:424,1
DA:425,1
DA:426,1
DA:427,1
DA:428,1
DA:429,2
DA:433,0
DA:434,0
DA:435,0
DA:443,4
DA:444,4
DA:445,4
DA:446,4
DA:447,4
DA:448,4
DA:449,4
DA:450,4
DA:451,4
DA:452,4
DA:453,4
DA:454,4
DA:455,4
DA:456,4
DA:459,1
DA:460,1
DA:461,1
DA:462,1
DA:465,1
DA:466,1
DA:467,1
DA:468,1
DA:469,1
DA:470,1
DA:471,1
DA:472,1
DA:473,1
DA:474,1
DA:475,1
DA:476,1
DA:477,1
DA:478,1
DA:479,1
DA:480,1
DA:481,1
DA:482,1
DA:483,1
DA:484,1
DA:485,1
DA:486,1
DA:489,1
DA:490,1
DA:491,1
DA:492,1
DA:493,1
DA:494,1
DA:495,1
DA:496,1
DA:497,1
DA:498,1
DA:499,1
DA:500,1
DA:501,1
DA:502,1
DA:503,1
DA:504,1
DA:505,1
DA:506,1
DA:507,1
DA:508,1
DA:509,1
DA:510,1
DA:511,1
DA:512,1
DA:513,1
DA:516,1
DA:517,1
DA:518,1
DA:519,1
DA:520,1
DA:521,1
DA:522,1
DA:523,1
DA:524,1
DA:525,1
DA:526,1
DA:529,1
DA:530,1
DA:531,1
DA:532,1
DA:533,1
DA:534,1
DA:535,1
DA:536,1
DA:537,1
DA:538,1
DA:539,1
DA:540,1
DA:541,1
DA:542,1
DA:545,1
DA:546,1
DA:547,1
DA:548,1
DA:549,1
DA:550,1
DA:551,1
DA:552,1
DA:553,1
DA:554,1
DA:555,1
DA:556,1
DA:557,1
DA:558,1
DA:561,1
DA:562,1
DA:563,1
DA:564,1
DA:565,1
DA:566,1
DA:567,1
DA:568,1
DA:569,1
DA:570,1
DA:571,1
DA:572,1
DA:573,1
BRF:0
BRH:0
LF:469
LH:352
end_of_record
SF:/Users/renegeers/Source/p2p-ai-agents/src/storage/mod.rs
FN:297,_RNvNtNtCs4ZEr9HMJnjR_13p2p_ai_agents7storage5testss_24test_cache_storage_trait
FN:35,_RNvNtNtCs4ZEr9HMJnjR_13p2p_ai_agents7storage5testss_24test_local_storage_basic
FN:311,_RNvNtNtCs4ZEr9HMJnjR_13p2p_ai_agents7storage5testss_25test_custom_storage_trait
FN:283,_RNvNtNtCs4ZEr9HMJnjR_13p2p_ai_agents7storage5testss_30test_distributed_storage_trait
FN:155,_RNvNtNtCs4ZEr9HMJnjR_13p2p_ai_agents7storage5testss_30test_local_storage_missing_key
FN:131,_RNvNtNtCs4ZEr9HMJnjR_13p2p_ai_agents7storage5testss_30test_local_storage_persistence
FN:359,_RNvNtNtCs4ZEr9HMJnjR_13p2p_ai_agents7storage5testss_30test_supabase_storage_creation
FN:325,_RNvNtNtCs4ZEr9HMJnjR_13p2p_ai_agents7storage5testss_33compare_storage_layer_performance
FN:378,_RNvNtNtCs4ZEr9HMJnjR_13p2p_ai_agents7storage5testss_34test_supabase_config_serialization
FN:102,_RNvNtNtCs4ZEr9HMJnjR_13p2p_ai_agents7storage5testss_36test_local_storage_concurrent_access
FN:90,_RNvNtNtCs4ZEr9HMJnjR_13p2p_ai_agents7storage5testss_37test_local_storage_delete_nonexistent
FN:168,_RNvNtNtCs4ZEr9HMJnjR_13p2p_ai_agents7storage5testss_37test_local_storage_directory_creation
FN:190,_RNvNtNtCs4ZEr9HMJnjR_13p2p_ai_agents7storage5testss_40test_local_storage_directory_permissions
FN:204,_RNvNtNtCs4ZEr9HMJnjR_13p2p_ai_agents7storage5testss_44test_local_storage_path_traversal_prevention
FN:246,_RNvNtNtCs4ZEr9HMJnjR_13p2p_ai_agents7storage5testss_45test_local_storage_concurrent_writes_same_key
FN:62,_RNvNtNtCs4ZEr9HMJnjR_13p2p_ai_agents7storage5testss_46test_local_storage_overwrite_and_multiple_keys
FN:337,_RINvNCNvNtNtCs4ZEr9HMJnjR_13p2p_ai_agents7storage5testss_33compare_storage_layer_performance013run_perf_testNtNtB8_5local12CacheStorageEBa_
FN:337,_RINvNCNvNtNtCs4ZEr9HMJnjR_13p2p_ai_agents7storage5testss_33compare_storage_layer_performance013run_perf_testNtNtB8_5local12LocalStorageEBa_
FN:337,_RINvNCNvNtNtCs4ZEr9HMJnjR_13p2p_ai_agents7storage5testss_33compare_storage_layer_performance013run_perf_testNtNtB8_5local13CustomStorageEBa_
FN:337,_RINvNCNvNtNtCs4ZEr9HMJnjR_13p2p_ai_agents7storage5testss_33compare_storage_layer_performance013run_perf_testNtNtB8_5local18DistributedStorageEBa_
FN:337,_RNCINvNCNvNtNtCs4ZEr9HMJnjR_13p2p_ai_agents7storage5testss_33compare_storage_layer_performance013run_perf_testNtNtBa_5local12CacheStorageE0Bc_
FN:337,_RNCINvNCNvNtNtCs4ZEr9HMJnjR_13p2p_ai_agents7storage5testss_33compare_storage_layer_performance013run_perf_testNtNtBa_5local12LocalStorageE0Bc_
FN:337,_RNCINvNCNvNtNtCs4ZEr9HMJnjR_13p2p_ai_agents7storage5testss_33compare_storage_layer_performance013run_perf_testNtNtBa_5local13CustomStorageE0Bc_
FN:337,_RNCINvNCNvNtNtCs4ZEr9HMJnjR_13p2p_ai_agents7storage5testss_33compare_storage_layer_performance013run_perf_testNtNtBa_5local18DistributedStorageE0Bc_
FN:110,_RNCNCNvNtNtCs4ZEr9HMJnjR_13p2p_ai_agents7storage5testss_36test_local_storage_concurrent_access00B9_
FN:119,_RNCNCNvNtNtCs4ZEr9HMJnjR_13p2p_ai_agents7storage5testss_36test_local_storage_concurrent_access0s_0B9_
FN:256,_RNCNCNvNtNtCs4ZEr9HMJnjR_13p2p_ai_agents7storage5testss_45test_local_storage_concurrent_writes_same_key00B9_
FN:297,_RNCNvNtNtCs4ZEr9HMJnjR_13p2p_ai_agents7storage5testss_24test_cache_storage_trait0B7_
FN:35,_RNCNvNtNtCs4ZEr9HMJnjR_13p2p_ai_agents7storage5testss_24test_local_storage_basic0B7_
FN:311,_RNCNvNtNtCs4ZEr9HMJnjR_13p2p_ai_agents7storage5testss_25test_custom_storage_trait0B7_
FN:283,_RNCNvNtNtCs4ZEr9HMJnjR_13p2p_ai_agents7storage5testss_30test_distributed_storage_trait0B7_
FN:155,_RNCNvNtNtCs4ZEr9HMJnjR_13p2p_ai_agents7storage5testss_30test_local_storage_missing_key0B7_
FN:131,_RNCNvNtNtCs4ZEr9HMJnjR_13p2p_ai_agents7storage5testss_30test_local_storage_persistence0B7_
FN:325,_RNCNvNtNtCs4ZEr9HMJnjR_13p2p_ai_agents7storage5testss_33compare_storage_layer_performance0B7_
FN:102,_RNCNvNtNtCs4ZEr9HMJnjR_13p2p_ai_agents7storage5testss_36test_local_storage_concurrent_access0B7_
FN:90,_RNCNvNtNtCs4ZEr9HMJnjR_13p2p_ai_agents7storage5testss_37test_local_storage_delete_nonexistent0B7_
FN:168,_RNCNvNtNtCs4ZEr9HMJnjR_13p2p_ai_agents7storage5testss_37test_local_storage_directory_creation0B7_
FN:190,_RNCNvNtNtCs4ZEr9HMJnjR_13p2p_ai_agents7storage5testss_40test_local_storage_directory_permissions0B7_
FN:204,_RNCNvNtNtCs4ZEr9HMJnjR_13p2p_ai_agents7storage5testss_44test_local_storage_path_traversal_prevention0B7_
FN:246,_RNCNvNtNtCs4ZEr9HMJnjR_13p2p_ai_agents7storage5testss_45test_local_storage_concurrent_writes_same_key0B7_
FN:62,_RNCNvNtNtCs4ZEr9HMJnjR_13p2p_ai_agents7storage5testss_46test_local_storage_overwrite_and_multiple_keys0B7_
FNDA:1,_RNvNtNtCs4ZEr9HMJnjR_13p2p_ai_agents7storage5testss_24test_cache_storage_trait
FNDA:1,_RNvNtNtCs4ZEr9HMJnjR_13p2p_ai_agents7storage5testss_24test_local_storage_basic
FNDA:1,_RNvNtNtCs4ZEr9HMJnjR_13p2p_ai_agents7storage5testss_25test_custom_storage_trait
FNDA:1,_RNvNtNtCs4ZEr9HMJnjR_13p2p_ai_agents7storage5testss_30test_distributed_storage_trait
FNDA:1,_RNvNtNtCs4ZEr9HMJnjR_13p2p_ai_agents7storage5testss_30test_local_storage_missing_key
FNDA:1,_RNvNtNtCs4ZEr9HMJnjR_13p2p_ai_agents7storage5testss_30test_local_storage_persistence
FNDA:1,_RNvNtNtCs4ZEr9HMJnjR_13p2p_ai_agents7storage5testss_30test_supabase_storage_creation
FNDA:1,_RNvNtNtCs4ZEr9HMJnjR_13p2p_ai_agents7storage5testss_33compare_storage_layer_performance
FNDA:1,_RNvNtNtCs4ZEr9HMJnjR_13p2p_ai_agents7storage5testss_34test_supabase_config_serialization
FNDA:1,_RNvNtNtCs4ZEr9HMJnjR_13p2p_ai_agents7storage5testss_36test_local_storage_concurrent_access
FNDA:1,_RNvNtNtCs4ZEr9HMJnjR_13p2p_ai_agents7storage5testss_37test_local_storage_delete_nonexistent
FNDA:1,_RNvNtNtCs4ZEr9HMJnjR_13p2p_ai_agents7storage5testss_37test_local_storage_directory_creation
FNDA:1,_RNvNtNtCs4ZEr9HMJnjR_13p2p_ai_agents7storage5testss_40test_local_storage_directory_permissions
FNDA:1,_RNvNtNtCs4ZEr9HMJnjR_13p2p_ai_agents7storage5testss_44test_local_storage_path_traversal_prevention
FNDA:1,_RNvNtNtCs4ZEr9HMJnjR_13p2p_ai_agents7storage5testss_45test_local_storage_concurrent_writes_same_key
FNDA:1,_RNvNtNtCs4ZEr9HMJnjR_13p2p_ai_agents7storage5testss_46test_local_storage_overwrite_and_multiple_keys
FNDA:1,_RINvNCNvNtNtCs4ZEr9HMJnjR_13p2p_ai_agents7storage5testss_33compare_storage_layer_performance013run_perf_testNtNtB8_5local12CacheStorageEBa_
FNDA:1,_RINvNCNvNtNtCs4ZEr9HMJnjR_13p2p_ai_agents7storage5testss_33compare_storage_layer_performance013run_perf_testNtNtB8_5local12LocalStorageEBa_
FNDA:1,_RINvNCNvNtNtCs4ZEr9HMJnjR_13p2p_ai_agents7storage5testss_33compare_storage_layer_performance013run_perf_testNtNtB8_5local13CustomStorageEBa_
FNDA:1,_RINvNCNvNtNtCs4ZEr9HMJnjR_13p2p_ai_agents7storage5testss_33compare_storage_layer_performance013run_perf_testNtNtB8_5local18DistributedStorageEBa_
FNDA:1,_RNCINvNCNvNtNtCs4ZEr9HMJnjR_13p2p_ai_agents7storage5testss_33compare_storage_layer_performance013run_perf_testNtNtBa_5local12CacheStorageE0Bc_
FNDA:1,_RNCINvNCNvNtNtCs4ZEr9HMJnjR_13p2p_ai_agents7storage5testss_33compare_storage_layer_performance013run_perf_testNtNtBa_5local12LocalStorageE0Bc_
FNDA:1,_RNCINvNCNvNtNtCs4ZEr9HMJnjR_13p2p_ai_agents7storage5testss_33compare_storage_layer_performance013run_perf_testNtNtBa_5local13CustomStorageE0Bc_
FNDA:1,_RNCINvNCNvNtNtCs4ZEr9HMJnjR_13p2p_ai_agents7storage5testss_33compare_storage_layer_performance013run_perf_testNtNtBa_5local18DistributedStorageE0Bc_
FNDA:1,_RNCNCNvNtNtCs4ZEr9HMJnjR_13p2p_ai_agents7storage5testss_36test_local_storage_concurrent_access00B9_
FNDA:1,_RNCNCNvNtNtCs4ZEr9HMJnjR_13p2p_ai_agents7storage5testss_36test_local_storage_concurrent_access0s_0B9_
FNDA:10,_RNCNCNvNtNtCs4ZEr9HMJnjR_13p2p_ai_agents7storage5testss_45test_local_storage_concurrent_writes_same_key00B9_
FNDA:1,_RNCNvNtNtCs4ZEr9HMJnjR_13p2p_ai_agents7storage5testss_24test_cache_storage_trait0B7_
FNDA:1,_RNCNvNtNtCs4ZEr9HMJnjR_13p2p_ai_agents7storage5testss_24test_local_storage_basic0B7_
FNDA:1,_RNCNvNtNtCs4ZEr9HMJnjR_13p2p_ai_agents7storage5testss_25test_custom_storage_trait0B7_
FNDA:1,_RNCNvNtNtCs4ZEr9HMJnjR_13p2p_ai_agents7storage5testss_30test_distributed_storage_trait0B7_
FNDA:1,_RNCNvNtNtCs4ZEr9HMJnjR_13p2p_ai_agents7storage5testss_30test_local_storage_missing_key0B7_
FNDA:1,_RNCNvNtNtCs4ZEr9HMJnjR_13p2p_ai_agents7storage5testss_30test_local_storage_persistence0B7_
FNDA:1,_RNCNvNtNtCs4ZEr9HMJnjR_13p2p_ai_agents7storage5testss_33compare_storage_layer_performance0B7_
FNDA:1,_RNCNvNtNtCs4ZEr9HMJnjR_13p2p_ai_agents7storage5testss_36test_local_storage_concurrent_access0B7_
FNDA:1,_RNCNvNtNtCs4ZEr9HMJnjR_13p2p_ai_agents7storage5testss_37test_local_storage_delete_nonexistent0B7_
FNDA:1,_RNCNvNtNtCs4ZEr9HMJnjR_13p2p_ai_agents7storage5testss_37test_local_storage_directory_creation0B7_
FNDA:1,_RNCNvNtNtCs4ZEr9HMJnjR_13p2p_ai_agents7storage5testss_40test_local_storage_directory_permissions0B7_
FNDA:1,_RNCNvNtNtCs4ZEr9HMJnjR_13p2p_ai_agents7storage5testss_44test_local_storage_path_traversal_prevention0B7_
FNDA:1,_RNCNvNtNtCs4ZEr9HMJnjR_13p2p_ai_agents7storage5testss_45test_local_storage_concurrent_writes_same_key0B7_
FNDA:1,_RNCNvNtNtCs4ZEr9HMJnjR_13p2p_ai_agents7storage5testss_46test_local_storage_overwrite_and_multiple_keys0B7_
FNF:35
FNH:35
DA:35,1
DA:36,1
DA:37,1
DA:38,1
DA:39,1
DA:40,1
DA:41,1
DA:42,1
DA:43,1
DA:44,1
DA:45,1
DA:46,1
DA:47,1
DA:48,1
DA:49,1
DA:50,1
DA:51,1
DA:52,1
DA:53,1
DA:54,1
DA:55,1
DA:56,1
DA:57,1
DA:58,1
DA:59,1
DA:62,1
DA:63,1
DA:64,1
DA:65,1
DA:66,1
DA:67,1
DA:68,1
DA:69,1
DA:70,1
DA:71,1
DA:72,1
DA:73,1
DA:74,1
DA:75,1
DA:76,1
DA:77,1
DA:78,1
DA:79,1
DA:80,1
DA:81,1
DA:82,1
DA:83,1
DA:84,1
DA:85,1
DA:86,1
DA:87,1
DA:90,1
DA:91,1
DA:92,1
DA:93,1
DA:94,1
DA:95,1
DA:96,1
DA:97,1
DA:98,1
DA:99,1
DA:102,1
DA:103,1
DA:104,1
DA:105,1
DA:106,1
DA:107,1
DA:108,1
DA:109,1
DA:110,1
DA:111,101
DA:112,100
DA:113,100
DA:114,100
DA:115,100
DA:116,1
DA:117,1
DA:118,1
DA:119,1
DA:120,101
DA:121,100
DA:122,100
DA:123,1
DA:124,1
DA:125,1
DA:126,1
DA:127,1
DA:128,1
DA:131,1
DA:132,1
DA:133,1
DA:134,1
DA:135,1
DA:136,1
DA:137,1
DA:138,1
DA:139,1
DA:140,1
DA:141,1
DA:142,1
DA:143,1
DA:144,1
DA:145,1
DA:146,1
DA:147,1
DA:148,1
DA:149,1
DA:150,1
DA:151,1
DA:152,1
DA:155,1
DA:156,1
DA:157,1
DA:158,1
DA:159,1
DA:160,1
DA:161,1
DA:162,1
DA:163,1
DA:164,1
DA:165,1
DA:168,1
DA:169,1
DA:170,1
DA:171,1
DA:172,1
DA:173,1
DA:174,1
DA:175,1
DA:176,1
DA:177,1
DA:178,1
DA:179,1
DA:180,1
DA:181,1
DA:182,1
DA:183,1
DA:184,1
DA:185,1
DA:186,1
DA:190,1
DA:191,1
DA:192,1
DA:193,1
DA:194,1
DA:195,1
DA:196,1
DA:197,1
DA:198,1
DA:199,1
DA:200,1
DA:201,1
DA:204,1
DA:205,1
DA:206,1
DA:207,1
DA:208,1
DA:209,1
DA:210,1
DA:211,1
DA:212,1
DA:213,1
DA:214,1
DA:215,1
DA:216,1
DA:217,1
DA:218,1
DA:219,1
DA:220,1
DA:221,1
DA:222,1
DA:223,1
DA:224,1
DA:225,1
DA:226,1
DA:227,1
DA:228,1
DA:229,1
DA:230,1
DA:231,1
DA:232,1
DA:233,1
DA:234,1
DA:235,1
DA:236,1
DA:237,1
DA:238,1
DA:239,1
DA:240,1
DA:241,1
DA:242,1
DA:243,1
DA:246,1
DA:247,1
DA:248,1
DA:249,1
DA:250,1
DA:251,1
DA:252,1
DA:253,1
DA:254,11
DA:255,10
DA:256,10
DA:257,10
DA:258,10
DA:259,10
DA:260,10
DA:261,10
DA:262,10
DA:263,10
DA:264,10
DA:265,10
DA:266,10
DA:267,10
DA:268,1
DA:269,11
DA:270,10
DA:271,1
DA:272,1
DA:273,1
DA:274,1
DA:275,1
DA:276,1
DA:277,1
DA:278,1
DA:279,1
DA:280,1
DA:283,1
DA:284,1
DA:285,1
DA:286,1
DA:287,1
DA:288,1
DA:289,1
DA:290,1
DA:291,1
DA:292,1
DA:293,1
DA:294,1
DA:297,1
DA:298,1
DA:299,1
DA:300,1
DA:301,1
DA:302,1
DA:303,1
DA:304,1
DA:305,1
DA:306,1
DA:307,1
DA:308,1
DA:311,1
DA:312,1
DA:313,1
DA:314,1
DA:315,1
DA:316,1
DA:317,1
DA:318,1
DA:319,1
DA:320,1
DA:321,1
DA:322,1
DA:325,1
DA:326,1
DA:327,1
DA:328,1
DA:329,1
DA:330,1
DA:331,1
DA:332,1
DA:333,1
DA:334,1
DA:335,1
DA:336,1
DA:337,4
DA:338,4
DA:339,40000
DA:340,40000
DA:341,40000
DA:342,40000
DA:343,40000
DA:344,40000
DA:345,40000
DA:346,1
DA:347,4
DA:348,4
DA:349,4
DA:350,1
DA:351,1
DA:352,1
DA:353,1
DA:354,1
DA:355,1
DA:359,1
DA:360,1
DA:361,1
DA:362,1
DA:363,1
DA:364,1
DA:365,1
DA:366,1
DA:367,1
DA:368,1
DA:369,1
DA:370,1
DA:371,1
DA:372,0
DA:374,1
DA:378,1
DA:379,1
DA:380,1
DA:381,1
DA:382,1
DA:383,1
BRF:0
BRH:0
LF:566
LH:565
end_of_record
SF:/Users/renegeers/Source/p2p-ai-agents/src/storage/plugin.rs
FN:148,_RNCNvMNtNtCsazECCRb7Zym_13p2p_ai_agents7storage6pluginNtB4_15StorageRegistry14create_storage0B8_
FN:69,_RNvYpNtNtNtCsazECCRb7Zym_13p2p_ai_agents7storage6plugin13StoragePlugin11descriptionB9_
FN:80,_RNvYpNtNtNtCsazECCRb7Zym_13p2p_ai_agents7storage6plugin13StoragePlugin15validate_configB9_
FN:202,_RNCNCNvXs5_NtNtCsazECCRb7Zym_13p2p_ai_agents7storage6pluginNtB9_18LocalStoragePluginNtB9_13StoragePlugin6create00Bd_
FN:135,_RNCNvMNtNtCsazECCRb7Zym_13p2p_ai_agents7storage6pluginNtB4_15StorageRegistry10get_plugin0B8_
FN:136,_RNCNvMNtNtCsazECCRb7Zym_13p2p_ai_agents7storage6pluginNtB4_15StorageRegistry10get_plugins_0B8_
FN:141,_RNCNvMNtNtCsazECCRb7Zym_13p2p_ai_agents7storage6pluginNtB4_15StorageRegistry12list_plugins0B8_
FN:124,_RNCNvMNtNtCsazECCRb7Zym_13p2p_ai_agents7storage6pluginNtB4_15StorageRegistry17unregister_plugin0B8_
FN:196,_RNCNvXs5_NtNtCsazECCRb7Zym_13p2p_ai_agents7storage6pluginNtB7_18LocalStoragePluginNtB7_13StoragePlugin6create0Bb_
FN:86,_RNvYNtNtNtCsazECCRb7Zym_13p2p_ai_agents7storage6plugin18LocalStoragePluginNtB4_13StoragePlugin13config_schemaB8_
FN:64,_RNvYNtNtNtCsazECCRb7Zym_13p2p_ai_agents7storage6plugin18LocalStoragePluginNtB4_13StoragePlugin7versionB8_
FN:129,_RNvMNtNtCsazECCRb7Zym_13p2p_ai_agents7storage6pluginNtB2_15StorageRegistry10get_plugin
FN:140,_RNvMNtNtCsazECCRb7Zym_13p2p_ai_agents7storage6pluginNtB2_15StorageRegistry12list_plugins
FN:162,_RNvMNtNtCsazECCRb7Zym_13p2p_ai_agents7storage6pluginNtB2_15StorageRegistry13with_defaults
FN:145,_RNvMNtNtCsazECCRb7Zym_13p2p_ai_agents7storage6pluginNtB2_15StorageRegistry14create_storage
FN:106,_RNvMNtNtCsazECCRb7Zym_13p2p_ai_agents7storage6pluginNtB2_15StorageRegistry15register_plugin
FN:121,_RNvMNtNtCsazECCRb7Zym_13p2p_ai_agents7storage6pluginNtB2_15StorageRegistry17unregister_plugin
FN:99,_RNvMNtNtCsazECCRb7Zym_13p2p_ai_agents7storage6pluginNtB2_15StorageRegistry3new
FN:189,_RNvXs5_NtNtCsazECCRb7Zym_13p2p_ai_agents7storage6pluginNtB5_18LocalStoragePluginNtB5_13StoragePlugin11description
FN:217,_RNvXs5_NtNtCsazECCRb7Zym_13p2p_ai_agents7storage6pluginNtB5_18LocalStoragePluginNtB5_13StoragePlugin15validate_config
FN:185,_RNvXs5_NtNtCsazECCRb7Zym_13p2p_ai_agents7storage6pluginNtB5_18LocalStoragePluginNtB5_13StoragePlugin4name
FN:215,_RNvXs5_NtNtCsazECCRb7Zym_13p2p_ai_agents7storage6pluginNtB5_18LocalStoragePluginNtB5_13StoragePlugin6create
FN:64,_RNvYNtNtNtCsazECCRb7Zym_13p2p_ai_agents7storage8supabase21SupabaseStoragePluginNtNtB6_6plugin13StoragePlugin7versionB8_
FN:69,_RNvYpNtNtNtCs4ZEr9HMJnjR_13p2p_ai_agents7storage6plugin13StoragePlugin11descriptionB9_
FN:80,_RNvYpNtNtNtCs4ZEr9HMJnjR_13p2p_ai_agents7storage6plugin13StoragePlugin15validate_configB9_
FN:202,_RNCNCNvXs5_NtNtCs4ZEr9HMJnjR_13p2p_ai_agents7storage6pluginNtB9_18LocalStoragePluginNtB9_13StoragePlugin6create00Bd_
FN:135,_RNCNvMNtNtCs4ZEr9HMJnjR_13p2p_ai_agents7storage6pluginNtB4_15StorageRegistry10get_plugin0B8_
FN:136,_RNCNvMNtNtCs4ZEr9HMJnjR_13p2p_ai_agents7storage6pluginNtB4_15StorageRegistry10get_plugins_0B8_
FN:141,_RNCNvMNtNtCs4ZEr9HMJnjR_13p2p_ai_agents7storage6pluginNtB4_15StorageRegistry12list_plugins0B8_
FN:148,_RNCNvMNtNtCs4ZEr9HMJnjR_13p2p_ai_agents7storage6pluginNtB4_15StorageRegistry14create_storage0B8_
FN:124,_RNCNvMNtNtCs4ZEr9HMJnjR_13p2p_ai_agents7storage6pluginNtB4_15StorageRegistry17unregister_plugin0B8_
FN:196,_RNCNvXs5_NtNtCs4ZEr9HMJnjR_13p2p_ai_agents7storage6pluginNtB7_18LocalStoragePluginNtB7_13StoragePlugin6create0Bb_
FN:86,_RNvYNtNtNtCs4ZEr9HMJnjR_13p2p_ai_agents7storage6plugin18LocalStoragePluginNtB4_13StoragePlugin13config_schemaB8_
FN:64,_RNvYNtNtNtCs4ZEr9HMJnjR_13p2p_ai_agents7storage6plugin18LocalStoragePluginNtB4_13StoragePlugin7versionB8_
FN:64,_RNvYNtNtNtCs4ZEr9HMJnjR_13p2p_ai_agents7storage8supabase21SupabaseStoragePluginNtNtB6_6plugin13StoragePlugin7versionB8_
FN:129,_RNvMNtNtCs4ZEr9HMJnjR_13p2p_ai_agents7storage6pluginNtB2_15StorageRegistry10get_plugin
FN:140,_RNvMNtNtCs4ZEr9HMJnjR_13p2p_ai_agents7storage6pluginNtB2_15StorageRegistry12list_plugins
FN:162,_RNvMNtNtCs4ZEr9HMJnjR_13p2p_ai_agents7storage6pluginNtB2_15StorageRegistry13with_defaults
FN:145,_RNvMNtNtCs4ZEr9HMJnjR_13p2p_ai_agents7storage6pluginNtB2_15StorageRegistry14create_storage
FN:106,_RNvMNtNtCs4ZEr9HMJnjR_13p2p_ai_agents7storage6pluginNtB2_15StorageRegistry15register_plugin
FN:121,_RNvMNtNtCs4ZEr9HMJnjR_13p2p_ai_agents7storage6pluginNtB2_15StorageRegistry17unregister_plugin
FN:99,_RNvMNtNtCs4ZEr9HMJnjR_13p2p_ai_agents7storage6pluginNtB2_15StorageRegistry3new
FN:189,_RNvXs5_NtNtCs4ZEr9HMJnjR_13p2p_ai_agents7storage6pluginNtB5_18LocalStoragePluginNtB5_13StoragePlugin11description
FN:217,_RNvXs5_NtNtCs4ZEr9HMJnjR_13p2p_ai_agents7storage6pluginNtB5_18LocalStoragePluginNtB5_13StoragePlugin15validate_config
FN:185,_RNvXs5_NtNtCs4ZEr9HMJnjR_13p2p_ai_agents7storage6pluginNtB5_18LocalStoragePluginNtB5_13StoragePlugin4name
FN:215,_RNvXs5_NtNtCs4ZEr9HMJnjR_13p2p_ai_agents7storage6pluginNtB5_18LocalStoragePluginNtB5_13StoragePlugin6create
FN:290,_RNCNvNtNtNtCs4ZEr9HMJnjR_13p2p_ai_agents7storage6plugin5testss_27test_local_storage_creation0B9_
FN:300,_RNCNvNtNtNtCs4ZEr9HMJnjR_13p2p_ai_agents7storage6plugin5testss_30test_supabase_storage_creation0B9_
FN:279,_RNvNtNtNtCs4ZEr9HMJnjR_13p2p_ai_agents7storage6plugin5testss_21test_default_registry
FN:316,_RNvNtNtNtCs4ZEr9HMJnjR_13p2p_ai_agents7storage6plugin5testss_22test_config_validation
FN:233,_RNvNtNtNtCs4ZEr9HMJnjR_13p2p_ai_agents7storage6plugin5testss_22test_registry_creation
FN:239,_RNvNtNtNtCs4ZEr9HMJnjR_13p2p_ai_agents7storage6plugin5testss_24test_plugin_registration
FN:262,_RNvNtNtNtCs4ZEr9HMJnjR_13p2p_ai_agents7storage6plugin5testss_26test_plugin_unregistration
FN:290,_RNvNtNtNtCs4ZEr9HMJnjR_13p2p_ai_agents7storage6plugin5testss_27test_local_storage_creation
FN:300,_RNvNtNtNtCs4ZEr9HMJnjR_13p2p_ai_agents7storage6plugin5testss_30test_supabase_storage_creation
FN:330,_RNvNtNtNtCs4ZEr9HMJnjR_13p2p_ai_agents7storage6plugin5testss_31test_supabase_config_validation
FN:249,_RNvNtNtNtCs4ZEr9HMJnjR_13p2p_ai_agents7storage6plugin5testss_34test_duplicate_plugin_registration
FNDA:0,_RNCNvMNtNtCsazECCRb7Zym_13p2p_ai_agents7storage6pluginNtB4_15StorageRegistry14create_storage0B8_
FNDA:0,_RNvYpNtNtNtCsazECCRb7Zym_13p2p_ai_agents7storage6plugin13StoragePlugin11descriptionB9_
FNDA:0,_RNvYpNtNtNtCsazECCRb7Zym_13p2p_ai_agents7storage6plugin13StoragePlugin15validate_configB9_
FNDA:0,_RNCNCNvXs5_NtNtCsazECCRb7Zym_13p2p_ai_agents7storage6pluginNtB9_18LocalStoragePluginNtB9_13StoragePlugin6create00Bd_
FNDA:0,_RNCNvMNtNtCsazECCRb7Zym_13p2p_ai_agents7storage6pluginNtB4_15StorageRegistry10get_plugin0B8_
FNDA:0,_RNCNvMNtNtCsazECCRb7Zym_13p2p_ai_agents7storage6pluginNtB4_15StorageRegistry10get_plugins_0B8_
FNDA:0,_RNCNvMNtNtCsazECCRb7Zym_13p2p_ai_agents7storage6pluginNtB4_15StorageRegistry12list_plugins0B8_
FNDA:0,_RNCNvMNtNtCsazECCRb7Zym_13p2p_ai_agents7storage6pluginNtB4_15StorageRegistry17unregister_plugin0B8_
FNDA:0,_RNCNvXs5_NtNtCsazECCRb7Zym_13p2p_ai_agents7storage6pluginNtB7_18LocalStoragePluginNtB7_13StoragePlugin6create0Bb_
FNDA:0,_RNvYNtNtNtCsazECCRb7Zym_13p2p_ai_agents7storage6plugin18LocalStoragePluginNtB4_13StoragePlugin13config_schemaB8_
FNDA:0,_RNvYNtNtNtCsazECCRb7Zym_13p2p_ai_agents7storage6plugin18LocalStoragePluginNtB4_13StoragePlugin7versionB8_
FNDA:0,_RNvMNtNtCsazECCRb7Zym_13p2p_ai_agents7storage6pluginNtB2_15StorageRegistry10get_plugin
FNDA:0,_RNvMNtNtCsazECCRb7Zym_13p2p_ai_agents7storage6pluginNtB2_15StorageRegistry12list_plugins
FNDA:0,_RNvMNtNtCsazECCRb7Zym_13p2p_ai_agents7storage6pluginNtB2_15StorageRegistry13with_defaults
FNDA:0,_RNvMNtNtCsazECCRb7Zym_13p2p_ai_agents7storage6pluginNtB2_15StorageRegistry14create_storage
FNDA:0,_RNvMNtNtCsazECCRb7Zym_13p2p_ai_agents7storage6pluginNtB2_15StorageRegistry15register_plugin
FNDA:0,_RNvMNtNtCsazECCRb7Zym_13p2p_ai_agents7storage6pluginNtB2_15StorageRegistry17unregister_plugin
FNDA:0,_RNvMNtNtCsazECCRb7Zym_13p2p_ai_agents7storage6pluginNtB2_15StorageRegistry3new
FNDA:0,_RNvXs5_NtNtCsazECCRb7Zym_13p2p_ai_agents7storage6pluginNtB5_18LocalStoragePluginNtB5_13StoragePlugin11description
FNDA:0,_RNvXs5_NtNtCsazECCRb7Zym_13p2p_ai_agents7storage6pluginNtB5_18LocalStoragePluginNtB5_13StoragePlugin15validate_config
FNDA:0,_RNvXs5_NtNtCsazECCRb7Zym_13p2p_ai_agents7storage6pluginNtB5_18LocalStoragePluginNtB5_13StoragePlugin4name
FNDA:0,_RNvXs5_NtNtCsazECCRb7Zym_13p2p_ai_agents7storage6pluginNtB5_18LocalStoragePluginNtB5_13StoragePlugin6create
FNDA:0,_RNvYNtNtNtCsazECCRb7Zym_13p2p_ai_agents7storage8supabase21SupabaseStoragePluginNtNtB6_6plugin13StoragePlugin7versionB8_
FNDA:0,_RNvYpNtNtNtCs4ZEr9HMJnjR_13p2p_ai_agents7storage6plugin13StoragePlugin11descriptionB9_
FNDA:0,_RNvYpNtNtNtCs4ZEr9HMJnjR_13p2p_ai_agents7storage6plugin13StoragePlugin15validate_configB9_
FNDA:0,_RNCNCNvXs5_NtNtCs4ZEr9HMJnjR_13p2p_ai_agents7storage6pluginNtB9_18LocalStoragePluginNtB9_13StoragePlugin6create00Bd_
FNDA:7,_RNCNvMNtNtCs4ZEr9HMJnjR_13p2p_ai_agents7storage6pluginNtB4_15StorageRegistry10get_plugin0B8_
FNDA:0,_RNCNvMNtNtCs4ZEr9HMJnjR_13p2p_ai_agents7storage6pluginNtB4_15StorageRegistry10get_plugins_0B8_
FNDA:5,_RNCNvMNtNtCs4ZEr9HMJnjR_13p2p_ai_agents7storage6pluginNtB4_15StorageRegistry12list_plugins0B8_
FNDA:7,_RNCNvMNtNtCs4ZEr9HMJnjR_13p2p_ai_agents7storage6pluginNtB4_15StorageRegistry14create_storage0B8_
FNDA:1,_RNCNvMNtNtCs4ZEr9HMJnjR_13p2p_ai_agents7storage6pluginNtB4_15StorageRegistry17unregister_plugin0B8_
FNDA:6,_RNCNvXs5_NtNtCs4ZEr9HMJnjR_13p2p_ai_agents7storage6pluginNtB7_18LocalStoragePluginNtB7_13StoragePlugin6create0Bb_
FNDA:0,_RNvYNtNtNtCs4ZEr9HMJnjR_13p2p_ai_agents7storage6plugin18LocalStoragePluginNtB4_13StoragePlugin13config_schemaB8_
FNDA:0,_RNvYNtNtNtCs4ZEr9HMJnjR_13p2p_ai_agents7storage6plugin18LocalStoragePluginNtB4_13StoragePlugin7versionB8_
FNDA:0,_RNvYNtNtNtCs4ZEr9HMJnjR_13p2p_ai_agents7storage8supabase21SupabaseStoragePluginNtNtB6_6plugin13StoragePlugin7versionB8_
FNDA:7,_RNvMNtNtCs4ZEr9HMJnjR_13p2p_ai_agents7storage6pluginNtB2_15StorageRegistry10get_plugin
FNDA:6,_RNvMNtNtCs4ZEr9HMJnjR_13p2p_ai_agents7storage6pluginNtB2_15StorageRegistry12list_plugins
FNDA:11,_RNvMNtNtCs4ZEr9HMJnjR_13p2p_ai_agents7storage6pluginNtB2_15StorageRegistry13with_defaults
FNDA:7,_RNvMNtNtCs4ZEr9HMJnjR_13p2p_ai_agents7storage6pluginNtB2_15StorageRegistry14create_storage
FNDA:26,_RNvMNtNtCs4ZEr9HMJnjR_13p2p_ai_agents7storage6pluginNtB2_15StorageRegistry15register_plugin
FNDA:2,_RNvMNtNtCs4ZEr9HMJnjR_13p2p_ai_agents7storage6pluginNtB2_15StorageRegistry17unregister_plugin
FNDA:15,_RNvMNtNtCs4ZEr9HMJnjR_13p2p_ai_agents7storage6pluginNtB2_15StorageRegistry3new
FNDA:0,_RNvXs5_NtNtCs4ZEr9HMJnjR_13p2p_ai_agents7storage6pluginNtB5_18LocalStoragePluginNtB5_13StoragePlugin11description
FNDA:8,_RNvXs5_NtNtCs4ZEr9HMJnjR_13p2p_ai_agents7storage6pluginNtB5_18LocalStoragePluginNtB5_13StoragePlugin15validate_config
FNDA:16,_RNvXs5_NtNtCs4ZEr9HMJnjR_13p2p_ai_agents7storage6pluginNtB5_18LocalStoragePluginNtB5_13StoragePlugin4name
FNDA:6,_RNvXs5_NtNtCs4ZEr9HMJnjR_13p2p_ai_agents7storage6pluginNtB5_18LocalStoragePluginNtB5_13StoragePlugin6create
FNDA:1,_RNCNvNtNtNtCs4ZEr9HMJnjR_13p2p_ai_agents7storage6plugin5testss_27test_local_storage_creation0B9_
FNDA:1,_RNCNvNtNtNtCs4ZEr9HMJnjR_13p2p_ai_agents7storage6plugin5testss_30test_supabase_storage_creation0B9_
FNDA:1,_RNvNtNtNtCs4ZEr9HMJnjR_13p2p_ai_agents7storage6plugin5testss_21test_default_registry
FNDA:1,_RNvNtNtNtCs4ZEr9HMJnjR_13p2p_ai_agents7storage6plugin5testss_22test_config_validation
FNDA:1,_RNvNtNtNtCs4ZEr9HMJnjR_13p2p_ai_agents7storage6plugin5testss_22test_registry_creation
FNDA:1,_RNvNtNtNtCs4ZEr9HMJnjR_13p2p_ai_agents7storage6plugin5testss_24test_plugin_registration
FNDA:1,_RNvNtNtNtCs4ZEr9HMJnjR_13p2p_ai_agents7storage6plugin5testss_26test_plugin_unregistration
FNDA:1,_RNvNtNtNtCs4ZEr9HMJnjR_13p2p_ai_agents7storage6plugin5testss_27test_local_storage_creation
FNDA:1,_RNvNtNtNtCs4ZEr9HMJnjR_13p2p_ai_agents7storage6plugin5testss_30test_supabase_storage_creation
FNDA:1,_RNvNtNtNtCs4ZEr9HMJnjR_13p2p_ai_agents7storage6plugin5testss_31test_supabase_config_validation
FNDA:1,_RNvNtNtNtCs4ZEr9HMJnjR_13p2p_ai_agents7storage6plugin5testss_34test_duplicate_plugin_registration
FNF:33
FNH:26
DA:64,0
DA:65,0
DA:66,0
DA:69,0
DA:70,0
DA:71,0
DA:80,0
DA:81,0
DA:82,0
DA:83,0
DA:86,0
DA:87,0
DA:88,0
DA:99,15
DA:100,15
DA:101,15
DA:102,15
DA:103,15
DA:106,26
DA:107,26
DA:108,26
DA:109,26
DA:110,26
DA:111,26
DA:112,26
DA:113,1
DA:114,25
DA:115,25
DA:116,25
DA:117,25
DA:118,26
DA:121,2
DA:122,2
DA:123,2
DA:124,2
DA:125,1
DA:126,2
DA:129,7
DA:130,7
DA:131,7
DA:132,7
DA:133,7
DA:134,7
DA:135,7
DA:136,7
DA:137,7
DA:140,6
DA:141,6
DA:142,6
DA:145,7
DA:146,7
DA:147,7
DA:148,7
DA:149,7
DA:150,6
DA:152,1
DA:153,0
DA:156,7
DA:157,7
DA:158,7
DA:159,7
DA:162,11
DA:163,11
DA:164,11
DA:165,11
DA:166,11
DA:167,11
DA:168,11
DA:169,11
DA:170,11
DA:171,11
DA:172,11
DA:173,11
DA:174,11
DA:175,11
DA:176,11
DA:177,11
DA:185,16
DA:186,16
DA:187,16
DA:189,0
DA:190,0
DA:191,0
DA:196,6
DA:197,6
DA:200,6
DA:201,6
DA:202,6
DA:203,0
DA:204,0
DA:205,0
DA:206,0
DA:207,6
DA:210,0
DA:211,0
DA:212,0
DA:213,0
DA:215,12
DA:217,8
DA:218,8
DA:219,7
DA:220,1
DA:221,1
DA:222,1
DA:223,1
DA:225,8
DA:233,1
DA:234,1
DA:235,1
DA:236,1
DA:239,1
DA:240,1
DA:241,1
DA:242,1
DA:243,1
DA:244,1
DA:245,1
DA:246,1
DA:249,1
DA:250,1
DA:251,1
DA:252,1
DA:253,1
DA:254,1
DA:255,1
DA:256,1
DA:259,1
DA:262,1
DA:263,1
DA:264,1
DA:265,1
DA:266,1
DA:267,1
DA:269,1
DA:270,1
DA:272,1
DA:273,1
DA:276,1
DA:279,1
DA:280,1
DA:281,1
DA:282,1
DA:283,1
DA:286,1
DA:287,1
DA:290,1
DA:291,1
DA:292,1
DA:293,1
DA:294,1
DA:295,1
DA:296,1
DA:300,1
DA:301,1
DA:302,1
DA:303,1
DA:304,1
DA:305,1
DA:306,1
DA:307,1
DA:308,1
DA:309,1
DA:310,1
DA:311,1
DA:312,1
DA:313,1
DA:316,1
DA:317,1
DA:318,1
DA:319,1
DA:320,1
DA:321,1
DA:322,1
DA:323,1
DA:324,1
DA:325,1
DA:326,1
DA:330,1
DA:331,1
DA:332,1
DA:333,1
DA:334,1
DA:335,1
DA:336,1
DA:337,1
DA:338,1
DA:339,1
DA:340,1
DA:341,1
DA:342,1
DA:343,1
DA:344,1
DA:345,1
DA:346,1
DA:347,1
DA:348,1
DA:349,1
DA:350,1
DA:351,1
DA:352,1
DA:353,1
BRF:0
BRH:0
LF:226
LH:198
end_of_record
SF:/Users/renegeers/Source/p2p-ai-agents/src/storage/redis.rs
FN:125,_RINvMs_NtNtCsazECCRb7Zym_13p2p_ai_agents7storage5redisNtB5_12RedisStorage10with_retrypppEB9_
FN:129,_RNCINvMs_NtNtCsazECCRb7Zym_13p2p_ai_agents7storage5redisNtB7_12RedisStorage10with_retrypppE0Bb_
FN:89,_RNCNCNvMs_NtNtCsazECCRb7Zym_13p2p_ai_agents7storage5redisNtB8_12RedisStorage12with_metrics00Bc_
FN:94,_RNCNCNvMs_NtNtCsazECCRb7Zym_13p2p_ai_agents7storage5redisNtB8_12RedisStorage12with_metrics0s_0Bc_
FN:59,_RNCNCNvMs_NtNtCsazECCRb7Zym_13p2p_ai_agents7storage5redisNtB8_12RedisStorage3new00Bc_
FN:64,_RNCNCNvMs_NtNtCsazECCRb7Zym_13p2p_ai_agents7storage5redisNtB8_12RedisStorage3new0s_0Bc_
FN:116,_RNCNCNvMs_NtNtCsazECCRb7Zym_13p2p_ai_agents7storage5redisNtB8_12RedisStorage4ping00Bc_
FN:88,_RNCNvMs_NtNtCsazECCRb7Zym_13p2p_ai_agents7storage5redisNtB6_12RedisStorage12with_metrics0Ba_
FN:58,_RNCNvMs_NtNtCsazECCRb7Zym_13p2p_ai_agents7storage5redisNtB6_12RedisStorage3new0Ba_
FN:111,_RNCNvMs_NtNtCsazECCRb7Zym_13p2p_ai_agents7storage5redisNtB6_12RedisStorage4ping0Ba_
FN:89,_RNCNCNvMs_NtNtCsazECCRb7Zym_13p2p_ai_agents7storage5redisNtB8_12RedisStorage12with_metrics00CshJSWJcNPkNy_19metrics_integration
FN:94,_RNCNCNvMs_NtNtCsazECCRb7Zym_13p2p_ai_agents7storage5redisNtB8_12RedisStorage12with_metrics0s_0CshJSWJcNPkNy_19metrics_integration
FN:116,_RNCNCNvMs_NtNtCsazECCRb7Zym_13p2p_ai_agents7storage5redisNtB8_12RedisStorage4ping00CshJSWJcNPkNy_19metrics_integration
FN:88,_RNCNvMs_NtNtCsazECCRb7Zym_13p2p_ai_agents7storage5redisNtB6_12RedisStorage12with_metrics0CshJSWJcNPkNy_19metrics_integration
FN:111,_RNCNvMs_NtNtCsazECCRb7Zym_13p2p_ai_agents7storage5redisNtB6_12RedisStorage4ping0CshJSWJcNPkNy_19metrics_integration
FN:166,_RNCNvXs2_NtNtCsazECCRb7Zym_13p2p_ai_agents7storage5redisNtB7_12RedisStorageNtNtB9_5local7Storage3get0Bb_
FN:220,_RNCNvXs2_NtNtCsazECCRb7Zym_13p2p_ai_agents7storage5redisNtB7_12RedisStorageNtNtB9_5local7Storage3put0Bb_
FN:269,_RNCNvXs2_NtNtCsazECCRb7Zym_13p2p_ai_agents7storage5redisNtB7_12RedisStorageNtNtB9_5local7Storage6delete0Bb_
FN:85,_RNvMs_NtNtCsazECCRb7Zym_13p2p_ai_agents7storage5redisNtB4_12RedisStorage12with_metrics
FN:58,_RNvMs_NtNtCsazECCRb7Zym_13p2p_ai_agents7storage5redisNtB4_12RedisStorage3new
FN:111,_RNvMs_NtNtCsazECCRb7Zym_13p2p_ai_agents7storage5redisNtB4_12RedisStorage4ping
FN:30,_RNvNtNtCsazECCRb7Zym_13p2p_ai_agents7storage5redis19default_max_retries
FN:34,_RNvNtNtCsazECCRb7Zym_13p2p_ai_agents7storage5redis19default_retry_delay
FN:39,_RNvXNtNtCsazECCRb7Zym_13p2p_ai_agents7storage5redisNtB2_11RedisConfigNtNtCsaTRkahAGrLL_4core7default7Default7default
FN:213,_RNvXs2_NtNtCsazECCRb7Zym_13p2p_ai_agents7storage5redisNtB5_12RedisStorageNtNtB7_5local7Storage3get
FN:267,_RNvXs2_NtNtCsazECCRb7Zym_13p2p_ai_agents7storage5redisNtB5_12RedisStorageNtNtB7_5local7Storage3put
FN:316,_RNvXs2_NtNtCsazECCRb7Zym_13p2p_ai_agents7storage5redisNtB5_12RedisStorageNtNtB7_5local7Storage6delete
FN:125,_RINvMs_NtNtCs4ZEr9HMJnjR_13p2p_ai_agents7storage5redisNtB5_12RedisStorage10with_retrypppEB9_
FN:129,_RNCINvMs_NtNtCs4ZEr9HMJnjR_13p2p_ai_agents7storage5redisNtB7_12RedisStorage10with_retrypppE0Bb_
FN:89,_RNCNCNvMs_NtNtCs4ZEr9HMJnjR_13p2p_ai_agents7storage5redisNtB8_12RedisStorage12with_metrics00Bc_
FN:94,_RNCNCNvMs_NtNtCs4ZEr9HMJnjR_13p2p_ai_agents7storage5redisNtB8_12RedisStorage12with_metrics0s_0Bc_
FN:88,_RNCNvMs_NtNtCs4ZEr9HMJnjR_13p2p_ai_agents7storage5redisNtB6_12RedisStorage12with_metrics0Ba_
FN:85,_RNvMs_NtNtCs4ZEr9HMJnjR_13p2p_ai_agents7storage5redisNtB4_12RedisStorage12with_metrics
FN:30,_RNvNtNtCs4ZEr9HMJnjR_13p2p_ai_agents7storage5redis19default_max_retries
FN:34,_RNvNtNtCs4ZEr9HMJnjR_13p2p_ai_agents7storage5redis19default_retry_delay
FN:325,_RNCNvNtNtNtCs4ZEr9HMJnjR_13p2p_ai_agents7storage5redis5testss_21test_redis_connection0B9_
FN:373,_RNCNvNtNtNtCs4ZEr9HMJnjR_13p2p_ai_agents7storage5redis5testss_22test_redis_invalid_url0B9_
FN:390,_RNCNvNtNtNtCs4ZEr9HMJnjR_13p2p_ai_agents7storage5redis5testss_24test_retry_config_custom0B9_
FN:365,_RNCNvNtNtNtCs4ZEr9HMJnjR_13p2p_ai_agents7storage5redis5testss_25test_redis_config_default0B9_
FN:333,_RNCNvNtNtNtCs4ZEr9HMJnjR_13p2p_ai_agents7storage5redis5testss_26test_redis_crud_operations0B9_
FN:383,_RNCNvNtNtNtCs4ZEr9HMJnjR_13p2p_ai_agents7storage5redis5testss_26test_retry_config_defaults0B9_
FN:59,_RNCNCNvMs_NtNtCs4ZEr9HMJnjR_13p2p_ai_agents7storage5redisNtB8_12RedisStorage3new00Bc_
FN:64,_RNCNCNvMs_NtNtCs4ZEr9HMJnjR_13p2p_ai_agents7storage5redisNtB8_12RedisStorage3new0s_0Bc_
FN:116,_RNCNCNvMs_NtNtCs4ZEr9HMJnjR_13p2p_ai_agents7storage5redisNtB8_12RedisStorage4ping00Bc_
FN:58,_RNCNvMs_NtNtCs4ZEr9HMJnjR_13p2p_ai_agents7storage5redisNtB6_12RedisStorage3new0Ba_
FN:111,_RNCNvMs_NtNtCs4ZEr9HMJnjR_13p2p_ai_agents7storage5redisNtB6_12RedisStorage4ping0Ba_
FN:166,_RNCNvXs2_NtNtCs4ZEr9HMJnjR_13p2p_ai_agents7storage5redisNtB7_12RedisStorageNtNtB9_5local7Storage3get0Bb_
FN:220,_RNCNvXs2_NtNtCs4ZEr9HMJnjR_13p2p_ai_agents7storage5redisNtB7_12RedisStorageNtNtB9_5local7Storage3put0Bb_
FN:269,_RNCNvXs2_NtNtCs4ZEr9HMJnjR_13p2p_ai_agents7storage5redisNtB7_12RedisStorageNtNtB9_5local7Storage6delete0Bb_
FN:58,_RNvMs_NtNtCs4ZEr9HMJnjR_13p2p_ai_agents7storage5redisNtB4_12RedisStorage3new
FN:111,_RNvMs_NtNtCs4ZEr9HMJnjR_13p2p_ai_agents7storage5redisNtB4_12RedisStorage4ping
FN:39,_RNvXNtNtCs4ZEr9HMJnjR_13p2p_ai_agents7storage5redisNtB2_11RedisConfigNtNtCsaTRkahAGrLL_4core7default7Default7default
FN:213,_RNvXs2_NtNtCs4ZEr9HMJnjR_13p2p_ai_agents7storage5redisNtB5_12RedisStorageNtNtB7_5local7Storage3get
FN:267,_RNvXs2_NtNtCs4ZEr9HMJnjR_13p2p_ai_agents7storage5redisNtB5_12RedisStorageNtNtB7_5local7Storage3put
FN:316,_RNvXs2_NtNtCs4ZEr9HMJnjR_13p2p_ai_agents7storage5redisNtB5_12RedisStorageNtNtB7_5local7Storage6delete
FN:325,_RNvNtNtNtCs4ZEr9HMJnjR_13p2p_ai_agents7storage5redis5testss_21test_redis_connection
FN:373,_RNvNtNtNtCs4ZEr9HMJnjR_13p2p_ai_agents7storage5redis5testss_22test_redis_invalid_url
FN:390,_RNvNtNtNtCs4ZEr9HMJnjR_13p2p_ai_agents7storage5redis5testss_24test_retry_config_custom
FN:365,_RNvNtNtNtCs4ZEr9HMJnjR_13p2p_ai_agents7storage5redis5testss_25test_redis_config_default
FN:333,_RNvNtNtNtCs4ZEr9HMJnjR_13p2p_ai_agents7storage5redis5testss_26test_redis_crud_operations
FN:383,_RNvNtNtNtCs4ZEr9HMJnjR_13p2p_ai_agents7storage5redis5testss_26test_retry_config_defaults
FNDA:0,_RINvMs_NtNtCsazECCRb7Zym_13p2p_ai_agents7storage5redisNtB5_12RedisStorage10with_retrypppEB9_
FNDA:0,_RNCINvMs_NtNtCsazECCRb7Zym_13p2p_ai_agents7storage5redisNtB7_12RedisStorage10with_retrypppE0Bb_
FNDA:0,_RNCNCNvMs_NtNtCsazECCRb7Zym_13p2p_ai_agents7storage5redisNtB8_12RedisStorage12with_metrics00Bc_
FNDA:0,_RNCNCNvMs_NtNtCsazECCRb7Zym_13p2p_ai_agents7storage5redisNtB8_12RedisStorage12with_metrics0s_0Bc_
FNDA:0,_RNCNCNvMs_NtNtCsazECCRb7Zym_13p2p_ai_agents7storage5redisNtB8_12RedisStorage3new00Bc_
FNDA:0,_RNCNCNvMs_NtNtCsazECCRb7Zym_13p2p_ai_agents7storage5redisNtB8_12RedisStorage3new0s_0Bc_
FNDA:0,_RNCNCNvMs_NtNtCsazECCRb7Zym_13p2p_ai_agents7storage5redisNtB8_12RedisStorage4ping00Bc_
FNDA:0,_RNCNvMs_NtNtCsazECCRb7Zym_13p2p_ai_agents7storage5redisNtB6_12RedisStorage12with_metrics0Ba_
FNDA:0,_RNCNvMs_NtNtCsazECCRb7Zym_13p2p_ai_agents7storage5redisNtB6_12RedisStorage3new0Ba_
FNDA:0,_RNCNvMs_NtNtCsazECCRb7Zym_13p2p_ai_agents7storage5redisNtB6_12RedisStorage4ping0Ba_
FNDA:0,_RNCNCNvMs_NtNtCsazECCRb7Zym_13p2p_ai_agents7storage5redisNtB8_12RedisStorage12with_metrics00CshJSWJcNPkNy_19metrics_integration
FNDA:0,_RNCNCNvMs_NtNtCsazECCRb7Zym_13p2p_ai_agents7storage5redisNtB8_12RedisStorage12with_metrics0s_0CshJSWJcNPkNy_19metrics_integration
FNDA:0,_RNCNCNvMs_NtNtCsazECCRb7Zym_13p2p_ai_agents7storage5redisNtB8_12RedisStorage4ping00CshJSWJcNPkNy_19metrics_integration
FNDA:0,_RNCNvMs_NtNtCsazECCRb7Zym_13p2p_ai_agents7storage5redisNtB6_12RedisStorage12with_metrics0CshJSWJcNPkNy_19metrics_integration
FNDA:0,_RNCNvMs_NtNtCsazECCRb7Zym_13p2p_ai_agents7storage5redisNtB6_12RedisStorage4ping0CshJSWJcNPkNy_19metrics_integration
FNDA:0,_RNCNvXs2_NtNtCsazECCRb7Zym_13p2p_ai_agents7storage5redisNtB7_12RedisStorageNtNtB9_5local7Storage3get0Bb_
FNDA:0,_RNCNvXs2_NtNtCsazECCRb7Zym_13p2p_ai_agents7storage5redisNtB7_12RedisStorageNtNtB9_5local7Storage3put0Bb_
FNDA:0,_RNCNvXs2_NtNtCsazECCRb7Zym_13p2p_ai_agents7storage5redisNtB7_12RedisStorageNtNtB9_5local7Storage6delete0Bb_
FNDA:0,_RNvMs_NtNtCsazECCRb7Zym_13p2p_ai_agents7storage5redisNtB4_12RedisStorage12with_metrics
FNDA:0,_RNvMs_NtNtCsazECCRb7Zym_13p2p_ai_agents7storage5redisNtB4_12RedisStorage3new
FNDA:0,_RNvMs_NtNtCsazECCRb7Zym_13p2p_ai_agents7storage5redisNtB4_12RedisStorage4ping
FNDA:0,_RNvNtNtCsazECCRb7Zym_13p2p_ai_agents7storage5redis19default_max_retries
FNDA:0,_RNvNtNtCsazECCRb7Zym_13p2p_ai_agents7storage5redis19default_retry_delay
FNDA:0,_RNvXNtNtCsazECCRb7Zym_13p2p_ai_agents7storage5redisNtB2_11RedisConfigNtNtCsaTRkahAGrLL_4core7default7Default7default
FNDA:0,_RNvXs2_NtNtCsazECCRb7Zym_13p2p_ai_agents7storage5redisNtB5_12RedisStorageNtNtB7_5local7Storage3get
FNDA:0,_RNvXs2_NtNtCsazECCRb7Zym_13p2p_ai_agents7storage5redisNtB5_12RedisStorageNtNtB7_5local7Storage3put
FNDA:0,_RNvXs2_NtNtCsazECCRb7Zym_13p2p_ai_agents7storage5redisNtB5_12RedisStorageNtNtB7_5local7Storage6delete
FNDA:0,_RINvMs_NtNtCs4ZEr9HMJnjR_13p2p_ai_agents7storage5redisNtB5_12RedisStorage10with_retrypppEB9_
FNDA:0,_RNCINvMs_NtNtCs4ZEr9HMJnjR_13p2p_ai_agents7storage5redisNtB7_12RedisStorage10with_retrypppE0Bb_
FNDA:0,_RNCNCNvMs_NtNtCs4ZEr9HMJnjR_13p2p_ai_agents7storage5redisNtB8_12RedisStorage12with_metrics00Bc_
FNDA:0,_RNCNCNvMs_NtNtCs4ZEr9HMJnjR_13p2p_ai_agents7storage5redisNtB8_12RedisStorage12with_metrics0s_0Bc_
FNDA:0,_RNCNvMs_NtNtCs4ZEr9HMJnjR_13p2p_ai_agents7storage5redisNtB6_12RedisStorage12with_metrics0Ba_
FNDA:0,_RNvMs_NtNtCs4ZEr9HMJnjR_13p2p_ai_agents7storage5redisNtB4_12RedisStorage12with_metrics
FNDA:0,_RNvNtNtCs4ZEr9HMJnjR_13p2p_ai_agents7storage5redis19default_max_retries
FNDA:0,_RNvNtNtCs4ZEr9HMJnjR_13p2p_ai_agents7storage5redis19default_retry_delay
FNDA:0,_RNCNvNtNtNtCs4ZEr9HMJnjR_13p2p_ai_agents7storage5redis5testss_21test_redis_connection0B9_
FNDA:1,_RNCNvNtNtNtCs4ZEr9HMJnjR_13p2p_ai_agents7storage5redis5testss_22test_redis_invalid_url0B9_
FNDA:1,_RNCNvNtNtNtCs4ZEr9HMJnjR_13p2p_ai_agents7storage5redis5testss_24test_retry_config_custom0B9_
FNDA:1,_RNCNvNtNtNtCs4ZEr9HMJnjR_13p2p_ai_agents7storage5redis5testss_25test_redis_config_default0B9_
FNDA:0,_RNCNvNtNtNtCs4ZEr9HMJnjR_13p2p_ai_agents7storage5redis5testss_26test_redis_crud_operations0B9_
FNDA:1,_RNCNvNtNtNtCs4ZEr9HMJnjR_13p2p_ai_agents7storage5redis5testss_26test_retry_config_defaults0B9_
FNDA:1,_RNCNCNvMs_NtNtCs4ZEr9HMJnjR_13p2p_ai_agents7storage5redisNtB8_12RedisStorage3new00Bc_
FNDA:0,_RNCNCNvMs_NtNtCs4ZEr9HMJnjR_13p2p_ai_agents7storage5redisNtB8_12RedisStorage3new0s_0Bc_
FNDA:0,_RNCNCNvMs_NtNtCs4ZEr9HMJnjR_13p2p_ai_agents7storage5redisNtB8_12RedisStorage4ping00Bc_
FNDA:1,_RNCNvMs_NtNtCs4ZEr9HMJnjR_13p2p_ai_agents7storage5redisNtB6_12RedisStorage3new0Ba_
FNDA:0,_RNCNvMs_NtNtCs4ZEr9HMJnjR_13p2p_ai_agents7storage5redisNtB6_12RedisStorage4ping0Ba_
FNDA:0,_RNCNvXs2_NtNtCs4ZEr9HMJnjR_13p2p_ai_agents7storage5redisNtB7_12RedisStorageNtNtB9_5local7Storage3get0Bb_
FNDA:0,_RNCNvXs2_NtNtCs4ZEr9HMJnjR_13p2p_ai_agents7storage5redisNtB7_12RedisStorageNtNtB9_5local7Storage3put0Bb_
FNDA:0,_RNCNvXs2_NtNtCs4ZEr9HMJnjR_13p2p_ai_agents7storage5redisNtB7_12RedisStorageNtNtB9_5local7Storage6delete0Bb_
FNDA:1,_RNvMs_NtNtCs4ZEr9HMJnjR_13p2p_ai_agents7storage5redisNtB4_12RedisStorage3new
FNDA:0,_RNvMs_NtNtCs4ZEr9HMJnjR_13p2p_ai_agents7storage5redisNtB4_12RedisStorage4ping
FNDA:3,_RNvXNtNtCs4ZEr9HMJnjR_13p2p_ai_agents7storage5redisNtB2_11RedisConfigNtNtCsaTRkahAGrLL_4core7default7Default7default
FNDA:0,_RNvXs2_NtNtCs4ZEr9HMJnjR_13p2p_ai_agents7storage5redisNtB5_12RedisStorageNtNtB7_5local7Storage3get
FNDA:0,_RNvXs2_NtNtCs4ZEr9HMJnjR_13p2p_ai_agents7storage5redisNtB5_12RedisStorageNtNtB7_5local7Storage3put
FNDA:0,_RNvXs2_NtNtCs4ZEr9HMJnjR_13p2p_ai_agents7storage5redisNtB5_12RedisStorageNtNtB7_5local7Storage6delete
FNDA:0,_RNvNtNtNtCs4ZEr9HMJnjR_13p2p_ai_agents7storage5redis5testss_21test_redis_connection
FNDA:1,_RNvNtNtNtCs4ZEr9HMJnjR_13p2p_ai_agents7storage5redis5testss_22test_redis_invalid_url
FNDA:1,_RNvNtNtNtCs4ZEr9HMJnjR_13p2p_ai_agents7storage5redis5testss_24test_retry_config_custom
FNDA:1,_RNvNtNtNtCs4ZEr9HMJnjR_13p2p_ai_agents7storage5redis5testss_25test_redis_config_default
FNDA:0,_RNvNtNtNtCs4ZEr9HMJnjR_13p2p_ai_agents7storage5redis5testss_26test_redis_crud_operations
FNDA:1,_RNvNtNtNtCs4ZEr9HMJnjR_13p2p_ai_agents7storage5redis5testss_26test_retry_config_defaults
FNF:34
FNH:12
DA:30,0
DA:31,0
DA:32,0
DA:34,0
DA:35,0
DA:36,0
DA:39,3
DA:40,3
DA:41,3
DA:42,3
DA:43,3
DA:44,3
DA:45,3
DA:58,1
DA:59,1
DA:60,1
DA:61,1
DA:62,1
DA:64,0
DA:65,0
DA:66,0
DA:67,0
DA:69,0
DA:70,0
DA:71,0
DA:72,0
DA:73,0
DA:74,0
DA:75,0
DA:76,0
DA:77,0
DA:79,0
DA:80,0
DA:81,1
DA:85,0
DA:86,0
DA:87,0
DA:88,0
DA:89,0
DA:90,0
DA:91,0
DA:92,0
DA:94,0
DA:95,0
DA:96,0
DA:97,0
DA:99,0
DA:100,0
DA:101,0
DA:102,0
DA:103,0
DA:104,0
DA:105,0
DA:106,0
DA:107,0
DA:108,0
DA:111,0
DA:112,0
DA:113,0
DA:114,0
DA:115,0
DA:116,0
DA:117,0
DA:118,0
DA:119,0
DA:120,0
DA:121,0
DA:125,0
DA:126,0
DA:127,0
DA:128,0
DA:129,0
DA:130,0
DA:131,0
DA:134,0
DA:135,0
DA:136,0
DA:137,0
DA:138,0
DA:139,0
DA:140,0
DA:143,0
DA:144,0
DA:145,0
DA:146,0
DA:147,0
DA:148,0
DA:149,0
DA:152,0
DA:153,0
DA:157,0
DA:166,0
DA:168,0
DA:169,0
DA:170,0
DA:171,0
DA:173,0
DA:174,0
DA:175,0
DA:176,0
DA:177,0
DA:178,0
DA:179,0
DA:181,0
DA:182,0
DA:183,0
DA:184,0
DA:185,0
DA:186,0
DA:187,0
DA:188,0
DA:191,0
DA:192,0
DA:193,0
DA:194,0
DA:195,0
DA:196,0
DA:197,0
DA:200,0
DA:201,0
DA:207,0
DA:208,0
DA:209,0
DA:210,0
DA:212,0
DA:213,0
DA:220,0
DA:222,0
DA:223,0
DA:224,0
DA:225,0
DA:227,0
DA:228,0
DA:229,0
DA:230,0
DA:231,0
DA:232,0
DA:233,0
DA:235,0
DA:236,0
DA:237,0
DA:238,0
DA:239,0
DA:240,0
DA:241,0
DA:242,0
DA:245,0
DA:246,0
DA:247,0
DA:248,0
DA:249,0
DA:250,0
DA:251,0
DA:254,0
DA:255,0
DA:261,0
DA:262,0
DA:263,0
DA:264,0
DA:266,0
DA:267,0
DA:269,0
DA:271,0
DA:272,0
DA:273,0
DA:274,0
DA:276,0
DA:277,0
DA:278,0
DA:279,0
DA:280,0
DA:281,0
DA:282,0
DA:284,0
DA:285,0
DA:286,0
DA:287,0
DA:288,0
DA:289,0
DA:290,0
DA:291,0
DA:294,0
DA:295,0
DA:296,0
DA:297,0
DA:298,0
DA:299,0
DA:300,0
DA:303,0
DA:304,0
DA:310,0
DA:311,0
DA:312,0
DA:313,0
DA:315,0
DA:316,0
DA:325,0
DA:326,0
DA:327,0
DA:328,0
DA:329,0
DA:333,0
DA:334,0
DA:335,0
DA:336,0
DA:337,0
DA:338,0
DA:339,0
DA:340,0
DA:341,0
DA:342,0
DA:343,0
DA:344,0
DA:345,0
DA:346,0
DA:347,0
DA:348,0
DA:349,0
DA:350,0
DA:351,0
DA:352,0
DA:353,0
DA:354,0
DA:355,0
DA:356,0
DA:357,0
DA:358,0
DA:359,0
DA:360,0
DA:361,0
DA:362,0
DA:365,1
DA:366,1
DA:367,1
DA:368,1
DA:369,1
DA:370,1
DA:373,1
DA:374,1
DA:375,1
DA:376,1
DA:377,1
DA:378,1
DA:379,1
DA:380,1
DA:383,1
DA:384,1
DA:385,1
DA:386,1
DA:387,1
DA:390,1
DA:391,1
DA:392,1
DA:393,1
DA:394,1
DA:395,1
DA:396,1
DA:397,1
DA:398,1
BRF:0
BRH:0
LF:327
LH:68
end_of_record
SF:/Users/renegeers/Source/p2p-ai-agents/src/storage/supabase.rs
FN:325,_RNCNCNvMs1_NtNtCsazECCRb7Zym_13p2p_ai_agents7storage8supabaseNtB9_15SupabaseStorage9list_keys00Bd_
FN:330,_RNCNCNvMs1_NtNtCsazECCRb7Zym_13p2p_ai_agents7storage8supabaseNtB9_15SupabaseStorage9list_keys0s_0Bd_
FN:169,_RNCNvMs0_NtNtCsazECCRb7Zym_13p2p_ai_agents7storage8supabaseNtB7_15SupabaseStorage17test_connectivity0Bb_
FN:307,_RNCNvMs1_NtNtCsazECCRb7Zym_13p2p_ai_agents7storage8supabaseNtB7_15SupabaseStorage9list_keys0Bb_
FN:268,_RNCNCNvXs4_NtNtCsazECCRb7Zym_13p2p_ai_agents7storage8supabaseNtB9_15SupabaseStorageNtNtBb_5local7Storage3get00Bd_
FN:384,_RNCNCNvXs5_NtNtCsazECCRb7Zym_13p2p_ai_agents7storage8supabaseNtB9_21SupabaseStoragePluginNtNtBb_6plugin13StoragePlugin6create00Bd_
FN:125,_RNCNvMs0_NtNtCsazECCRb7Zym_13p2p_ai_agents7storage8supabaseNtB7_15SupabaseStorage13ensure_bucket0Bb_
FN:49,_RNCNvMs_NtNtCsazECCRb7Zym_13p2p_ai_agents7storage8supabaseNtB6_14SupabaseConfig8from_env0Ba_
FN:53,_RNCNvMs_NtNtCsazECCRb7Zym_13p2p_ai_agents7storage8supabaseNtB6_14SupabaseConfig8from_envs0_0Ba_
FN:58,_RNCNvMs_NtNtCsazECCRb7Zym_13p2p_ai_agents7storage8supabaseNtB6_14SupabaseConfig8from_envs1_0Ba_
FN:50,_RNCNvMs_NtNtCsazECCRb7Zym_13p2p_ai_agents7storage8supabaseNtB6_14SupabaseConfig8from_envs_0Ba_
FN:250,_RNCNvXs4_NtNtCsazECCRb7Zym_13p2p_ai_agents7storage8supabaseNtB7_15SupabaseStorageNtNtB9_5local7Storage3get0Bb_
FN:197,_RNCNvXs4_NtNtCsazECCRb7Zym_13p2p_ai_agents7storage8supabaseNtB7_15SupabaseStorageNtNtB9_5local7Storage3put0Bb_
FN:279,_RNCNvXs4_NtNtCsazECCRb7Zym_13p2p_ai_agents7storage8supabaseNtB7_15SupabaseStorageNtNtB9_5local7Storage6delete0Bb_
FN:362,_RNCNvXs5_NtNtCsazECCRb7Zym_13p2p_ai_agents7storage8supabaseNtB7_21SupabaseStoragePluginNtNtB9_6plugin13StoragePlugin6create0Bb_
FN:114,_RNvMs0_NtNtCsazECCRb7Zym_13p2p_ai_agents7storage8supabaseNtB5_15SupabaseStorage11storage_url
FN:125,_RNvMs0_NtNtCsazECCRb7Zym_13p2p_ai_agents7storage8supabaseNtB5_15SupabaseStorage13ensure_bucket
FN:95,_RNvMs0_NtNtCsazECCRb7Zym_13p2p_ai_agents7storage8supabaseNtB5_15SupabaseStorage15get_auth_header
FN:106,_RNvMs0_NtNtCsazECCRb7Zym_13p2p_ai_agents7storage8supabaseNtB5_15SupabaseStorage17get_apikey_header
FN:169,_RNvMs0_NtNtCsazECCRb7Zym_13p2p_ai_agents7storage8supabaseNtB5_15SupabaseStorage17test_connectivity
FN:80,_RNvMs0_NtNtCsazECCRb7Zym_13p2p_ai_agents7storage8supabaseNtB5_15SupabaseStorage3new
FN:89,_RNvMs0_NtNtCsazECCRb7Zym_13p2p_ai_agents7storage8supabaseNtB5_15SupabaseStorage8from_env
FN:307,_RNvMs1_NtNtCsazECCRb7Zym_13p2p_ai_agents7storage8supabaseNtB5_15SupabaseStorage9list_keys
FN:47,_RNvMs_NtNtCsazECCRb7Zym_13p2p_ai_agents7storage8supabaseNtB4_14SupabaseConfig8from_env
FN:33,_RNvXNtNtCsazECCRb7Zym_13p2p_ai_agents7storage8supabaseNtB2_14SupabaseConfigNtNtCsaTRkahAGrLL_4core7default7Default7default
FN:277,_RNvXs4_NtNtCsazECCRb7Zym_13p2p_ai_agents7storage8supabaseNtB5_15SupabaseStorageNtNtB7_5local7Storage3get
FN:244,_RNvXs4_NtNtCsazECCRb7Zym_13p2p_ai_agents7storage8supabaseNtB5_15SupabaseStorageNtNtB7_5local7Storage3put
FN:301,_RNvXs4_NtNtCsazECCRb7Zym_13p2p_ai_agents7storage8supabaseNtB5_15SupabaseStorageNtNtB7_5local7Storage6delete
FN:355,_RNvXs5_NtNtCsazECCRb7Zym_13p2p_ai_agents7storage8supabaseNtB5_21SupabaseStoragePluginNtNtB7_6plugin13StoragePlugin11description
FN:424,_RNvXs5_NtNtCsazECCRb7Zym_13p2p_ai_agents7storage8supabaseNtB5_21SupabaseStoragePluginNtNtB7_6plugin13StoragePlugin13config_schema
FN:395,_RNvXs5_NtNtCsazECCRb7Zym_13p2p_ai_agents7storage8supabaseNtB5_21SupabaseStoragePluginNtNtB7_6plugin13StoragePlugin15validate_config
FN:351,_RNvXs5_NtNtCsazECCRb7Zym_13p2p_ai_agents7storage8supabaseNtB5_21SupabaseStoragePluginNtNtB7_6plugin13StoragePlugin4name
FN:393,_RNvXs5_NtNtCsazECCRb7Zym_13p2p_ai_agents7storage8supabaseNtB5_21SupabaseStoragePluginNtNtB7_6plugin13StoragePlugin6create
FN:528,_RNvNtNtNtCs4ZEr9HMJnjR_13p2p_ai_agents7storage8supabase5testss_25test_storage_url_building
FN:470,_RNvNtNtNtCs4ZEr9HMJnjR_13p2p_ai_agents7storage8supabase5testss_28test_supabase_config_default
FN:485,_RNvNtNtNtCs4ZEr9HMJnjR_13p2p_ai_agents7storage8supabase5testss_29test_supabase_plugin_creation
FN:521,_RNvNtNtNtCs4ZEr9HMJnjR_13p2p_ai_agents7storage8supabase5testss_30test_supabase_adapter_creation
FN:478,_RNvNtNtNtCs4ZEr9HMJnjR_13p2p_ai_agents7storage8supabase5testss_30test_supabase_storage_creation
FN:547,_RNvNtNtNtCs4ZEr9HMJnjR_13p2p_ai_agents7storage8supabase5testss_33test_config_from_env_missing_vars
FN:492,_RNvNtNtNtCs4ZEr9HMJnjR_13p2p_ai_agents7storage8supabase5testss_38test_supabase_plugin_config_validation
FN:114,_RNvMs0_NtNtCs4ZEr9HMJnjR_13p2p_ai_agents7storage8supabaseNtB5_15SupabaseStorage11storage_url
FN:125,_RNvMs0_NtNtCs4ZEr9HMJnjR_13p2p_ai_agents7storage8supabaseNtB5_15SupabaseStorage13ensure_bucket
FN:95,_RNvMs0_NtNtCs4ZEr9HMJnjR_13p2p_ai_agents7storage8supabaseNtB5_15SupabaseStorage15get_auth_header
FN:106,_RNvMs0_NtNtCs4ZEr9HMJnjR_13p2p_ai_agents7storage8supabaseNtB5_15SupabaseStorage17get_apikey_header
FN:80,_RNvMs0_NtNtCs4ZEr9HMJnjR_13p2p_ai_agents7storage8supabaseNtB5_15SupabaseStorage3new
FN:47,_RNvMs_NtNtCs4ZEr9HMJnjR_13p2p_ai_agents7storage8supabaseNtB4_14SupabaseConfig8from_env
FN:33,_RNvXNtNtCs4ZEr9HMJnjR_13p2p_ai_agents7storage8supabaseNtB2_14SupabaseConfigNtNtCsaTRkahAGrLL_4core7default7Default7default
FN:277,_RNvXs4_NtNtCs4ZEr9HMJnjR_13p2p_ai_agents7storage8supabaseNtB5_15SupabaseStorageNtNtB7_5local7Storage3get
FN:244,_RNvXs4_NtNtCs4ZEr9HMJnjR_13p2p_ai_agents7storage8supabaseNtB5_15SupabaseStorageNtNtB7_5local7Storage3put
FN:301,_RNvXs4_NtNtCs4ZEr9HMJnjR_13p2p_ai_agents7storage8supabaseNtB5_15SupabaseStorageNtNtB7_5local7Storage6delete
FN:355,_RNvXs5_NtNtCs4ZEr9HMJnjR_13p2p_ai_agents7storage8supabaseNtB5_21SupabaseStoragePluginNtNtB7_6plugin13StoragePlugin11description
FN:424,_RNvXs5_NtNtCs4ZEr9HMJnjR_13p2p_ai_agents7storage8supabaseNtB5_21SupabaseStoragePluginNtNtB7_6plugin13StoragePlugin13config_schema
FN:395,_RNvXs5_NtNtCs4ZEr9HMJnjR_13p2p_ai_agents7storage8supabaseNtB5_21SupabaseStoragePluginNtNtB7_6plugin13StoragePlugin15validate_config
FN:351,_RNvXs5_NtNtCs4ZEr9HMJnjR_13p2p_ai_agents7storage8supabaseNtB5_21SupabaseStoragePluginNtNtB7_6plugin13StoragePlugin4name
FN:393,_RNvXs5_NtNtCs4ZEr9HMJnjR_13p2p_ai_agents7storage8supabaseNtB5_21SupabaseStoragePluginNtNtB7_6plugin13StoragePlugin6create
FN:325,_RNCNCNvMs1_NtNtCs4ZEr9HMJnjR_13p2p_ai_agents7storage8supabaseNtB9_15SupabaseStorage9list_keys00Bd_
FN:330,_RNCNCNvMs1_NtNtCs4ZEr9HMJnjR_13p2p_ai_agents7storage8supabaseNtB9_15SupabaseStorage9list_keys0s_0Bd_
FN:169,_RNCNvMs0_NtNtCs4ZEr9HMJnjR_13p2p_ai_agents7storage8supabaseNtB7_15SupabaseStorage17test_connectivity0Bb_
FN:307,_RNCNvMs1_NtNtCs4ZEr9HMJnjR_13p2p_ai_agents7storage8supabaseNtB7_15SupabaseStorage9list_keys0Bb_
FN:169,_RNvMs0_NtNtCs4ZEr9HMJnjR_13p2p_ai_agents7storage8supabaseNtB5_15SupabaseStorage17test_connectivity
FN:89,_RNvMs0_NtNtCs4ZEr9HMJnjR_13p2p_ai_agents7storage8supabaseNtB5_15SupabaseStorage8from_env
FN:307,_RNvMs1_NtNtCs4ZEr9HMJnjR_13p2p_ai_agents7storage8supabaseNtB5_15SupabaseStorage9list_keys
FN:268,_RNCNCNvXs4_NtNtCs4ZEr9HMJnjR_13p2p_ai_agents7storage8supabaseNtB9_15SupabaseStorageNtNtBb_5local7Storage3get00Bd_
FN:384,_RNCNCNvXs5_NtNtCs4ZEr9HMJnjR_13p2p_ai_agents7storage8supabaseNtB9_21SupabaseStoragePluginNtNtBb_6plugin13StoragePlugin6create00Bd_
FN:125,_RNCNvMs0_NtNtCs4ZEr9HMJnjR_13p2p_ai_agents7storage8supabaseNtB7_15SupabaseStorage13ensure_bucket0Bb_
FN:49,_RNCNvMs_NtNtCs4ZEr9HMJnjR_13p2p_ai_agents7storage8supabaseNtB6_14SupabaseConfig8from_env0Ba_
FN:53,_RNCNvMs_NtNtCs4ZEr9HMJnjR_13p2p_ai_agents7storage8supabaseNtB6_14SupabaseConfig8from_envs0_0Ba_
FN:58,_RNCNvMs_NtNtCs4ZEr9HMJnjR_13p2p_ai_agents7storage8supabaseNtB6_14SupabaseConfig8from_envs1_0Ba_
FN:50,_RNCNvMs_NtNtCs4ZEr9HMJnjR_13p2p_ai_agents7storage8supabaseNtB6_14SupabaseConfig8from_envs_0Ba_
FN:250,_RNCNvXs4_NtNtCs4ZEr9HMJnjR_13p2p_ai_agents7storage8supabaseNtB7_15SupabaseStorageNtNtB9_5local7Storage3get0Bb_
FN:197,_RNCNvXs4_NtNtCs4ZEr9HMJnjR_13p2p_ai_agents7storage8supabaseNtB7_15SupabaseStorageNtNtB9_5local7Storage3put0Bb_
FN:279,_RNCNvXs4_NtNtCs4ZEr9HMJnjR_13p2p_ai_agents7storage8supabaseNtB7_15SupabaseStorageNtNtB9_5local7Storage6delete0Bb_
FN:362,_RNCNvXs5_NtNtCs4ZEr9HMJnjR_13p2p_ai_agents7storage8supabaseNtB7_21SupabaseStoragePluginNtNtB9_6plugin13StoragePlugin6create0Bb_
FN:528,_RNCNvNtNtNtCs4ZEr9HMJnjR_13p2p_ai_agents7storage8supabase5testss_25test_storage_url_building0B9_
FN:470,_RNCNvNtNtNtCs4ZEr9HMJnjR_13p2p_ai_agents7storage8supabase5testss_28test_supabase_config_default0B9_
FN:485,_RNCNvNtNtNtCs4ZEr9HMJnjR_13p2p_ai_agents7storage8supabase5testss_29test_supabase_plugin_creation0B9_
FN:521,_RNCNvNtNtNtCs4ZEr9HMJnjR_13p2p_ai_agents7storage8supabase5testss_30test_supabase_adapter_creation0B9_
FN:478,_RNCNvNtNtNtCs4ZEr9HMJnjR_13p2p_ai_agents7storage8supabase5testss_30test_supabase_storage_creation0B9_
FN:547,_RNCNvNtNtNtCs4ZEr9HMJnjR_13p2p_ai_agents7storage8supabase5testss_33test_config_from_env_missing_vars0B9_
FN:492,_RNCNvNtNtNtCs4ZEr9HMJnjR_13p2p_ai_agents7storage8supabase5testss_38test_supabase_plugin_config_validation0B9_
FN:169,_RNCNvMs0_NtNtCsazECCRb7Zym_13p2p_ai_agents7storage8supabaseNtB7_15SupabaseStorage17test_connectivity0CsdJUYruqyWSW_12storage_perf
FNDA:0,_RNCNCNvMs1_NtNtCsazECCRb7Zym_13p2p_ai_agents7storage8supabaseNtB9_15SupabaseStorage9list_keys00Bd_
FNDA:0,_RNCNCNvMs1_NtNtCsazECCRb7Zym_13p2p_ai_agents7storage8supabaseNtB9_15SupabaseStorage9list_keys0s_0Bd_
FNDA:0,_RNCNvMs0_NtNtCsazECCRb7Zym_13p2p_ai_agents7storage8supabaseNtB7_15SupabaseStorage17test_connectivity0Bb_
FNDA:0,_RNCNvMs1_NtNtCsazECCRb7Zym_13p2p_ai_agents7storage8supabaseNtB7_15SupabaseStorage9list_keys0Bb_
FNDA:0,_RNCNCNvXs4_NtNtCsazECCRb7Zym_13p2p_ai_agents7storage8supabaseNtB9_15SupabaseStorageNtNtBb_5local7Storage3get00Bd_
FNDA:0,_RNCNCNvXs5_NtNtCsazECCRb7Zym_13p2p_ai_agents7storage8supabaseNtB9_21SupabaseStoragePluginNtNtBb_6plugin13StoragePlugin6create00Bd_
FNDA:0,_RNCNvMs0_NtNtCsazECCRb7Zym_13p2p_ai_agents7storage8supabaseNtB7_15SupabaseStorage13ensure_bucket0Bb_
FNDA:0,_RNCNvMs_NtNtCsazECCRb7Zym_13p2p_ai_agents7storage8supabaseNtB6_14SupabaseConfig8from_env0Ba_
FNDA:0,_RNCNvMs_NtNtCsazECCRb7Zym_13p2p_ai_agents7storage8supabaseNtB6_14SupabaseConfig8from_envs0_0Ba_
FNDA:0,_RNCNvMs_NtNtCsazECCRb7Zym_13p2p_ai_agents7storage8supabaseNtB6_14SupabaseConfig8from_envs1_0Ba_
FNDA:0,_RNCNvMs_NtNtCsazECCRb7Zym_13p2p_ai_agents7storage8supabaseNtB6_14SupabaseConfig8from_envs_0Ba_
FNDA:0,_RNCNvXs4_NtNtCsazECCRb7Zym_13p2p_ai_agents7storage8supabaseNtB7_15SupabaseStorageNtNtB9_5local7Storage3get0Bb_
FNDA:0,_RNCNvXs4_NtNtCsazECCRb7Zym_13p2p_ai_agents7storage8supabaseNtB7_15SupabaseStorageNtNtB9_5local7Storage3put0Bb_
FNDA:0,_RNCNvXs4_NtNtCsazECCRb7Zym_13p2p_ai_agents7storage8supabaseNtB7_15SupabaseStorageNtNtB9_5local7Storage6delete0Bb_
FNDA:0,_RNCNvXs5_NtNtCsazECCRb7Zym_13p2p_ai_agents7storage8supabaseNtB7_21SupabaseStoragePluginNtNtB9_6plugin13StoragePlugin6create0Bb_
FNDA:0,_RNvMs0_NtNtCsazECCRb7Zym_13p2p_ai_agents7storage8supabaseNtB5_15SupabaseStorage11storage_url
FNDA:0,_RNvMs0_NtNtCsazECCRb7Zym_13p2p_ai_agents7storage8supabaseNtB5_15SupabaseStorage13ensure_bucket
FNDA:0,_RNvMs0_NtNtCsazECCRb7Zym_13p2p_ai_agents7storage8supabaseNtB5_15SupabaseStorage15get_auth_header
FNDA:0,_RNvMs0_NtNtCsazECCRb7Zym_13p2p_ai_agents7storage8supabaseNtB5_15SupabaseStorage17get_apikey_header
FNDA:0,_RNvMs0_NtNtCsazECCRb7Zym_13p2p_ai_agents7storage8supabaseNtB5_15SupabaseStorage17test_connectivity
FNDA:0,_RNvMs0_NtNtCsazECCRb7Zym_13p2p_ai_agents7storage8supabaseNtB5_15SupabaseStorage3new
FNDA:0,_RNvMs0_NtNtCsazECCRb7Zym_13p2p_ai_agents7storage8supabaseNtB5_15SupabaseStorage8from_env
FNDA:0,_RNvMs1_NtNtCsazECCRb7Zym_13p2p_ai_agents7storage8supabaseNtB5_15SupabaseStorage9list_keys
FNDA:0,_RNvMs_NtNtCsazECCRb7Zym_13p2p_ai_agents7storage8supabaseNtB4_14SupabaseConfig8from_env
FNDA:0,_RNvXNtNtCsazECCRb7Zym_13p2p_ai_agents7storage8supabaseNtB2_14SupabaseConfigNtNtCsaTRkahAGrLL_4core7default7Default7default
FNDA:0,_RNvXs4_NtNtCsazECCRb7Zym_13p2p_ai_agents7storage8supabaseNtB5_15SupabaseStorageNtNtB7_5local7Storage3get
FNDA:0,_RNvXs4_NtNtCsazECCRb7Zym_13p2p_ai_agents7storage8supabaseNtB5_15SupabaseStorageNtNtB7_5local7Storage3put
FNDA:0,_RNvXs4_NtNtCsazECCRb7Zym_13p2p_ai_agents7storage8supabaseNtB5_15SupabaseStorageNtNtB7_5local7Storage6delete
FNDA:0,_RNvXs5_NtNtCsazECCRb7Zym_13p2p_ai_agents7storage8supabaseNtB5_21SupabaseStoragePluginNtNtB7_6plugin13StoragePlugin11description
FNDA:0,_RNvXs5_NtNtCsazECCRb7Zym_13p2p_ai_agents7storage8supabaseNtB5_21SupabaseStoragePluginNtNtB7_6plugin13StoragePlugin13config_schema
FNDA:0,_RNvXs5_NtNtCsazECCRb7Zym_13p2p_ai_agents7storage8supabaseNtB5_21SupabaseStoragePluginNtNtB7_6plugin13StoragePlugin15validate_config
FNDA:0,_RNvXs5_NtNtCsazECCRb7Zym_13p2p_ai_agents7storage8supabaseNtB5_21SupabaseStoragePluginNtNtB7_6plugin13StoragePlugin4name
FNDA:0,_RNvXs5_NtNtCsazECCRb7Zym_13p2p_ai_agents7storage8supabaseNtB5_21SupabaseStoragePluginNtNtB7_6plugin13StoragePlugin6create
FNDA:1,_RNvNtNtNtCs4ZEr9HMJnjR_13p2p_ai_agents7storage8supabase5testss_25test_storage_url_building
FNDA:1,_RNvNtNtNtCs4ZEr9HMJnjR_13p2p_ai_agents7storage8supabase5testss_28test_supabase_config_default
FNDA:1,_RNvNtNtNtCs4ZEr9HMJnjR_13p2p_ai_agents7storage8supabase5testss_29test_supabase_plugin_creation
FNDA:1,_RNvNtNtNtCs4ZEr9HMJnjR_13p2p_ai_agents7storage8supabase5testss_30test_supabase_adapter_creation
FNDA:1,_RNvNtNtNtCs4ZEr9HMJnjR_13p2p_ai_agents7storage8supabase5testss_30test_supabase_storage_creation
FNDA:1,_RNvNtNtNtCs4ZEr9HMJnjR_13p2p_ai_agents7storage8supabase5testss_33test_config_from_env_missing_vars
FNDA:1,_RNvNtNtNtCs4ZEr9HMJnjR_13p2p_ai_agents7storage8supabase5testss_38test_supabase_plugin_config_validation
FNDA:2,_RNvMs0_NtNtCs4ZEr9HMJnjR_13p2p_ai_agents7storage8supabaseNtB5_15SupabaseStorage11storage_url
FNDA:0,_RNvMs0_NtNtCs4ZEr9HMJnjR_13p2p_ai_agents7storage8supabaseNtB5_15SupabaseStorage13ensure_bucket
FNDA:0,_RNvMs0_NtNtCs4ZEr9HMJnjR_13p2p_ai_agents7storage8supabaseNtB5_15SupabaseStorage15get_auth_header
FNDA:0,_RNvMs0_NtNtCs4ZEr9HMJnjR_13p2p_ai_agents7storage8supabaseNtB5_15SupabaseStorage17get_apikey_header
FNDA:5,_RNvMs0_NtNtCs4ZEr9HMJnjR_13p2p_ai_agents7storage8supabaseNtB5_15SupabaseStorage3new
FNDA:1,_RNvMs_NtNtCs4ZEr9HMJnjR_13p2p_ai_agents7storage8supabaseNtB4_14SupabaseConfig8from_env
FNDA:5,_RNvXNtNtCs4ZEr9HMJnjR_13p2p_ai_agents7storage8supabaseNtB2_14SupabaseConfigNtNtCsaTRkahAGrLL_4core7default7Default7default
FNDA:0,_RNvXs4_NtNtCs4ZEr9HMJnjR_13p2p_ai_agents7storage8supabaseNtB5_15SupabaseStorageNtNtB7_5local7Storage3get
FNDA:0,_RNvXs4_NtNtCs4ZEr9HMJnjR_13p2p_ai_agents7storage8supabaseNtB5_15SupabaseStorageNtNtB7_5local7Storage3put
FNDA:0,_RNvXs4_NtNtCs4ZEr9HMJnjR_13p2p_ai_agents7storage8supabaseNtB5_15SupabaseStorageNtNtB7_5local7Storage6delete
FNDA:1,_RNvXs5_NtNtCs4ZEr9HMJnjR_13p2p_ai_agents7storage8supabaseNtB5_21SupabaseStoragePluginNtNtB7_6plugin13StoragePlugin11description
FNDA:0,_RNvXs5_NtNtCs4ZEr9HMJnjR_13p2p_ai_agents7storage8supabaseNtB5_21SupabaseStoragePluginNtNtB7_6plugin13StoragePlugin13config_schema
FNDA:5,_RNvXs5_NtNtCs4ZEr9HMJnjR_13p2p_ai_agents7storage8supabaseNtB5_21SupabaseStoragePluginNtNtB7_6plugin13StoragePlugin15validate_config
FNDA:14,_RNvXs5_NtNtCs4ZEr9HMJnjR_13p2p_ai_agents7storage8supabaseNtB5_21SupabaseStoragePluginNtNtB7_6plugin13StoragePlugin4name
FNDA:1,_RNvXs5_NtNtCs4ZEr9HMJnjR_13p2p_ai_agents7storage8supabaseNtB5_21SupabaseStoragePluginNtNtB7_6plugin13StoragePlugin6create
FNDA:0,_RNCNCNvMs1_NtNtCs4ZEr9HMJnjR_13p2p_ai_agents7storage8supabaseNtB9_15SupabaseStorage9list_keys00Bd_
FNDA:0,_RNCNCNvMs1_NtNtCs4ZEr9HMJnjR_13p2p_ai_agents7storage8supabaseNtB9_15SupabaseStorage9list_keys0s_0Bd_
FNDA:0,_RNCNvMs0_NtNtCs4ZEr9HMJnjR_13p2p_ai_agents7storage8supabaseNtB7_15SupabaseStorage17test_connectivity0Bb_
FNDA:0,_RNCNvMs1_NtNtCs4ZEr9HMJnjR_13p2p_ai_agents7storage8supabaseNtB7_15SupabaseStorage9list_keys0Bb_
FNDA:0,_RNvMs0_NtNtCs4ZEr9HMJnjR_13p2p_ai_agents7storage8supabaseNtB5_15SupabaseStorage17test_connectivity
FNDA:0,_RNvMs0_NtNtCs4ZEr9HMJnjR_13p2p_ai_agents7storage8supabaseNtB5_15SupabaseStorage8from_env
FNDA:0,_RNvMs1_NtNtCs4ZEr9HMJnjR_13p2p_ai_agents7storage8supabaseNtB5_15SupabaseStorage9list_keys
FNDA:0,_RNCNCNvXs4_NtNtCs4ZEr9HMJnjR_13p2p_ai_agents7storage8supabaseNtB9_15SupabaseStorageNtNtBb_5local7Storage3get00Bd_
FNDA:0,_RNCNCNvXs5_NtNtCs4ZEr9HMJnjR_13p2p_ai_agents7storage8supabaseNtB9_21SupabaseStoragePluginNtNtBb_6plugin13StoragePlugin6create00Bd_
FNDA:0,_RNCNvMs0_NtNtCs4ZEr9HMJnjR_13p2p_ai_agents7storage8supabaseNtB7_15SupabaseStorage13ensure_bucket0Bb_
FNDA:1,_RNCNvMs_NtNtCs4ZEr9HMJnjR_13p2p_ai_agents7storage8supabaseNtB6_14SupabaseConfig8from_env0Ba_
FNDA:0,_RNCNvMs_NtNtCs4ZEr9HMJnjR_13p2p_ai_agents7storage8supabaseNtB6_14SupabaseConfig8from_envs0_0Ba_
FNDA:0,_RNCNvMs_NtNtCs4ZEr9HMJnjR_13p2p_ai_agents7storage8supabaseNtB6_14SupabaseConfig8from_envs1_0Ba_
FNDA:1,_RNCNvMs_NtNtCs4ZEr9HMJnjR_13p2p_ai_agents7storage8supabaseNtB6_14SupabaseConfig8from_envs_0Ba_
FNDA:0,_RNCNvXs4_NtNtCs4ZEr9HMJnjR_13p2p_ai_agents7storage8supabaseNtB7_15SupabaseStorageNtNtB9_5local7Storage3get0Bb_
FNDA:0,_RNCNvXs4_NtNtCs4ZEr9HMJnjR_13p2p_ai_agents7storage8supabaseNtB7_15SupabaseStorageNtNtB9_5local7Storage3put0Bb_
FNDA:0,_RNCNvXs4_NtNtCs4ZEr9HMJnjR_13p2p_ai_agents7storage8supabaseNtB7_15SupabaseStorageNtNtB9_5local7Storage6delete0Bb_
FNDA:1,_RNCNvXs5_NtNtCs4ZEr9HMJnjR_13p2p_ai_agents7storage8supabaseNtB7_21SupabaseStoragePluginNtNtB9_6plugin13StoragePlugin6create0Bb_
FNDA:1,_RNCNvNtNtNtCs4ZEr9HMJnjR_13p2p_ai_agents7storage8supabase5testss_25test_storage_url_building0B9_
FNDA:1,_RNCNvNtNtNtCs4ZEr9HMJnjR_13p2p_ai_agents7storage8supabase5testss_28test_supabase_config_default0B9_
FNDA:1,_RNCNvNtNtNtCs4ZEr9HMJnjR_13p2p_ai_agents7storage8supabase5testss_29test_supabase_plugin_creation0B9_
FNDA:1,_RNCNvNtNtNtCs4ZEr9HMJnjR_13p2p_ai_agents7storage8supabase5testss_30test_supabase_adapter_creation0B9_
FNDA:1,_RNCNvNtNtNtCs4ZEr9HMJnjR_13p2p_ai_agents7storage8supabase5testss_30test_supabase_storage_creation0B9_
FNDA:1,_RNCNvNtNtNtCs4ZEr9HMJnjR_13p2p_ai_agents7storage8supabase5testss_33test_config_from_env_missing_vars0B9_
FNDA:1,_RNCNvNtNtNtCs4ZEr9HMJnjR_13p2p_ai_agents7storage8supabase5testss_38test_supabase_plugin_config_validation0B9_
FNDA:0,_RNCNvMs0_NtNtCsazECCRb7Zym_13p2p_ai_agents7storage8supabaseNtB7_15SupabaseStorage17test_connectivity0CsdJUYruqyWSW_12storage_perf
FNF:47
FNH:25
DA:33,5
DA:34,5
DA:35,5
DA:36,5
DA:37,5
DA:38,5
DA:39,5
DA:40,5
DA:41,5
DA:42,5
DA:47,1
DA:48,1
DA:49,1
DA:50,1
DA:52,0
DA:53,0
DA:55,0
DA:56,0
DA:57,0
DA:58,0
DA:59,0
DA:60,0
DA:61,0
DA:62,0
DA:63,0
DA:64,0
DA:65,0
DA:66,0
DA:67,0
DA:68,1
DA:80,5
DA:81,5
DA:82,5
DA:83,5
DA:84,5
DA:85,5
DA:86,5
DA:89,0
DA:90,0
DA:91,0
DA:92,0
DA:95,0
DA:96,0
DA:97,0
DA:98,0
DA:99,0
DA:100,0
DA:101,0
DA:102,0
DA:103,0
DA:106,0
DA:107,0
DA:108,0
DA:109,0
DA:110,0
DA:111,0
DA:114,2
DA:115,2
DA:116,0
DA:118,2
DA:121,2
DA:122,2
DA:125,0
DA:126,0
DA:129,0
DA:130,0
DA:131,0
DA:132,0
DA:133,0
DA:134,0
DA:135,0
DA:137,0
DA:138,0
DA:139,0
DA:140,0
DA:141,0
DA:142,0
DA:143,0
DA:144,0
DA:145,0
DA:146,0
DA:147,0
DA:149,0
DA:150,0
DA:151,0
DA:152,0
DA:153,0
DA:154,0
DA:155,0
DA:156,0
DA:157,0
DA:159,0
DA:160,0
DA:161,0
DA:162,0
DA:163,0
DA:165,0
DA:166,0
DA:169,0
DA:170,0
DA:172,0
DA:173,0
DA:174,0
DA:175,0
DA:176,0
DA:177,0
DA:178,0
DA:179,0
DA:181,0
DA:183,0
DA:185,0
DA:187,0
DA:197,0
DA:201,0
DA:202,0
DA:203,0
DA:204,0
DA:205,0
DA:206,0
DA:207,0
DA:208,0
DA:209,0
DA:210,0
DA:211,0
DA:213,0
DA:214,0
DA:215,0
DA:216,0
DA:217,0
DA:218,0
DA:219,0
DA:220,0
DA:221,0
DA:223,0
DA:224,0
DA:225,0
DA:226,0
DA:228,0
DA:229,0
DA:230,0
DA:231,0
DA:232,0
DA:233,0
DA:234,0
DA:238,0
DA:239,0
DA:240,0
DA:241,0
DA:244,0
DA:250,0
DA:253,0
DA:255,0
DA:256,0
DA:257,0
DA:258,0
DA:259,0
DA:260,0
DA:261,0
DA:263,0
DA:264,0
DA:265,0
DA:266,0
DA:267,0
DA:268,0
DA:269,0
DA:273,0
DA:274,0
DA:277,0
DA:279,0
DA:282,0
DA:284,0
DA:285,0
DA:286,0
DA:287,0
DA:288,0
DA:289,0
DA:290,0
DA:292,0
DA:293,0
DA:296,0
DA:297,0
DA:298,0
DA:301,0
DA:307,0
DA:308,0
DA:310,0
DA:311,0
DA:312,0
DA:313,0
DA:314,0
DA:315,0
DA:316,0
DA:317,0
DA:318,0
DA:320,0
DA:321,0
DA:322,0
DA:323,0
DA:324,0
DA:325,0
DA:326,0
DA:328,0
DA:329,0
DA:330,0
DA:331,0
DA:332,0
DA:334,0
DA:336,0
DA:340,0
DA:341,0
DA:344,0
DA:351,14
DA:352,14
DA:353,14
DA:355,1
DA:356,1
DA:357,1
DA:362,1
DA:365,1
DA:367,1
DA:368,1
DA:369,1
DA:370,1
DA:371,1
DA:372,1
DA:373,1
DA:374,1
DA:375,1
DA:376,1
DA:377,1
DA:378,1
DA:379,1
DA:380,1
DA:381,1
DA:383,1
DA:384,1
DA:386,1
DA:388,0
DA:389,0
DA:390,0
DA:391,0
DA:393,2
DA:395,5
DA:396,5
DA:397,5
DA:398,5
DA:401,5
DA:402,5
DA:403,5
DA:404,2
DA:405,2
DA:406,2
DA:407,2
DA:408,3
DA:409,3
DA:410,0
DA:411,0
DA:412,0
DA:413,0
DA:414,3
DA:415,3
DA:417,0
DA:418,0
DA:419,0
DA:420,0
DA:422,5
DA:424,0
DA:425,0
DA:426,0
DA:427,0
DA:428,0
DA:429,0
DA:430,0
DA:431,0
DA:432,0
DA:433,0
DA:434,0
DA:435,0
DA:436,0
DA:437,0
DA:438,0
DA:439,0
DA:440,0
DA:441,0
DA:442,0
DA:443,0
DA:444,0
DA:445,0
DA:446,0
DA:447,0
DA:448,0
DA:449,0
DA:450,0
DA:451,0
DA:452,0
DA:453,0
DA:454,0
DA:455,0
DA:456,0
DA:457,0
DA:458,0
DA:459,0
DA:460,0
DA:461,0
DA:462,0
DA:470,1
DA:471,1
DA:472,1
DA:473,1
DA:474,1
DA:475,1
DA:478,1
DA:479,1
DA:480,1
DA:481,1
DA:482,1
DA:485,1
DA:486,1
DA:487,1
DA:488,1
DA:489,1
DA:492,1
DA:493,1
DA:494,1
DA:495,1
DA:496,1
DA:497,1
DA:498,1
DA:499,1
DA:500,1
DA:501,1
DA:502,1
DA:503,1
DA:504,1
DA:505,1
DA:506,1
DA:507,1
DA:508,1
DA:509,1
DA:510,1
DA:511,1
DA:512,1
DA:513,1
DA:514,1
DA:515,1
DA:516,1
DA:517,1
DA:518,1
DA:521,1
DA:522,1
DA:523,1
DA:524,1
DA:525,1
DA:528,1
DA:529,1
DA:530,1
DA:531,1
DA:532,1
DA:533,1
DA:534,1
DA:535,1
DA:536,1
DA:537,1
DA:538,1
DA:539,1
DA:540,1
DA:541,1
DA:542,1
DA:543,1
DA:544,1
DA:547,1
DA:548,1
DA:549,1
DA:550,1
DA:551,1
DA:552,1
DA:553,1
DA:554,1
DA:555,1
BRF:0
BRH:0
LF:457
LH:210
end_of_record